TN:
SF:/home/xucong/caicAD/01datainfra/Aurora/aurora-edge-runtime/src/common/async_io.cpp
FN:13,_ZN6aurora5async15AsyncFileWriterC2Emm
FN:18,_ZN6aurora5async15AsyncFileWriterD2Ev
FN:22,_ZN6aurora5async15AsyncFileWriter5startEv
FN:29,_ZN6aurora5async15AsyncFileWriter4stopEv
FN:41,_ZN6aurora5async15AsyncFileWriter10writerLoopEv
FN:47,_ZZN6aurora5async15AsyncFileWriter10writerLoopEvENKUlvE_clEv
FN:67,_ZN6aurora5async15AsyncFileWriter11processTaskERKNS1_9WriteTaskE
FN:106,_ZN6aurora5async15AsyncFileWriter5writeERKNSt7__cxx1112basic_stringIcSt11char_traitsIcESaIcEEERKSt6vectorIcS6_Ebb
FN:126,_ZZN6aurora5async15AsyncFileWriter5writeERKNSt7__cxx1112basic_stringIcSt11char_traitsIcESaIcEEERKSt6vectorIcS6_EbbENKUlvE_clEv
FN:139,_ZN6aurora5async15AsyncFileWriter17writeWithCallbackERKNSt7__cxx1112basic_stringIcSt11char_traitsIcESaIcEEERKSt6vectorIcS6_ESt8functionIFvRKNS0_6ResultImEEEEbb
FN:156,_ZZN6aurora5async15AsyncFileWriter17writeWithCallbackERKNSt7__cxx1112basic_stringIcSt11char_traitsIcESaIcEEERKSt6vectorIcS6_ESt8functionIFvRKNS0_6ResultImEEEEbbENKUlvE_clEv
FN:165,_ZN6aurora5async15AsyncFileWriter9writeSyncERKNSt7__cxx1112basic_stringIcSt11char_traitsIcESaIcEEERKSt6vectorIcS6_Eb
FN:196,_ZNK6aurora5async15AsyncFileWriter12getQueueSizeEv
FN:201,_ZN6aurora5async15AsyncFileWriter5flushEv
FN:204,_ZZN6aurora5async15AsyncFileWriter5flushEvENKUlvE_clEv
FN:211,_ZN6aurora5async15AsyncFileReaderC2Emmm
FN:218,_ZN6aurora5async15AsyncFileReaderD2Ev
FN:222,_ZN6aurora5async15AsyncFileReader5startEv
FN:229,_ZN6aurora5async15AsyncFileReader4stopEv
FN:241,_ZN6aurora5async15AsyncFileReader10readerLoopEv
FN:247,_ZZN6aurora5async15AsyncFileReader10readerLoopEvENKUlvE_clEv
FN:272,_ZN6aurora5async15AsyncFileReader8readFileERKNSt7__cxx1112basic_stringIcSt11char_traitsIcESaIcEEEmm
FN:316,_ZN6aurora5async15AsyncFileReader15tryGetFromCacheERKNSt7__cxx1112basic_stringIcSt11char_traitsIcESaIcEEERSt6vectorIcS6_E
FN:338,_ZN6aurora5async15AsyncFileReader10addToCacheERKNSt7__cxx1112basic_stringIcSt11char_traitsIcESaIcEEESt6vectorIcS6_E
FN:351,_ZZN6aurora5async15AsyncFileReader10addToCacheERKNSt7__cxx1112basic_stringIcSt11char_traitsIcESaIcEEESt6vectorIcS6_EENKUlRKNS1_10CacheEntryESE_E_clESE_SE_
FN:370,_ZN6aurora5async15AsyncFileReader4readERKNSt7__cxx1112basic_stringIcSt11char_traitsIcESaIcEEE
FN:389,_ZN6aurora5async15AsyncFileReader16readWithCallbackERKNSt7__cxx1112basic_stringIcSt11char_traitsIcESaIcEEESt8functionIFvRKNS0_6ResultISt6vectorIcS6_EEEEE
FN:406,_ZN6aurora5async15AsyncFileReader7preloadERKNSt7__cxx1112basic_stringIcSt11char_traitsIcESaIcEEE
FN:413,_ZN6aurora5async15AsyncFileReader8readSyncERKNSt7__cxx1112basic_stringIcSt11char_traitsIcESaIcEEE
FN:447,_ZN6aurora5async15AsyncFileReader10clearCacheEv
FN:452,_ZNK6aurora5async15AsyncFileReader12getCacheSizeEv
FN:461,_ZNK6aurora5async15AsyncFileReader17getCacheFileCountEv
FN:468,_ZN6aurora5async11AsyncLoggerC2ERKNSt7__cxx1112basic_stringIcSt11char_traitsIcESaIcEEEmNSt6chrono8durationIlSt5ratioILl1ELl1EEEE
FN:487,_ZN6aurora5async11AsyncLoggerD2Ev
FN:491,_ZN6aurora5async11AsyncLogger5startEv
FN:499,_ZN6aurora5async11AsyncLogger4stopEv
FN:512,_ZN6aurora5async11AsyncLogger9flushLoopEv
FN:519,_ZN6aurora5async11AsyncLogger3logERKNSt7__cxx1112basic_stringIcSt11char_traitsIcESaIcEEE
FN:523,_ZN6aurora5async11AsyncLogger3logEPKcm
FN:540,_ZN6aurora5async11AsyncLogger3logERKSt6vectorIcSaIcEE
FN:544,_ZN6aurora5async11AsyncLogger11flushBufferEv
FN:561,_ZN6aurora5async11AsyncLogger5flushEv
FN:566,_ZN6aurora5async11AsyncLogger4infoERKNSt7__cxx1112basic_stringIcSt11char_traitsIcESaIcEEE
FN:575,_ZN6aurora5async11AsyncLogger4warnERKNSt7__cxx1112basic_stringIcSt11char_traitsIcESaIcEEE
FN:584,_ZN6aurora5async11AsyncLogger5errorERKNSt7__cxx1112basic_stringIcSt11char_traitsIcESaIcEEE
FN:593,_ZN6aurora5async11AsyncLogger5debugERKNSt7__cxx1112basic_stringIcSt11char_traitsIcESaIcEEE
FN:604,_ZN6aurora5async16AsyncBagRecorderC2Em
FN:609,_ZN6aurora5async16AsyncBagRecorderD2Ev
FN:613,_ZN6aurora5async16AsyncBagRecorder5startERKNSt7__cxx1112basic_stringIcSt11char_traitsIcESaIcEEE
FN:621,_ZN6aurora5async16AsyncBagRecorder4stopEv
FN:630,_ZN6aurora5async16AsyncBagRecorder13recordingLoopEv
FN:636,_ZZN6aurora5async16AsyncBagRecorder13recordingLoopEvENKUlvE_clEv
FN:656,_ZN6aurora5async16AsyncBagRecorder14processMessageERKNS1_16RecordingRequestE
FN:662,_ZN6aurora5async16AsyncBagRecorder10addMessageERKNSt7__cxx1112basic_stringIcSt11char_traitsIcESaIcEEERKSt6vectorIcS6_ENSt6chrono8durationIlSt5ratioILl1ELl1000000000EEEE
FN:682,_ZNK6aurora5async16AsyncBagRecorder12getQueueSizeEv
FN:689,_ZN6aurora5async19StreamingFileWriterC2ERKNSt7__cxx1112basic_stringIcSt11char_traitsIcESaIcEEEbm
FN:702,_ZN6aurora5async19StreamingFileWriterD2Ev
FN:706,_ZN6aurora5async19StreamingFileWriter4openEv
FN:716,_ZN6aurora5async19StreamingFileWriter5closeEv
FN:728,_ZN6aurora5async19StreamingFileWriter5writeEPKvm
FN:749,_ZN6aurora5async19StreamingFileWriter5writeERKSt6vectorIcSaIcEE
FN:753,_ZN6aurora5async19StreamingFileWriter11flushBufferEv
FN:771,_ZN6aurora5async19StreamingFileWriter5flushEv
FN:781,_ZN6aurora5async16AsyncIoEventLoopD2Ev
FN:785,_ZN6aurora5async16AsyncIoEventLoop5startEv
FN:790,_ZN6aurora5async16AsyncIoEventLoop4stopEv
FN:797,_ZN6aurora5async16AsyncIoEventLoop9eventLoopEv
FN:804,_ZN6aurora5async16AsyncIoEventLoop8scheduleESt8functionIFvvEENSt6chrono8durationIlSt5ratioILl1ELl1000EEEE
FN:815,_ZN6aurora5async16AsyncIoEventLoop17scheduleRecurringESt8functionIFvvEENSt6chrono8durationIlSt5ratioILl1ELl1000EEEE
FN:827,_ZN6aurora5async16AsyncIoEventLoop7executeESt8functionIFvvEE
FN:831,_ZN6aurora5async16AsyncIoEventLoop7runOnceEv
FNDA:0,_ZNK6aurora5async15AsyncFileWriter12getQueueSizeEv
FNDA:0,_ZN6aurora5async15AsyncFileWriter5flushEv
FNDA:0,_ZN6aurora5async16AsyncBagRecorder5startERKNSt7__cxx1112basic_stringIcSt11char_traitsIcESaIcEEE
FNDA:0,_ZN6aurora5async16AsyncBagRecorderC2Em
FNDA:0,_ZN6aurora5async15AsyncFileReader10addToCacheERKNSt7__cxx1112basic_stringIcSt11char_traitsIcESaIcEEESt6vectorIcS6_E
FNDA:0,_ZN6aurora5async11AsyncLogger9flushLoopEv
FNDA:0,_ZN6aurora5async15AsyncFileWriter5writeERKNSt7__cxx1112basic_stringIcSt11char_traitsIcESaIcEEERKSt6vectorIcS6_Ebb
FNDA:0,_ZN6aurora5async11AsyncLogger4stopEv
FNDA:0,_ZNK6aurora5async15AsyncFileReader12getCacheSizeEv
FNDA:0,_ZZN6aurora5async15AsyncFileWriter5writeERKNSt7__cxx1112basic_stringIcSt11char_traitsIcESaIcEEERKSt6vectorIcS6_EbbENKUlvE_clEv
FNDA:0,_ZN6aurora5async19StreamingFileWriter5closeEv
FNDA:0,_ZZN6aurora5async16AsyncBagRecorder13recordingLoopEvENKUlvE_clEv
FNDA:0,_ZN6aurora5async15AsyncFileWriterD2Ev
FNDA:0,_ZN6aurora5async16AsyncIoEventLoop5startEv
FNDA:0,_ZN6aurora5async15AsyncFileReaderC2Emmm
FNDA:0,_ZN6aurora5async16AsyncIoEventLoop8scheduleESt8functionIFvvEENSt6chrono8durationIlSt5ratioILl1ELl1000EEEE
FNDA:0,_ZN6aurora5async19StreamingFileWriter5flushEv
FNDA:0,_ZN6aurora5async11AsyncLogger5flushEv
FNDA:0,_ZN6aurora5async15AsyncFileReader4stopEv
FNDA:0,_ZN6aurora5async16AsyncIoEventLoop9eventLoopEv
FNDA:0,_ZN6aurora5async15AsyncFileReaderD2Ev
FNDA:0,_ZZN6aurora5async15AsyncFileReader10readerLoopEvENKUlvE_clEv
FNDA:0,_ZN6aurora5async15AsyncFileWriter4stopEv
FNDA:0,_ZN6aurora5async16AsyncIoEventLoop17scheduleRecurringESt8functionIFvvEENSt6chrono8durationIlSt5ratioILl1ELl1000EEEE
FNDA:0,_ZN6aurora5async11AsyncLogger11flushBufferEv
FNDA:0,_ZZN6aurora5async15AsyncFileWriter10writerLoopEvENKUlvE_clEv
FNDA:0,_ZNK6aurora5async15AsyncFileReader17getCacheFileCountEv
FNDA:0,_ZN6aurora5async15AsyncFileWriter10writerLoopEv
FNDA:0,_ZN6aurora5async15AsyncFileWriter17writeWithCallbackERKNSt7__cxx1112basic_stringIcSt11char_traitsIcESaIcEEERKSt6vectorIcS6_ESt8functionIFvRKNS0_6ResultImEEEEbb
FNDA:0,_ZN6aurora5async16AsyncBagRecorderD2Ev
FNDA:0,_ZN6aurora5async15AsyncFileReader8readFileERKNSt7__cxx1112basic_stringIcSt11char_traitsIcESaIcEEEmm
FNDA:0,_ZN6aurora5async15AsyncFileWriterC2Emm
FNDA:0,_ZN6aurora5async16AsyncIoEventLoopD2Ev
FNDA:0,_ZN6aurora5async15AsyncFileWriter5startEv
FNDA:0,_ZN6aurora5async11AsyncLogger3logERKSt6vectorIcSaIcEE
FNDA:0,_ZN6aurora5async11AsyncLoggerC2ERKNSt7__cxx1112basic_stringIcSt11char_traitsIcESaIcEEEmNSt6chrono8durationIlSt5ratioILl1ELl1EEEE
FNDA:0,_ZN6aurora5async15AsyncFileReader16readWithCallbackERKNSt7__cxx1112basic_stringIcSt11char_traitsIcESaIcEEESt8functionIFvRKNS0_6ResultISt6vectorIcS6_EEEEE
FNDA:0,_ZN6aurora5async11AsyncLogger5startEv
FNDA:0,_ZNK6aurora5async16AsyncBagRecorder12getQueueSizeEv
FNDA:0,_ZN6aurora5async15AsyncFileReader10readerLoopEv
FNDA:0,_ZN6aurora5async19StreamingFileWriter4openEv
FNDA:0,_ZN6aurora5async11AsyncLogger5debugERKNSt7__cxx1112basic_stringIcSt11char_traitsIcESaIcEEE
FNDA:0,_ZN6aurora5async15AsyncFileReader7preloadERKNSt7__cxx1112basic_stringIcSt11char_traitsIcESaIcEEE
FNDA:0,_ZN6aurora5async19StreamingFileWriter5writeERKSt6vectorIcSaIcEE
FNDA:0,_ZN6aurora5async11AsyncLoggerD2Ev
FNDA:0,_ZN6aurora5async11AsyncLogger5errorERKNSt7__cxx1112basic_stringIcSt11char_traitsIcESaIcEEE
FNDA:0,_ZN6aurora5async15AsyncFileReader4readERKNSt7__cxx1112basic_stringIcSt11char_traitsIcESaIcEEE
FNDA:0,_ZN6aurora5async15AsyncFileReader5startEv
FNDA:0,_ZN6aurora5async11AsyncLogger4infoERKNSt7__cxx1112basic_stringIcSt11char_traitsIcESaIcEEE
FNDA:0,_ZN6aurora5async11AsyncLogger3logERKNSt7__cxx1112basic_stringIcSt11char_traitsIcESaIcEEE
FNDA:0,_ZN6aurora5async19StreamingFileWriterC2ERKNSt7__cxx1112basic_stringIcSt11char_traitsIcESaIcEEEbm
FNDA:0,_ZZN6aurora5async15AsyncFileReader10addToCacheERKNSt7__cxx1112basic_stringIcSt11char_traitsIcESaIcEEESt6vectorIcS6_EENKUlRKNS1_10CacheEntryESE_E_clESE_SE_
FNDA:0,_ZZN6aurora5async15AsyncFileWriter5flushEvENKUlvE_clEv
FNDA:0,_ZN6aurora5async19StreamingFileWriter5writeEPKvm
FNDA:0,_ZN6aurora5async19StreamingFileWriter11flushBufferEv
FNDA:0,_ZN6aurora5async16AsyncIoEventLoop7runOnceEv
FNDA:0,_ZN6aurora5async11AsyncLogger4warnERKNSt7__cxx1112basic_stringIcSt11char_traitsIcESaIcEEE
FNDA:0,_ZN6aurora5async15AsyncFileWriter11processTaskERKNS1_9WriteTaskE
FNDA:0,_ZN6aurora5async16AsyncBagRecorder14processMessageERKNS1_16RecordingRequestE
FNDA:0,_ZN6aurora5async16AsyncIoEventLoop4stopEv
FNDA:0,_ZN6aurora5async19StreamingFileWriterD2Ev
FNDA:0,_ZN6aurora5async16AsyncBagRecorder13recordingLoopEv
FNDA:0,_ZN6aurora5async15AsyncFileReader15tryGetFromCacheERKNSt7__cxx1112basic_stringIcSt11char_traitsIcESaIcEEERSt6vectorIcS6_E
FNDA:0,_ZZN6aurora5async15AsyncFileWriter17writeWithCallbackERKNSt7__cxx1112basic_stringIcSt11char_traitsIcESaIcEEERKSt6vectorIcS6_ESt8functionIFvRKNS0_6ResultImEEEEbbENKUlvE_clEv
FNDA:0,_ZN6aurora5async16AsyncIoEventLoop7executeESt8functionIFvvEE
FNDA:0,_ZN6aurora5async16AsyncBagRecorder10addMessageERKNSt7__cxx1112basic_stringIcSt11char_traitsIcESaIcEEERKSt6vectorIcS6_ENSt6chrono8durationIlSt5ratioILl1ELl1000000000EEEE
FNDA:0,_ZN6aurora5async15AsyncFileWriter9writeSyncERKNSt7__cxx1112basic_stringIcSt11char_traitsIcESaIcEEERKSt6vectorIcS6_Eb
FNDA:0,_ZN6aurora5async16AsyncBagRecorder4stopEv
FNDA:0,_ZN6aurora5async15AsyncFileReader10clearCacheEv
FNDA:0,_ZN6aurora5async15AsyncFileReader8readSyncERKNSt7__cxx1112basic_stringIcSt11char_traitsIcESaIcEEE
FNDA:0,_ZN6aurora5async11AsyncLogger3logEPKcm
FNF:71
FNH:0
BRDA:15,0,0,-
BRDA:15,0,1,-
BRDA:24,0,0,-
BRDA:24,0,1,-
BRDA:25,0,0,-
BRDA:25,0,1,-
BRDA:33,0,0,-
BRDA:33,0,1,-
BRDA:34,0,0,-
BRDA:34,0,1,-
BRDA:35,0,0,-
BRDA:35,0,1,-
BRDA:42,0,0,-
BRDA:42,0,1,-
BRDA:46,0,0,-
BRDA:46,0,1,-
BRDA:47,0,0,-
BRDA:47,0,1,-
BRDA:48,0,0,-
BRDA:48,0,1,-
BRDA:48,0,2,-
BRDA:48,0,3,-
BRDA:51,0,0,-
BRDA:51,0,1,-
BRDA:51,0,2,-
BRDA:51,0,3,-
BRDA:51,0,4,-
BRDA:51,0,5,-
BRDA:55,0,0,-
BRDA:55,0,1,-
BRDA:61,0,0,-
BRDA:61,0,1,-
BRDA:61,0,2,-
BRDA:63,0,0,-
BRDA:63,0,1,-
BRDA:64,0,0,-
BRDA:64,0,1,-
BRDA:64,0,2,-
BRDA:71,0,0,-
BRDA:71,0,1,-
BRDA:72,0,0,-
BRDA:72,0,1,-
BRDA:73,0,0,-
BRDA:73,0,1,-
BRDA:75,0,0,-
BRDA:75,0,1,-
BRDA:78,0,0,-
BRDA:78,0,1,-
BRDA:78,0,2,-
BRDA:78,0,3,-
BRDA:79,0,0,-
BRDA:79,0,1,-
BRDA:81,0,0,-
BRDA:81,0,1,-
BRDA:83,0,0,-
BRDA:83,0,1,-
BRDA:84,0,0,-
BRDA:84,0,1,-
BRDA:87,0,0,-
BRDA:87,0,1,-
BRDA:87,0,2,-
BRDA:87,0,3,-
BRDA:92,0,0,-
BRDA:92,0,1,-
BRDA:95,0,0,-
BRDA:95,0,1,-
BRDA:96,0,0,0
BRDA:96,0,1,0
BRDA:96,0,2,0
BRDA:96,0,3,0
BRDA:99,0,0,-
BRDA:99,0,1,-
BRDA:100,0,0,-
BRDA:100,0,1,-
BRDA:113,0,0,-
BRDA:113,0,1,-
BRDA:114,0,0,-
BRDA:114,0,1,-
BRDA:117,0,0,-
BRDA:117,0,1,-
BRDA:118,0,0,-
BRDA:118,0,1,-
BRDA:123,0,0,-
BRDA:123,0,1,-
BRDA:124,0,0,-
BRDA:124,0,1,-
BRDA:126,0,0,-
BRDA:126,0,1,-
BRDA:130,0,0,-
BRDA:130,0,1,-
BRDA:135,0,0,-
BRDA:135,0,1,-
BRDA:147,0,0,-
BRDA:147,0,1,-
BRDA:148,0,0,-
BRDA:148,0,1,-
BRDA:151,0,0,-
BRDA:151,0,1,-
BRDA:154,0,0,-
BRDA:154,0,1,-
BRDA:155,0,0,-
BRDA:155,0,1,-
BRDA:156,0,0,-
BRDA:156,0,1,-
BRDA:160,0,0,-
BRDA:160,0,1,-
BRDA:171,0,0,-
BRDA:171,0,1,-
BRDA:172,0,0,-
BRDA:172,0,1,-
BRDA:173,0,0,-
BRDA:173,0,1,-
BRDA:175,0,0,-
BRDA:175,0,1,-
BRDA:178,0,0,-
BRDA:178,0,1,-
BRDA:178,0,2,-
BRDA:178,0,3,-
BRDA:179,0,0,-
BRDA:179,0,1,-
BRDA:182,0,0,-
BRDA:182,0,1,-
BRDA:183,0,0,-
BRDA:183,0,1,-
BRDA:185,0,0,-
BRDA:185,0,1,-
BRDA:185,0,2,-
BRDA:185,0,3,-
BRDA:190,0,0,-
BRDA:190,0,1,-
BRDA:191,0,0,-
BRDA:191,0,1,-
BRDA:192,0,0,0
BRDA:192,0,1,0
BRDA:192,0,2,0
BRDA:192,0,3,0
BRDA:197,0,0,-
BRDA:197,0,1,-
BRDA:203,0,0,-
BRDA:203,0,1,-
BRDA:204,0,0,-
BRDA:204,0,1,-
BRDA:215,0,0,-
BRDA:215,0,1,-
BRDA:224,0,0,-
BRDA:224,0,1,-
BRDA:225,0,0,-
BRDA:225,0,1,-
BRDA:233,0,0,-
BRDA:233,0,1,-
BRDA:234,0,0,-
BRDA:234,0,1,-
BRDA:235,0,0,-
BRDA:235,0,1,-
BRDA:242,0,0,-
BRDA:242,0,1,-
BRDA:243,0,0,-
BRDA:243,0,1,-
BRDA:246,0,0,-
BRDA:246,0,1,-
BRDA:247,0,0,-
BRDA:247,0,1,-
BRDA:248,0,0,-
BRDA:248,0,1,-
BRDA:248,0,2,-
BRDA:248,0,3,-
BRDA:251,0,0,-
BRDA:251,0,1,-
BRDA:251,0,2,-
BRDA:251,0,3,-
BRDA:251,0,4,-
BRDA:251,0,5,-
BRDA:255,0,0,-
BRDA:255,0,1,-
BRDA:261,0,0,-
BRDA:261,0,1,-
BRDA:261,0,2,-
BRDA:263,0,0,-
BRDA:263,0,1,-
BRDA:265,0,0,-
BRDA:265,0,1,-
BRDA:266,0,0,-
BRDA:266,0,1,-
BRDA:268,0,0,-
BRDA:268,0,1,-
BRDA:269,0,0,-
BRDA:269,0,1,-
BRDA:269,0,2,-
BRDA:278,0,0,-
BRDA:278,0,1,-
BRDA:278,0,2,-
BRDA:278,0,3,-
BRDA:280,0,0,-
BRDA:280,0,1,-
BRDA:280,0,2,-
BRDA:280,0,3,-
BRDA:283,0,0,-
BRDA:283,0,1,-
BRDA:288,0,0,-
BRDA:288,0,1,-
BRDA:289,0,0,-
BRDA:289,0,1,-
BRDA:289,0,2,-
BRDA:289,0,3,-
BRDA:290,0,0,-
BRDA:290,0,1,-
BRDA:292,0,0,-
BRDA:292,0,1,-
BRDA:294,0,0,-
BRDA:294,0,1,-
BRDA:295,0,0,-
BRDA:295,0,1,-
BRDA:297,0,0,-
BRDA:297,0,1,-
BRDA:297,0,2,-
BRDA:297,0,3,-
BRDA:297,0,4,-
BRDA:297,0,5,-
BRDA:297,0,6,-
BRDA:297,0,7,-
BRDA:297,0,8,-
BRDA:297,0,9,-
BRDA:298,0,0,-
BRDA:298,0,1,-
BRDA:298,0,2,-
BRDA:298,0,3,-
BRDA:302,0,0,-
BRDA:302,0,1,-
BRDA:302,0,2,-
BRDA:302,0,3,-
BRDA:302,0,4,-
BRDA:302,0,5,-
BRDA:303,0,0,-
BRDA:303,0,1,-
BRDA:303,0,2,-
BRDA:303,0,3,-
BRDA:306,0,0,-
BRDA:306,0,1,-
BRDA:309,0,0,-
BRDA:309,0,1,-
BRDA:310,0,0,0
BRDA:310,0,1,0
BRDA:310,0,2,0
BRDA:310,0,3,0
BRDA:318,0,0,-
BRDA:318,0,1,-
BRDA:323,0,0,-
BRDA:323,0,1,-
BRDA:327,0,0,-
BRDA:327,0,1,-
BRDA:328,0,0,-
BRDA:328,0,1,-
BRDA:331,0,0,-
BRDA:331,0,1,-
BRDA:340,0,0,-
BRDA:340,0,1,-
BRDA:344,0,0,-
BRDA:344,0,1,-
BRDA:349,0,0,-
BRDA:349,0,1,-
BRDA:349,0,2,-
BRDA:349,0,3,-
BRDA:349,0,4,-
BRDA:349,0,5,-
BRDA:350,0,0,-
BRDA:350,0,1,-
BRDA:352,0,0,-
BRDA:352,0,1,-
BRDA:359,0,0,-
BRDA:359,0,1,-
BRDA:362,0,0,-
BRDA:362,0,1,-
BRDA:363,0,0,-
BRDA:363,0,1,-
BRDA:367,0,0,-
BRDA:367,0,1,-
BRDA:373,0,0,-
BRDA:373,0,1,-
BRDA:374,0,0,-
BRDA:374,0,1,-
BRDA:379,0,0,-
BRDA:379,0,1,-
BRDA:380,0,0,-
BRDA:380,0,1,-
BRDA:385,0,0,-
BRDA:385,0,1,-
BRDA:386,0,0,-
BRDA:386,0,1,-
BRDA:393,0,0,-
BRDA:393,0,1,-
BRDA:394,0,0,-
BRDA:394,0,1,-
BRDA:397,0,0,-
BRDA:397,0,1,-
BRDA:400,0,0,-
BRDA:400,0,1,-
BRDA:401,0,0,-
BRDA:401,0,1,-
BRDA:408,0,0,-
BRDA:408,0,1,-
BRDA:409,0,0,-
BRDA:409,0,1,-
BRDA:410,0,0,-
BRDA:410,0,1,-
BRDA:415,0,0,-
BRDA:415,0,1,-
BRDA:415,0,2,-
BRDA:415,0,3,-
BRDA:420,0,0,-
BRDA:420,0,1,-
BRDA:421,0,0,-
BRDA:421,0,1,-
BRDA:421,0,2,-
BRDA:421,0,3,-
BRDA:422,0,0,-
BRDA:422,0,1,-
BRDA:425,0,0,-
BRDA:425,0,1,-
BRDA:426,0,0,-
BRDA:426,0,1,-
BRDA:427,0,0,-
BRDA:427,0,1,-
BRDA:429,0,0,-
BRDA:429,0,1,-
BRDA:430,0,0,-
BRDA:430,0,1,-
BRDA:432,0,0,-
BRDA:432,0,1,-
BRDA:432,0,2,-
BRDA:432,0,3,-
BRDA:432,0,4,-
BRDA:432,0,5,-
BRDA:432,0,6,-
BRDA:432,0,7,-
BRDA:432,0,8,-
BRDA:432,0,9,-
BRDA:433,0,0,-
BRDA:433,0,1,-
BRDA:433,0,2,-
BRDA:433,0,3,-
BRDA:435,0,0,-
BRDA:435,0,1,-
BRDA:436,0,0,-
BRDA:436,0,1,-
BRDA:436,0,2,-
BRDA:436,0,3,-
BRDA:441,0,0,-
BRDA:441,0,1,-
BRDA:442,0,0,-
BRDA:442,0,1,-
BRDA:443,0,0,0
BRDA:443,0,1,0
BRDA:443,0,2,0
BRDA:443,0,3,0
BRDA:448,0,0,-
BRDA:448,0,1,-
BRDA:453,0,0,-
BRDA:453,0,1,-
BRDA:455,0,0,-
BRDA:455,0,1,-
BRDA:462,0,0,-
BRDA:462,0,1,-
BRDA:471,0,0,-
BRDA:471,0,1,-
BRDA:473,0,0,-
BRDA:473,0,1,-
BRDA:477,0,0,-
BRDA:477,0,1,-
BRDA:477,0,2,-
BRDA:477,0,3,-
BRDA:482,0,0,-
BRDA:482,0,1,-
BRDA:483,0,0,-
BRDA:483,0,1,-
BRDA:483,0,2,-
BRDA:483,0,3,-
BRDA:483,0,4,-
BRDA:483,0,5,-
BRDA:483,0,6,-
BRDA:483,0,7,-
BRDA:484,0,0,-
BRDA:484,0,1,-
BRDA:492,0,0,-
BRDA:492,0,1,-
BRDA:496,0,0,-
BRDA:496,0,1,-
BRDA:503,0,0,-
BRDA:503,0,1,-
BRDA:507,0,0,-
BRDA:507,0,1,-
BRDA:513,0,0,-
BRDA:513,0,1,-
BRDA:524,0,0,-
BRDA:524,0,1,-
BRDA:526,0,0,-
BRDA:526,0,1,-
BRDA:528,0,0,-
BRDA:528,0,1,-
BRDA:528,0,2,-
BRDA:528,0,3,-
BRDA:545,0,0,-
BRDA:545,0,1,-
BRDA:550,0,0,-
BRDA:550,0,1,-
BRDA:552,0,0,-
BRDA:552,0,1,-
BRDA:562,0,0,-
BRDA:562,0,1,-
BRDA:563,0,0,-
BRDA:563,0,1,-
BRDA:570,0,0,-
BRDA:570,0,1,-
BRDA:571,0,0,-
BRDA:571,0,1,-
BRDA:571,0,2,-
BRDA:571,0,3,-
BRDA:571,0,4,-
BRDA:571,0,5,-
BRDA:571,0,6,-
BRDA:571,0,7,-
BRDA:571,0,8,-
BRDA:571,0,9,-
BRDA:572,0,0,-
BRDA:572,0,1,-
BRDA:572,0,2,-
BRDA:572,0,3,-
BRDA:579,0,0,-
BRDA:579,0,1,-
BRDA:580,0,0,-
BRDA:580,0,1,-
BRDA:580,0,2,-
BRDA:580,0,3,-
BRDA:580,0,4,-
BRDA:580,0,5,-
BRDA:580,0,6,-
BRDA:580,0,7,-
BRDA:580,0,8,-
BRDA:580,0,9,-
BRDA:581,0,0,-
BRDA:581,0,1,-
BRDA:581,0,2,-
BRDA:581,0,3,-
BRDA:588,0,0,-
BRDA:588,0,1,-
BRDA:589,0,0,-
BRDA:589,0,1,-
BRDA:589,0,2,-
BRDA:589,0,3,-
BRDA:589,0,4,-
BRDA:589,0,5,-
BRDA:589,0,6,-
BRDA:589,0,7,-
BRDA:589,0,8,-
BRDA:589,0,9,-
BRDA:590,0,0,-
BRDA:590,0,1,-
BRDA:590,0,2,-
BRDA:590,0,3,-
BRDA:597,0,0,-
BRDA:597,0,1,-
BRDA:598,0,0,-
BRDA:598,0,1,-
BRDA:598,0,2,-
BRDA:598,0,3,-
BRDA:598,0,4,-
BRDA:598,0,5,-
BRDA:598,0,6,-
BRDA:598,0,7,-
BRDA:598,0,8,-
BRDA:598,0,9,-
BRDA:599,0,0,-
BRDA:599,0,1,-
BRDA:599,0,2,-
BRDA:599,0,3,-
BRDA:605,0,0,-
BRDA:605,0,1,-
BRDA:606,0,0,-
BRDA:606,0,1,-
BRDA:617,0,0,-
BRDA:617,0,1,-
BRDA:625,0,0,-
BRDA:625,0,1,-
BRDA:631,0,0,-
BRDA:631,0,1,-
BRDA:635,0,0,-
BRDA:635,0,1,-
BRDA:636,0,0,-
BRDA:636,0,1,-
BRDA:637,0,0,-
BRDA:637,0,1,-
BRDA:637,0,2,-
BRDA:637,0,3,-
BRDA:640,0,0,-
BRDA:640,0,1,-
BRDA:640,0,2,-
BRDA:640,0,3,-
BRDA:640,0,4,-
BRDA:640,0,5,-
BRDA:644,0,0,-
BRDA:644,0,1,-
BRDA:650,0,0,-
BRDA:650,0,1,-
BRDA:650,0,2,-
BRDA:652,0,0,-
BRDA:652,0,1,-
BRDA:653,0,0,-
BRDA:653,0,1,-
BRDA:653,0,2,-
BRDA:665,0,0,-
BRDA:665,0,1,-
BRDA:667,0,0,-
BRDA:667,0,1,-
BRDA:672,0,0,-
BRDA:672,0,1,-
BRDA:673,0,0,-
BRDA:673,0,1,-
BRDA:676,0,0,-
BRDA:676,0,1,-
BRDA:683,0,0,-
BRDA:683,0,1,-
BRDA:695,0,0,-
BRDA:695,0,1,-
BRDA:695,0,2,-
BRDA:695,0,3,-
BRDA:697,0,0,-
BRDA:697,0,1,-
BRDA:698,0,0,-
BRDA:698,0,1,-
BRDA:707,0,0,-
BRDA:707,0,1,-
BRDA:707,0,2,-
BRDA:707,0,3,-
BRDA:707,0,4,-
BRDA:707,0,5,-
BRDA:719,0,0,-
BRDA:719,0,1,-
BRDA:723,0,0,-
BRDA:723,0,1,-
BRDA:732,0,0,-
BRDA:732,0,1,-
BRDA:736,0,0,-
BRDA:736,0,1,-
BRDA:740,0,0,-
BRDA:740,0,1,-
BRDA:741,0,0,-
BRDA:741,0,1,-
BRDA:754,0,0,-
BRDA:754,0,1,-
BRDA:758,0,0,-
BRDA:758,0,1,-
BRDA:758,0,2,-
BRDA:758,0,3,-
BRDA:758,0,4,-
BRDA:758,0,5,-
BRDA:761,0,0,-
BRDA:761,0,1,-
BRDA:762,0,0,-
BRDA:762,0,1,-
BRDA:762,0,2,-
BRDA:762,0,3,-
BRDA:763,0,0,-
BRDA:763,0,1,-
BRDA:774,0,0,-
BRDA:774,0,1,-
BRDA:787,0,0,-
BRDA:787,0,1,-
BRDA:792,0,0,-
BRDA:792,0,1,-
BRDA:798,0,0,-
BRDA:798,0,1,-
BRDA:800,0,0,-
BRDA:800,0,1,-
BRDA:806,0,0,-
BRDA:806,0,1,-
BRDA:807,0,0,-
BRDA:807,0,1,-
BRDA:809,0,0,-
BRDA:809,0,1,-
BRDA:811,0,0,-
BRDA:811,0,1,-
BRDA:812,0,0,-
BRDA:812,0,1,-
BRDA:817,0,0,-
BRDA:817,0,1,-
BRDA:818,0,0,-
BRDA:818,0,1,-
BRDA:821,0,0,-
BRDA:821,0,1,-
BRDA:823,0,0,-
BRDA:823,0,1,-
BRDA:824,0,0,-
BRDA:824,0,1,-
BRDA:836,0,0,-
BRDA:836,0,1,-
BRDA:837,0,0,-
BRDA:837,0,1,-
BRDA:838,0,0,-
BRDA:838,0,1,-
BRDA:838,0,2,-
BRDA:838,0,3,-
BRDA:839,0,0,-
BRDA:839,0,1,-
BRDA:841,0,0,-
BRDA:841,0,1,-
BRDA:842,0,0,-
BRDA:842,0,1,-
BRDA:845,0,0,-
BRDA:845,0,1,-
BRDA:853,0,0,-
BRDA:853,0,1,-
BRDA:855,0,0,-
BRDA:855,0,1,-
BRDA:856,0,0,0
BRDA:856,0,1,0
BRDA:858,0,0,0
BRDA:858,0,1,0
BRDA:858,0,2,0
BRDA:858,0,3,0
BRDA:858,0,4,0
BRDA:858,0,5,0
BRF:620
BRH:0
DA:13,0
DA:14,0
DA:15,0
DA:16,0
DA:18,0
DA:19,0
DA:20,0
DA:22,0
DA:23,0
DA:24,0
DA:25,0
DA:27,0
DA:29,0
DA:30,0
DA:31,0
DA:33,0
DA:34,0
DA:35,0
DA:38,0
DA:39,0
DA:41,0
DA:42,0
DA:43,0
DA:46,0
DA:47,0
DA:48,0
DA:51,0
DA:52,0
DA:55,0
DA:56,0
DA:59,0
DA:60,0
DA:61,0
DA:63,0
DA:64,0
DA:65,0
DA:67,0
DA:68,0
DA:71,0
DA:72,0
DA:73,0
DA:75,0
DA:78,0
DA:79,0
DA:81,0
DA:83,0
DA:84,0
DA:87,0
DA:88,0
DA:89,0
DA:90,0
DA:92,0
DA:95,0
DA:96,0
DA:97,0
DA:99,0
DA:100,0
DA:104,0
DA:106,0
DA:113,0
DA:114,0
DA:116,0
DA:117,0
DA:118,0
DA:119,0
DA:120,0
DA:123,0
DA:124,0
DA:126,0
DA:127,0
DA:130,0
DA:131,0
DA:132,0
DA:135,0
DA:136,0
DA:137,0
DA:139,0
DA:146,0
DA:147,0
DA:148,0
DA:149,0
DA:150,0
DA:151,0
DA:154,0
DA:155,0
DA:156,0
DA:157,0
DA:160,0
DA:161,0
DA:162,0
DA:163,0
DA:165,0
DA:171,0
DA:172,0
DA:173,0
DA:175,0
DA:178,0
DA:179,0
DA:182,0
DA:183,0
DA:185,0
DA:186,0
DA:187,0
DA:188,0
DA:190,0
DA:191,0
DA:192,0
DA:193,0
DA:196,0
DA:197,0
DA:198,0
DA:199,0
DA:201,0
DA:203,0
DA:204,0
DA:205,0
DA:207,0
DA:211,0
DA:213,0
DA:214,0
DA:215,0
DA:216,0
DA:218,0
DA:219,0
DA:220,0
DA:222,0
DA:223,0
DA:224,0
DA:225,0
DA:227,0
DA:229,0
DA:230,0
DA:231,0
DA:233,0
DA:234,0
DA:235,0
DA:238,0
DA:239,0
DA:241,0
DA:242,0
DA:243,0
DA:246,0
DA:247,0
DA:248,0
DA:251,0
DA:252,0
DA:255,0
DA:256,0
DA:259,0
DA:260,0
DA:261,0
DA:263,0
DA:265,0
DA:266,0
DA:268,0
DA:269,0
DA:270,0
DA:272,0
DA:278,0
DA:279,0
DA:280,0
DA:281,0
DA:283,0
DA:285,0
DA:288,0
DA:289,0
DA:290,0
DA:292,0
DA:294,0
DA:295,0
DA:297,0
DA:298,0
DA:299,0
DA:302,0
DA:303,0
DA:306,0
DA:308,0
DA:309,0
DA:310,0
DA:311,0
DA:313,0
DA:314,0
DA:316,0
DA:318,0
DA:320,0
DA:321,0
DA:323,0
DA:324,0
DA:327,0
DA:328,0
DA:329,0
DA:330,0
DA:331,0
DA:332,0
DA:335,0
DA:336,0
DA:338,0
DA:340,0
DA:343,0
DA:344,0
DA:345,0
DA:349,0
DA:350,0
DA:351,0
DA:352,0
DA:353,0
DA:355,0
DA:358,0
DA:359,0
DA:362,0
DA:363,0
DA:364,0
DA:365,0
DA:366,0
DA:367,0
DA:368,0
DA:370,0
DA:373,0
DA:374,0
DA:375,0
DA:376,0
DA:379,0
DA:380,0
DA:381,0
DA:382,0
DA:385,0
DA:386,0
DA:387,0
DA:389,0
DA:393,0
DA:394,0
DA:395,0
DA:396,0
DA:397,0
DA:400,0
DA:401,0
DA:402,0
DA:403,0
DA:404,0
DA:406,0
DA:408,0
DA:409,0
DA:410,0
DA:411,0
DA:413,0
DA:414,0
DA:415,0
DA:416,0
DA:420,0
DA:421,0
DA:422,0
DA:425,0
DA:426,0
DA:427,0
DA:429,0
DA:430,0
DA:432,0
DA:433,0
DA:435,0
DA:436,0
DA:439,0
DA:441,0
DA:442,0
DA:443,0
DA:444,0
DA:445,0
DA:447,0
DA:448,0
DA:449,0
DA:450,0
DA:452,0
DA:453,0
DA:454,0
DA:455,0
DA:456,0
DA:458,0
DA:459,0
DA:461,0
DA:462,0
DA:463,0
DA:464,0
DA:468,0
DA:470,0
DA:471,0
DA:472,0
DA:473,0
DA:474,0
DA:477,0
DA:480,0
DA:481,0
DA:482,0
DA:483,0
DA:484,0
DA:485,0
DA:487,0
DA:488,0
DA:489,0
DA:491,0
DA:492,0
DA:493,0
DA:495,0
DA:496,0
DA:497,0
DA:499,0
DA:500,0
DA:502,0
DA:503,0
DA:504,0
DA:507,0
DA:508,0
DA:510,0
DA:512,0
DA:513,0
DA:514,0
DA:515,0
DA:517,0
DA:519,0
DA:520,0
DA:523,0
DA:524,0
DA:526,0
DA:528,0
DA:529,0
DA:530,0
DA:534,0
DA:535,0
DA:537,0
DA:538,0
DA:540,0
DA:541,0
DA:544,0
DA:545,0
DA:546,0
DA:549,0
DA:550,0
DA:552,0
DA:556,0
DA:558,0
DA:559,0
DA:561,0
DA:562,0
DA:563,0
DA:564,0
DA:566,0
DA:567,0
DA:568,0
DA:570,0
DA:571,0
DA:572,0
DA:573,0
DA:575,0
DA:576,0
DA:577,0
DA:579,0
DA:580,0
DA:581,0
DA:582,0
DA:584,0
DA:585,0
DA:586,0
DA:588,0
DA:589,0
DA:590,0
DA:591,0
DA:593,0
DA:594,0
DA:595,0
DA:597,0
DA:598,0
DA:599,0
DA:600,0
DA:604,0
DA:605,0
DA:606,0
DA:607,0
DA:609,0
DA:610,0
DA:611,0
DA:613,0
DA:614,0
DA:615,0
DA:617,0
DA:618,0
DA:621,0
DA:622,0
DA:623,0
DA:625,0
DA:626,0
DA:628,0
DA:630,0
DA:631,0
DA:632,0
DA:635,0
DA:636,0
DA:637,0
DA:640,0
DA:641,0
DA:644,0
DA:645,0
DA:648,0
DA:649,0
DA:650,0
DA:652,0
DA:653,0
DA:654,0
DA:656,0
DA:658,0
DA:659,0
DA:660,0
DA:662,0
DA:665,0
DA:667,0
DA:668,0
DA:671,0
DA:672,0
DA:673,0
DA:674,0
DA:676,0
DA:677,0
DA:679,0
DA:680,0
DA:682,0
DA:683,0
DA:684,0
DA:685,0
DA:689,0
DA:691,0
DA:692,0
DA:693,0
DA:694,0
DA:695,0
DA:697,0
DA:698,0
DA:700,0
DA:702,0
DA:703,0
DA:704,0
DA:706,0
DA:707,0
DA:708,0
DA:709,0
DA:712,0
DA:713,0
DA:716,0
DA:717,0
DA:719,0
DA:720,0
DA:723,0
DA:724,0
DA:726,0
DA:728,0
DA:729,0
DA:730,0
DA:732,0
DA:733,0
DA:734,0
DA:736,0
DA:737,0
DA:738,0
DA:740,0
DA:741,0
DA:745,0
DA:746,0
DA:749,0
DA:750,0
DA:753,0
DA:754,0
DA:755,0
DA:758,0
DA:759,0
DA:761,0
DA:762,0
DA:763,0
DA:765,0
DA:767,0
DA:768,0
DA:771,0
DA:772,0
DA:774,0
DA:775,0
DA:777,0
DA:781,0
DA:782,0
DA:783,0
DA:785,0
DA:786,0
DA:787,0
DA:788,0
DA:790,0
DA:791,0
DA:792,0
DA:793,0
DA:795,0
DA:797,0
DA:798,0
DA:799,0
DA:800,0
DA:802,0
DA:804,0
DA:806,0
DA:807,0
DA:808,0
DA:809,0
DA:811,0
DA:812,0
DA:813,0
DA:815,0
DA:817,0
DA:818,0
DA:819,0
DA:820,0
DA:821,0
DA:823,0
DA:824,0
DA:825,0
DA:827,0
DA:828,0
DA:829,0
DA:831,0
DA:832,0
DA:833,0
DA:836,0
DA:837,0
DA:838,0
DA:839,0
DA:841,0
DA:842,0
DA:843,0
DA:845,0
DA:848,0
DA:851,0
DA:853,0
DA:855,0
DA:856,0
DA:858,0
DA:859,0
DA:861,0
LF:537
LH:0
end_of_record
TN:
SF:/home/xucong/caicAD/01datainfra/Aurora/aurora-edge-runtime/src/common/async_io.h
FN:32,_ZN6aurora5async6ResultImEC2Ev
FN:32,_ZN6aurora5async6ResultISt6vectorIcSaIcEEEC2Ev
FN:33,_ZN6aurora5async6ResultISt6vectorIcSaIcEEEC2ES4_
FN:33,_ZN6aurora5async6ResultImEC2Em
FN:34,_ZN6aurora5async6ResultISt6vectorIcSaIcEEEC2ENSt7__cxx1112basic_stringIcSt11char_traitsIcES3_EE
FN:34,_ZN6aurora5async6ResultImEC2ENSt7__cxx1112basic_stringIcSt11char_traitsIcESaIcEEE
FN:47,_ZN6aurora5async6ResultIvEC2Eb
FN:49,_ZN6aurora5async6ResultIvE2OkEv
FN:51,_ZNK6aurora5async6ResultIvEcvbEv
FN:239,_ZN6aurora5async11AsyncLogger9LogBufferC2Em
FNDA:0,_ZN6aurora5async6ResultISt6vectorIcSaIcEEEC2Ev
FNDA:0,_ZN6aurora5async11AsyncLogger9LogBufferC2Em
FNDA:0,_ZN6aurora5async6ResultImEC2ENSt7__cxx1112basic_stringIcSt11char_traitsIcESaIcEEE
FNDA:0,_ZN6aurora5async6ResultImEC2Ev
FNDA:0,_ZN6aurora5async6ResultIvEC2Eb
FNDA:0,_ZN6aurora5async6ResultImEC2Em
FNDA:0,_ZNK6aurora5async6ResultIvEcvbEv
FNDA:0,_ZN6aurora5async6ResultIvE2OkEv
FNDA:0,_ZN6aurora5async6ResultISt6vectorIcSaIcEEEC2ENSt7__cxx1112basic_stringIcSt11char_traitsIcES3_EE
FNDA:0,_ZN6aurora5async6ResultISt6vectorIcSaIcEEEC2ES4_
FNF:10
FNH:0
BRDA:239,0,0,-
BRDA:239,0,1,-
BRF:2
BRH:0
DA:32,0
DA:33,0
DA:34,0
DA:47,0
DA:49,0
DA:51,0
DA:239,0
LF:7
LH:0
end_of_record
TN:
SF:/home/xucong/caicAD/01datainfra/Aurora/aurora-edge-runtime/src/common/audit/audit_logger.h
FN:34,_ZN6aurora6common5audit22auditEventTypeToStringENS1_14AuditEventTypeE
FN:51,_ZN6aurora6common5audit11AuditLogger8instanceEv
FN:65,_ZN6aurora6common5audit11AuditLogger3logENS1_14AuditEventTypeEPKcRKNSt7__cxx1112basic_stringIcSt11char_traitsIcESaIcEEE
FN:90,_ZNK6aurora6common5audit11AuditLogger9isEnabledEv
FN:93,_ZN6aurora6common5audit11AuditLoggerC2Ev
FNDA:0,_ZN6aurora6common5audit22auditEventTypeToStringENS1_14AuditEventTypeE
FNDA:2,_ZN6aurora6common5audit11AuditLoggerC2Ev
FNDA:32,_ZN6aurora6common5audit11AuditLogger8instanceEv
FNDA:0,_ZN6aurora6common5audit11AuditLogger3logENS1_14AuditEventTypeEPKcRKNSt7__cxx1112basic_stringIcSt11char_traitsIcESaIcEEE
FNDA:32,_ZNK6aurora6common5audit11AuditLogger9isEnabledEv
FNF:5
FNH:3
BRDA:35,0,0,-
BRDA:35,0,1,-
BRDA:35,0,2,-
BRDA:35,0,3,-
BRDA:35,0,4,-
BRDA:35,0,5,-
BRDA:35,0,6,-
BRDA:35,0,7,-
BRDA:35,0,8,-
BRDA:35,0,9,-
BRDA:52,0,0,2
BRDA:52,0,1,30
BRDA:52,0,2,2
BRDA:52,0,3,0
BRDA:52,0,4,2
BRDA:52,0,5,0
BRDA:52,0,6,0
BRDA:52,0,7,0
BRDA:66,0,0,-
BRDA:66,0,1,-
BRDA:67,0,0,-
BRDA:67,0,1,-
BRDA:70,0,0,-
BRDA:70,0,1,-
BRDA:72,0,0,-
BRDA:72,0,1,-
BRDA:72,0,2,-
BRDA:72,0,3,-
BRDA:75,0,0,-
BRDA:75,0,1,-
BRDA:75,0,2,-
BRDA:75,0,3,-
BRDA:75,0,4,-
BRDA:75,0,5,-
BRDA:75,0,6,-
BRDA:75,0,7,-
BRDA:75,0,8,-
BRDA:75,0,9,-
BRDA:75,0,10,-
BRDA:75,0,11,-
BRDA:75,0,12,-
BRDA:75,0,13,-
BRDA:75,0,14,-
BRDA:75,0,15,-
BRDA:75,0,16,-
BRDA:75,0,17,-
BRDA:75,0,18,-
BRDA:75,0,19,-
BRDA:75,0,20,-
BRDA:75,0,21,-
BRDA:75,0,22,-
BRDA:75,0,23,-
BRDA:77,0,0,-
BRDA:77,0,1,-
BRDA:78,0,0,-
BRDA:78,0,1,-
BRDA:78,0,2,-
BRDA:78,0,3,-
BRDA:78,0,4,-
BRDA:78,0,5,-
BRDA:82,0,0,-
BRDA:82,0,1,-
BRDA:82,0,2,-
BRDA:82,0,3,-
BRDA:82,0,4,-
BRDA:82,0,5,-
BRDA:85,0,0,-
BRDA:85,0,1,-
BRDA:85,0,2,-
BRDA:85,0,3,-
BRDA:86,0,0,-
BRDA:86,0,1,-
BRF:72
BRH:4
DA:34,0
DA:35,0
DA:36,0
DA:37,0
DA:38,0
DA:39,0
DA:40,0
DA:41,0
DA:42,0
DA:43,0
DA:44,0
DA:45,0
DA:51,32
DA:52,32
DA:53,32
DA:65,0
DA:66,0
DA:67,0
DA:69,0
DA:70,0
DA:72,0
DA:73,0
DA:75,0
DA:77,0
DA:78,0
DA:82,0
DA:85,0
DA:86,0
DA:88,0
DA:90,32
DA:93,2
LF:31
LH:5
end_of_record
TN:
SF:/home/xucong/caicAD/01datainfra/Aurora/aurora-edge-runtime/src/common/error_handler.h
FN:66,_ZN6aurora6common12ErrorHandler8instanceEv
FN:74,_ZN6aurora6common12ErrorHandler5retryIZN49ErrorHandlerTest_RetrySucceedsOnFirstAttempt_Test8TestBodyEvEUlvE_EEDTclfp1_EEPKcRKNS0_11RetryPolicyEOT_
FN:74,_ZN6aurora6common12ErrorHandler5retryIZN42ErrorHandlerTest_RetryExhaustedThrows_Test8TestBodyEvEUlvE_EEDTclfp1_EEPKcRKNS0_11RetryPolicyEOT_
FN:74,_ZN6aurora6common12ErrorHandler5retryIZN48ErrorHandlerTest_RetrySucceedsAfterFailures_Test8TestBodyEvEUlvE_EEDTclfp1_EEPKcRKNS0_11RetryPolicyEOT_
FN:103,_ZN6aurora6common12ErrorHandler12withFallbackIZN48ErrorHandlerTest_FallbackNotCalledOnSuccess_Test8TestBodyEvEUlvE_ZNS3_8TestBodyEvEUlvE0_EEDTclfp1_EEPKcRKNS0_13DegradePolicyEOT_OT0_
FN:103,_ZN6aurora6common12ErrorHandler12withFallbackIZN50ErrorHandlerTest_FallbackCalledAfterThreshold_Test8TestBodyEvEUlvE_ZNS3_8TestBodyEvEUlvE0_EEDTclfp1_EEPKcRKNS0_13DegradePolicyEOT_OT0_
FN:134,_ZN6aurora6common12ErrorHandler13diskSafeWriteIZN44ErrorHandlerTest_DiskSafeWriteException_Test8TestBodyEvEUlvE_EEbPKcOT_
FN:134,_ZN6aurora6common12ErrorHandler13diskSafeWriteIZN42ErrorHandlerTest_DiskSafeWriteSuccess_Test8TestBodyEvEUlvE_EEbPKcOT_
FN:149,_ZN6aurora6common12ErrorHandler13validateRangeEPKcdddd
FN:166,_ZN6aurora6common12ErrorHandler16validateNotEmptyEPKcRKNSt7__cxx1112basic_stringIcSt11char_traitsIcESaIcEEESB_
FN:177,_ZN6aurora6common12ErrorHandler13resetFailuresEv
FNDA:1,_ZN6aurora6common12ErrorHandler13diskSafeWriteIZN44ErrorHandlerTest_DiskSafeWriteException_Test8TestBodyEvEUlvE_EEbPKcOT_
FNDA:13,_ZN6aurora6common12ErrorHandler13resetFailuresEv
FNDA:1,_ZN6aurora6common12ErrorHandler12withFallbackIZN48ErrorHandlerTest_FallbackNotCalledOnSuccess_Test8TestBodyEvEUlvE_ZNS3_8TestBodyEvEUlvE0_EEDTclfp1_EEPKcRKNS0_13DegradePolicyEOT_OT0_
FNDA:1,_ZN6aurora6common12ErrorHandler12withFallbackIZN50ErrorHandlerTest_FallbackCalledAfterThreshold_Test8TestBodyEvEUlvE_ZNS3_8TestBodyEvEUlvE0_EEDTclfp1_EEPKcRKNS0_13DegradePolicyEOT_OT0_
FNDA:1,_ZN6aurora6common12ErrorHandler5retryIZN49ErrorHandlerTest_RetrySucceedsOnFirstAttempt_Test8TestBodyEvEUlvE_EEDTclfp1_EEPKcRKNS0_11RetryPolicyEOT_
FNDA:1,_ZN6aurora6common12ErrorHandler13diskSafeWriteIZN42ErrorHandlerTest_DiskSafeWriteSuccess_Test8TestBodyEvEUlvE_EEbPKcOT_
FNDA:1,_ZN6aurora6common12ErrorHandler5retryIZN48ErrorHandlerTest_RetrySucceedsAfterFailures_Test8TestBodyEvEUlvE_EEDTclfp1_EEPKcRKNS0_11RetryPolicyEOT_
FNDA:8,_ZN6aurora6common12ErrorHandler13validateRangeEPKcdddd
FNDA:1,_ZN6aurora6common12ErrorHandler5retryIZN42ErrorHandlerTest_RetryExhaustedThrows_Test8TestBodyEvEUlvE_EEDTclfp1_EEPKcRKNS0_11RetryPolicyEOT_
FNDA:20,_ZN6aurora6common12ErrorHandler8instanceEv
FNDA:2,_ZN6aurora6common12ErrorHandler16validateNotEmptyEPKcRKNSt7__cxx1112basic_stringIcSt11char_traitsIcESaIcEEESB_
FNF:11
FNH:11
BRDA:80,0,0,7
BRDA:80,0,1,0
BRDA:82,0,0,1
BRDA:82,0,1,5
BRDA:83,0,0,0
BRDA:83,0,1,5
BRDA:84,0,0,4
BRDA:84,0,1,1
BRDA:85,0,0,4
BRDA:85,0,1,0
BRDA:85,0,2,4
BRDA:85,0,3,0
BRDA:87,0,0,4
BRDA:87,0,1,0
BRDA:91,0,0,1
BRDA:91,0,1,0
BRDA:91,0,2,1
BRDA:91,0,3,0
BRDA:98,0,0,-
BRDA:98,0,1,-
BRDA:98,0,2,-
BRDA:98,0,3,-
BRDA:98,0,4,-
BRDA:98,0,5,-
BRDA:111,0,0,0
BRDA:111,0,1,1
BRDA:114,0,0,0
BRDA:114,0,1,1
BRDA:115,0,0,1
BRDA:115,0,1,0
BRDA:115,0,2,1
BRDA:115,0,3,0
BRDA:118,0,0,1
BRDA:118,0,1,0
BRDA:118,0,2,1
BRDA:118,0,3,0
BRDA:119,0,0,1
BRDA:119,0,1,0
BRDA:119,0,2,1
BRDA:119,0,3,0
BRDA:136,0,0,0
BRDA:136,0,1,1
BRDA:137,0,0,0
BRDA:137,0,1,0
BRDA:137,0,2,1
BRDA:138,0,0,0
BRDA:138,0,1,0
BRDA:138,0,2,0
BRDA:138,0,3,0
BRDA:141,0,0,1
BRDA:141,0,1,0
BRDA:141,0,2,1
BRDA:141,0,3,0
BRDA:152,0,0,7
BRDA:152,0,1,1
BRDA:152,0,2,2
BRDA:152,0,3,5
BRDA:152,0,4,3
BRDA:152,0,5,5
BRDA:153,0,0,3
BRDA:153,0,1,0
BRDA:157,0,0,4
BRDA:157,0,1,1
BRDA:157,0,2,1
BRDA:157,0,3,3
BRDA:158,0,0,2
BRDA:158,0,1,0
BRDA:168,0,0,1
BRDA:168,0,1,1
BRDA:169,0,0,1
BRDA:169,0,1,0
BRF:71
BRH:38
DA:66,20
DA:68,20
DA:74,3
DA:78,3
DA:80,7
DA:82,7
DA:83,10
DA:84,5
DA:85,4
DA:87,4
DA:88,4
DA:89,4
DA:91,1
DA:93,1
DA:98,0
DA:103,2
DA:108,2
DA:111,2
DA:112,1
DA:113,1
DA:114,2
DA:115,1
DA:118,1
DA:119,1
DA:122,1
DA:128,0
DA:134,2
DA:136,2
DA:137,1
DA:138,0
DA:139,0
DA:140,1
DA:141,1
DA:142,1
DA:149,8
DA:152,8
DA:153,3
DA:155,3
DA:157,5
DA:158,2
DA:160,2
DA:162,3
DA:166,2
DA:168,2
DA:169,1
DA:171,1
DA:173,1
DA:177,13
LF:48
LH:44
end_of_record
TN:
SF:/home/xucong/caicAD/01datainfra/Aurora/aurora-edge-runtime/src/common/memory_monitor.h
FN:42,_ZN6aurora7monitor13MemoryMonitorC2Em
FN:56,_ZN6aurora7monitor13MemoryMonitor8allocateERKNSt7__cxx1112basic_stringIcSt11char_traitsIcESaIcEEEm
FN:83,_ZN6aurora7monitor13MemoryMonitor10deallocateERKNSt7__cxx1112basic_stringIcSt11char_traitsIcESaIcEEEm
FN:107,_ZNK6aurora7monitor13MemoryMonitor17getCurrentUsageMBEv
FN:121,_ZNK6aurora7monitor13MemoryMonitor13getUsageRatioEv
FN:128,_ZNK6aurora7monitor13MemoryMonitor14getMaxMemoryMBEv
FN:152,_ZNK6aurora7monitor13MemoryMonitor16printUsageReportEv
FN:165,_ZZNK6aurora7monitor13MemoryMonitor16printUsageReportEvENKUlRKT_RKT0_E_clISt4pairINSt7__cxx1112basic_stringIcSt11char_traitsIcESaIcEEEmESH_EEDaS4_S7_
FN:188,_ZN6aurora7monitor13MemoryMonitor5resetEv
FN:224,_ZNK6aurora7monitor13MemoryMonitor11isHighUsageEv
FNDA:0,_ZN6aurora7monitor13MemoryMonitor5resetEv
FNDA:0,_ZZNK6aurora7monitor13MemoryMonitor16printUsageReportEvENKUlRKT_RKT0_E_clISt4pairINSt7__cxx1112basic_stringIcSt11char_traitsIcESaIcEEEmESH_EEDaS4_S7_
FNDA:0,_ZNK6aurora7monitor13MemoryMonitor11isHighUsageEv
FNDA:0,_ZNK6aurora7monitor13MemoryMonitor16printUsageReportEv
FNDA:0,_ZNK6aurora7monitor13MemoryMonitor14getMaxMemoryMBEv
FNDA:0,_ZN6aurora7monitor13MemoryMonitor8allocateERKNSt7__cxx1112basic_stringIcSt11char_traitsIcESaIcEEEm
FNDA:0,_ZNK6aurora7monitor13MemoryMonitor17getCurrentUsageMBEv
FNDA:0,_ZN6aurora7monitor13MemoryMonitorC2Em
FNDA:0,_ZNK6aurora7monitor13MemoryMonitor13getUsageRatioEv
FNDA:0,_ZN6aurora7monitor13MemoryMonitor10deallocateERKNSt7__cxx1112basic_stringIcSt11char_traitsIcESaIcEEEm
FNF:10
FNH:0
BRDA:57,0,0,-
BRDA:57,0,1,-
BRDA:60,0,0,-
BRDA:60,0,1,-
BRDA:61,0,0,-
BRDA:61,0,1,-
BRDA:61,0,2,-
BRDA:61,0,3,-
BRDA:69,0,0,-
BRDA:69,0,1,-
BRDA:71,0,0,-
BRDA:71,0,1,-
BRDA:71,0,2,-
BRDA:71,0,3,-
BRDA:84,0,0,-
BRDA:84,0,1,-
BRDA:87,0,0,-
BRDA:87,0,1,-
BRDA:89,0,0,-
BRDA:89,0,1,-
BRDA:92,0,0,-
BRDA:92,0,1,-
BRDA:92,0,2,-
BRDA:92,0,3,-
BRDA:153,0,0,-
BRDA:153,0,1,-
BRDA:155,0,0,-
BRDA:155,0,1,-
BRDA:155,0,2,-
BRDA:155,0,3,-
BRDA:156,0,0,-
BRDA:156,0,1,-
BRDA:156,0,2,-
BRDA:156,0,3,-
BRDA:161,0,0,-
BRDA:161,0,1,-
BRDA:162,0,0,-
BRDA:162,0,1,-
BRDA:164,0,0,-
BRDA:164,0,1,-
BRDA:170,0,0,-
BRDA:170,0,1,-
BRDA:171,0,0,-
BRDA:171,0,1,-
BRDA:173,0,0,-
BRDA:173,0,1,-
BRDA:173,0,2,-
BRDA:173,0,3,-
BRDA:178,0,0,-
BRDA:178,0,1,-
BRDA:178,0,2,-
BRDA:178,0,3,-
BRDA:179,0,0,-
BRDA:179,0,1,-
BRDA:179,0,2,-
BRDA:179,0,3,-
BRDA:180,0,0,-
BRDA:180,0,1,-
BRDA:180,0,2,-
BRDA:180,0,3,-
BRDA:181,0,0,-
BRDA:181,0,1,-
BRDA:181,0,2,-
BRDA:181,0,3,-
BRDA:182,0,0,-
BRDA:182,0,1,-
BRDA:182,0,2,-
BRDA:182,0,3,-
BRF:68
BRH:0
DA:42,0
DA:43,0
DA:44,0
DA:45,0
DA:46,0
DA:47,0
DA:56,0
DA:57,0
DA:60,0
DA:61,0
DA:63,0
DA:64,0
DA:68,0
DA:69,0
DA:70,0
DA:71,0
DA:74,0
DA:75,0
DA:83,0
DA:84,0
DA:87,0
DA:88,0
DA:89,0
DA:90,0
DA:92,0
DA:94,0
DA:107,0
DA:108,0
DA:121,0
DA:122,0
DA:128,0
DA:129,0
DA:152,0
DA:153,0
DA:155,0
DA:156,0
DA:160,0
DA:161,0
DA:162,0
DA:164,0
DA:165,0
DA:166,0
DA:170,0
DA:171,0
DA:172,0
DA:173,0
DA:178,0
DA:179,0
DA:180,0
DA:181,0
DA:182,0
DA:183,0
DA:188,0
DA:189,0
DA:190,0
DA:191,0
DA:192,0
DA:224,0
DA:225,0
LF:59
LH:0
end_of_record
TN:
SF:/home/xucong/caicAD/01datainfra/Aurora/aurora-edge-runtime/src/common/memory_pool.h
FN:31,_ZN6aurora6memory10MemoryPoolIfE5BlockC2Ev
FN:38,_ZN6aurora6memory10MemoryPoolIfE5BlockC2EOS3_
FN:71,_ZN6aurora6memory10MemoryPoolIfEC2Emm
FN:123,_ZN6aurora6memory10MemoryPoolIfE7acquireEv
FN:160,_ZN6aurora6memory10MemoryPoolIfE7releaseEPf
FN:302,_ZN6aurora6memory19InferenceBufferPoolC2Emmm
FN:320,_ZN6aurora6memory19InferenceBufferPool14acquireBuffersEv
FN:331,_ZN6aurora6memory19InferenceBufferPool14releaseBuffersERNS1_10BufferPairE
FN:365,_ZN6aurora6memory21ScopedInferenceBufferC2ERNS0_19InferenceBufferPoolE
FN:371,_ZN6aurora6memory21ScopedInferenceBufferD2Ev
FN:405,_ZNK6aurora6memory21ScopedInferenceBuffer5stateEv
FNDA:0,_ZN6aurora6memory19InferenceBufferPoolC2Emmm
FNDA:0,_ZN6aurora6memory10MemoryPoolIfE5BlockC2EOS3_
FNDA:0,_ZN6aurora6memory21ScopedInferenceBufferD2Ev
FNDA:0,_ZN6aurora6memory19InferenceBufferPool14releaseBuffersERNS1_10BufferPairE
FNDA:0,_ZN6aurora6memory19InferenceBufferPool14acquireBuffersEv
FNDA:0,_ZN6aurora6memory10MemoryPoolIfE7acquireEv
FNDA:0,_ZN6aurora6memory21ScopedInferenceBufferC2ERNS0_19InferenceBufferPoolE
FNDA:0,_ZN6aurora6memory10MemoryPoolIfEC2Emm
FNDA:0,_ZNK6aurora6memory21ScopedInferenceBuffer5stateEv
FNDA:0,_ZN6aurora6memory10MemoryPoolIfE7releaseEPf
FNDA:0,_ZN6aurora6memory10MemoryPoolIfE5BlockC2Ev
FNF:11
FNH:0
BRDA:73,0,0,-
BRDA:73,0,1,-
BRDA:74,0,0,-
BRDA:74,0,1,-
BRDA:76,0,0,-
BRDA:76,0,1,-
BRDA:77,0,0,-
BRDA:77,0,1,-
BRDA:79,0,0,-
BRDA:79,0,1,-
BRDA:124,0,0,-
BRDA:124,0,1,-
BRDA:127,0,0,-
BRDA:127,0,1,-
BRDA:129,0,0,-
BRDA:129,0,1,-
BRDA:136,0,0,-
BRDA:136,0,1,-
BRDA:139,0,0,-
BRDA:139,0,1,-
BRDA:142,0,0,-
BRDA:142,0,1,-
BRDA:145,0,0,-
BRDA:145,0,1,-
BRDA:147,0,0,0
BRDA:147,0,1,0
BRDA:152,0,0,-
BRDA:152,0,1,-
BRDA:161,0,0,-
BRDA:161,0,1,-
BRDA:163,0,0,-
BRDA:163,0,1,-
BRDA:166,0,0,-
BRDA:166,0,1,-
BRDA:167,0,0,-
BRDA:167,0,1,-
BRDA:177,0,0,-
BRDA:177,0,1,-
BRDA:304,0,0,-
BRDA:304,0,1,-
BRDA:372,0,0,-
BRDA:372,0,1,-
BRF:42
BRH:0
DA:31,0
DA:38,0
DA:39,0
DA:40,0
DA:41,0
DA:42,0
DA:43,0
DA:44,0
DA:71,0
DA:72,0
DA:73,0
DA:74,0
DA:76,0
DA:77,0
DA:79,0
DA:80,0
DA:123,0
DA:124,0
DA:127,0
DA:128,0
DA:129,0
DA:130,0
DA:131,0
DA:136,0
DA:138,0
DA:139,0
DA:140,0
DA:141,0
DA:142,0
DA:143,0
DA:144,0
DA:145,0
DA:147,0
DA:152,0
DA:153,0
DA:160,0
DA:161,0
DA:163,0
DA:166,0
DA:167,0
DA:168,0
DA:169,0
DA:170,0
DA:177,0
DA:302,0
DA:303,0
DA:304,0
DA:305,0
DA:306,0
DA:320,0
DA:322,0
DA:323,0
DA:325,0
DA:331,0
DA:332,0
DA:333,0
DA:334,0
DA:365,0
DA:366,0
DA:371,0
DA:372,0
DA:373,0
DA:375,0
DA:405,0
LF:64
LH:0
end_of_record
TN:
SF:/home/xucong/caicAD/01datainfra/Aurora/aurora-edge-runtime/src/common/performance_utils.h
FN:35,_ZN6aurora11performance9fastAtan2Eff
FN:71,_ZN6aurora11performance16FastTrigonometryC2Ev
FN:90,_ZNK6aurora11performance16FastTrigonometry14normalizeAngleEd
FN:104,_ZNK6aurora11performance16FastTrigonometry7fastSinEd
FN:118,_ZNK6aurora11performance16FastTrigonometry7fastCosEd
FN:133,_ZNK6aurora11performance16FastTrigonometry10fastSinCosEdRdS2_
FN:142,_ZN6aurora11performance11getFastTrigEv
FN:277,_ZN6aurora11performance14OptimizedLegIKC2Eddd
FN:295,_ZN6aurora11performance14OptimizedLegIK7computeEdddbPd
FN:353,_ZN6aurora11performance18LockFreeRingBufferIdLm16EE4pushERKd
FN:353,_ZN6aurora11performance18LockFreeRingBufferIiLm8EE4pushERKi
FN:353,_ZN6aurora11performance18LockFreeRingBufferI9TestPointLm8EE4pushERKS2_
FN:353,_ZN6aurora11performance18LockFreeRingBufferIiLm16EE4pushERKi
FN:353,_ZN6aurora11performance18LockFreeRingBufferIiLm4EE4pushERKi
FN:353,_ZN6aurora11performance18LockFreeRingBufferIiLm1024EE4pushERKi
FN:353,_ZN6aurora11performance18LockFreeRingBufferINS_9collector9FootprintELm1001EE4pushERKS3_
FN:367,_ZN6aurora11performance18LockFreeRingBufferIiLm1024EE3popERi
FN:367,_ZN6aurora11performance18LockFreeRingBufferIiLm16EE3popERi
FN:367,_ZN6aurora11performance18LockFreeRingBufferIiLm8EE3popERi
FN:367,_ZN6aurora11performance18LockFreeRingBufferIiLm4EE3popERi
FN:367,_ZN6aurora11performance18LockFreeRingBufferINS_9collector9FootprintELm1001EE3popERS3_
FN:367,_ZN6aurora11performance18LockFreeRingBufferI9TestPointLm8EE3popERS2_
FN:367,_ZN6aurora11performance18LockFreeRingBufferIdLm16EE3popERd
FN:381,_ZNK6aurora11performance18LockFreeRingBufferIiLm8EE5emptyEv
FN:386,_ZNK6aurora11performance18LockFreeRingBufferIiLm16EE4sizeEv
FN:386,_ZNK6aurora11performance18LockFreeRingBufferIiLm8EE4sizeEv
FN:500,_ZN6aurora11performance11softmaxSIMDEPKfPfi
FNDA:1,_ZN6aurora11performance18LockFreeRingBufferI9TestPointLm8EE3popERS2_
FNDA:0,_ZN6aurora11performance11softmaxSIMDEPKfPfi
FNDA:3,_ZNK6aurora11performance18LockFreeRingBufferIiLm16EE4sizeEv
FNDA:1,_ZN6aurora11performance18LockFreeRingBufferIdLm16EE3popERd
FNDA:0,_ZNK6aurora11performance16FastTrigonometry7fastCosEd
FNDA:1,_ZNK6aurora11performance18LockFreeRingBufferIiLm8EE4sizeEv
FNDA:0,_ZNK6aurora11performance16FastTrigonometry14normalizeAngleEd
FNDA:0,_ZN6aurora11performance18LockFreeRingBufferINS_9collector9FootprintELm1001EE4pushERKS3_
FNDA:24,_ZN6aurora11performance18LockFreeRingBufferIiLm4EE4pushERKi
FNDA:0,_ZN6aurora11performance18LockFreeRingBufferINS_9collector9FootprintELm1001EE3popERS3_
FNDA:500,_ZN6aurora11performance18LockFreeRingBufferIiLm1024EE4pushERKi
FNDA:1,_ZN6aurora11performance16FastTrigonometryC2Ev
FNDA:0,_ZNK6aurora11performance16FastTrigonometry7fastSinEd
FNDA:2,_ZN6aurora11performance18LockFreeRingBufferIiLm8EE3popERi
FNDA:0,_ZN6aurora11performance9fastAtan2Eff
FNDA:6,_ZN6aurora11performance18LockFreeRingBufferIiLm16EE3popERi
FNDA:20,_ZN6aurora11performance18LockFreeRingBufferIiLm4EE3popERi
FNDA:8,_ZN6aurora11performance18LockFreeRingBufferIiLm16EE4pushERKi
FNDA:1,_ZNK6aurora11performance18LockFreeRingBufferIiLm8EE5emptyEv
FNDA:500,_ZN6aurora11performance18LockFreeRingBufferIiLm1024EE3popERi
FNDA:0,_ZN6aurora11performance14OptimizedLegIKC2Eddd
FNDA:1,_ZN6aurora11performance18LockFreeRingBufferIiLm8EE4pushERKi
FNDA:1,_ZN6aurora11performance18LockFreeRingBufferIdLm16EE4pushERKd
FNDA:0,_ZN6aurora11performance14OptimizedLegIK7computeEdddbPd
FNDA:1,_ZN6aurora11performance18LockFreeRingBufferI9TestPointLm8EE4pushERKS2_
FNDA:1,_ZN6aurora11performance11getFastTrigEv
FNDA:0,_ZNK6aurora11performance16FastTrigonometry10fastSinCosEdRdS2_
FNF:27
FNH:17
BRDA:39,0,0,-
BRDA:39,0,1,-
BRDA:40,0,0,-
BRDA:40,0,1,-
BRDA:50,0,0,-
BRDA:50,0,1,-
BRDA:51,0,0,-
BRDA:51,0,1,-
BRDA:72,0,0,1
BRDA:72,0,1,0
BRDA:73,0,0,1
BRDA:73,0,1,0
BRDA:75,0,0,4096
BRDA:75,0,1,1
BRDA:77,0,0,4096
BRDA:77,0,1,0
BRDA:78,0,0,4096
BRDA:78,0,1,0
BRDA:91,0,0,-
BRDA:91,0,1,-
BRDA:92,0,0,-
BRDA:92,0,1,-
BRDA:143,0,0,1
BRDA:143,0,1,0
BRDA:143,0,2,1
BRDA:143,0,3,0
BRDA:143,0,4,1
BRDA:143,0,5,0
BRDA:143,0,6,0
BRDA:143,0,7,0
BRDA:298,0,0,-
BRDA:298,0,1,-
BRDA:358,0,0,1
BRDA:358,0,1,534
BRDA:371,0,0,1
BRDA:371,0,1,529
BRDA:389,0,0,4
BRDA:389,0,1,0
BRDA:501,0,0,-
BRDA:501,0,1,-
BRDA:567,0,0,-
BRDA:567,0,1,-
BRDA:571,0,0,-
BRDA:571,0,1,-
BRDA:572,0,0,-
BRDA:572,0,1,-
BRF:46
BRH:14
DA:35,0
DA:36,0
DA:37,0
DA:39,0
DA:40,0
DA:43,0
DA:44,0
DA:47,0
DA:48,0
DA:50,0
DA:51,0
DA:52,0
DA:55,0
DA:71,1
DA:72,1
DA:73,1
DA:75,4097
DA:76,4096
DA:77,4096
DA:78,4096
DA:80,1
DA:90,0
DA:91,0
DA:92,0
DA:93,0
DA:104,0
DA:105,0
DA:106,0
DA:107,0
DA:118,0
DA:119,0
DA:120,0
DA:121,0
DA:133,0
DA:134,0
DA:135,0
DA:136,0
DA:137,0
DA:138,0
DA:142,1
DA:143,1
DA:144,1
DA:277,0
DA:278,0
DA:279,0
DA:280,0
DA:281,0
DA:283,0
DA:284,0
DA:285,0
DA:286,0
DA:287,0
DA:295,0
DA:298,0
DA:299,0
DA:300,0
DA:301,0
DA:304,0
DA:305,0
DA:306,0
DA:307,0
DA:310,0
DA:313,0
DA:316,0
DA:317,0
DA:321,0
DA:322,0
DA:323,0
DA:324,0
DA:327,0
DA:328,0
DA:329,0
DA:330,0
DA:331,0
DA:334,0
DA:335,0
DA:336,0
DA:353,535
DA:354,535
DA:355,535
DA:356,535
DA:358,535
DA:359,1
DA:362,534
DA:363,534
DA:364,534
DA:367,530
DA:368,530
DA:369,530
DA:371,530
DA:372,1
DA:375,529
DA:376,529
DA:377,529
DA:378,529
DA:381,1
DA:382,1
DA:383,2
DA:386,4
DA:387,4
DA:388,4
DA:389,4
DA:500,0
DA:501,0
DA:565,0
DA:566,0
DA:567,0
DA:568,0
DA:569,0
DA:571,0
DA:572,0
LF:111
LH:36
end_of_record
TN:
SF:/home/xucong/caicAD/01datainfra/Aurora/aurora-edge-runtime/src/common/platform/platform_adapter.cpp
FN:9,_ZN6aurora8platform15PlatformAdapterC2Ev
FN:27,_ZN6aurora8platform15PlatformAdapter14detectPlatformEv
FN:61,_ZN6aurora8platform15PlatformAdapter17detectSIMDSupportEv
FN:81,_ZN6aurora8platform15PlatformAdapter14detectCpuCoresEv
FN:101,_ZN6aurora8platform15PlatformAdapter12detectMemoryEv
FN:114,_ZN6aurora8platform15PlatformAdapter18detectCpuFrequencyEv
FN:147,_ZNK6aurora8platform15PlatformAdapter9printInfoEv
FNDA:0,_ZN6aurora8platform15PlatformAdapter18detectCpuFrequencyEv
FNDA:0,_ZN6aurora8platform15PlatformAdapter17detectSIMDSupportEv
FNDA:0,_ZN6aurora8platform15PlatformAdapter14detectPlatformEv
FNDA:0,_ZNK6aurora8platform15PlatformAdapter9printInfoEv
FNDA:0,_ZN6aurora8platform15PlatformAdapter14detectCpuCoresEv
FNDA:0,_ZN6aurora8platform15PlatformAdapterC2Ev
FNDA:0,_ZN6aurora8platform15PlatformAdapter12detectMemoryEv
FNF:7
FNH:0
BRDA:29,0,0,-
BRDA:29,0,1,-
BRDA:35,0,0,-
BRDA:35,0,1,-
BRDA:35,0,2,-
BRDA:35,0,3,-
BRDA:35,0,4,-
BRDA:35,0,5,-
BRDA:37,0,0,-
BRDA:37,0,1,-
BRDA:38,0,0,-
BRDA:38,0,1,-
BRDA:38,0,2,-
BRDA:38,0,3,-
BRDA:38,0,4,-
BRDA:38,0,5,-
BRDA:48,0,0,-
BRDA:48,0,1,-
BRDA:49,0,0,-
BRDA:49,0,1,-
BRDA:54,0,0,-
BRDA:54,0,1,-
BRDA:63,0,0,-
BRDA:63,0,1,-
BRDA:66,0,0,-
BRDA:66,0,1,-
BRDA:66,0,2,-
BRDA:66,0,3,-
BRDA:66,0,4,-
BRDA:66,0,5,-
BRDA:67,0,0,-
BRDA:67,0,1,-
BRDA:75,0,0,-
BRDA:75,0,1,-
BRDA:76,0,0,-
BRDA:76,0,1,-
BRDA:86,0,0,-
BRDA:86,0,1,-
BRDA:87,0,0,-
BRDA:87,0,1,-
BRDA:91,0,0,-
BRDA:91,0,1,-
BRDA:91,0,2,-
BRDA:91,0,3,-
BRDA:91,0,4,-
BRDA:91,0,5,-
BRDA:92,0,0,-
BRDA:92,0,1,-
BRDA:102,0,0,-
BRDA:102,0,1,-
BRDA:106,0,0,-
BRDA:106,0,1,-
BRDA:106,0,2,-
BRDA:106,0,3,-
BRDA:106,0,4,-
BRDA:106,0,5,-
BRDA:106,0,6,-
BRDA:106,0,7,-
BRDA:107,0,0,-
BRDA:107,0,1,-
BRDA:116,0,0,-
BRDA:116,0,1,-
BRDA:119,0,0,-
BRDA:119,0,1,-
BRDA:119,0,2,-
BRDA:119,0,3,-
BRDA:119,0,4,-
BRDA:119,0,5,-
BRDA:120,0,0,-
BRDA:120,0,1,-
BRDA:122,0,0,-
BRDA:122,0,1,-
BRDA:123,0,0,-
BRDA:123,0,1,-
BRDA:124,0,0,-
BRDA:124,0,1,-
BRDA:125,0,0,-
BRDA:125,0,1,-
BRDA:132,0,0,-
BRDA:132,0,1,-
BRDA:133,0,0,-
BRDA:133,0,1,-
BRDA:134,0,0,-
BRDA:134,0,1,-
BRDA:134,0,2,-
BRDA:134,0,3,-
BRDA:136,0,0,-
BRDA:136,0,1,-
BRDA:142,0,0,-
BRDA:142,0,1,-
BRDA:149,0,0,-
BRDA:149,0,1,-
BRDA:149,0,2,-
BRDA:149,0,3,-
BRDA:153,0,0,-
BRDA:153,0,1,-
BRDA:154,0,0,-
BRDA:154,0,1,-
BRDA:155,0,0,-
BRDA:155,0,1,-
BRDA:156,0,0,-
BRDA:156,0,1,-
BRDA:158,0,0,-
BRDA:158,0,1,-
BRDA:159,0,0,-
BRDA:159,0,1,-
BRDA:159,0,2,-
BRDA:159,0,3,-
BRF:108
BRH:0
DA:9,0
DA:11,0
DA:12,0
DA:13,0
DA:14,0
DA:15,0
DA:16,0
DA:17,0
DA:20,0
DA:21,0
DA:22,0
DA:23,0
DA:24,0
DA:25,0
DA:27,0
DA:29,0
DA:30,0
DA:32,0
DA:33,0
DA:35,0
DA:37,0
DA:38,0
DA:39,0
DA:40,0
DA:42,0
DA:48,0
DA:49,0
DA:50,0
DA:52,0
DA:54,0
DA:55,0
DA:57,0
DA:59,0
DA:61,0
DA:63,0
DA:64,0
DA:66,0
DA:67,0
DA:68,0
DA:69,0
DA:70,0
DA:75,0
DA:76,0
DA:77,0
DA:79,0
DA:81,0
DA:83,0
DA:86,0
DA:87,0
DA:88,0
DA:89,0
DA:91,0
DA:92,0
DA:93,0
DA:97,0
DA:98,0
DA:99,0
DA:101,0
DA:102,0
DA:103,0
DA:106,0
DA:107,0
DA:108,0
DA:109,0
DA:112,0
DA:114,0
DA:116,0
DA:117,0
DA:119,0
DA:120,0
DA:121,0
DA:122,0
DA:123,0
DA:124,0
DA:125,0
DA:126,0
DA:127,0
DA:132,0
DA:133,0
DA:134,0
DA:136,0
DA:137,0
DA:139,0
DA:142,0
DA:143,0
DA:145,0
DA:147,0
DA:148,0
DA:149,0
DA:150,0
DA:151,0
DA:152,0
DA:153,0
DA:154,0
DA:155,0
DA:156,0
DA:157,0
DA:158,0
DA:159,0
DA:160,0
DA:161,0
LF:101
LH:0
end_of_record
TN:
SF:/home/xucong/caicAD/01datainfra/Aurora/aurora-edge-runtime/src/common/platform/platform_adapter.h
FN:84,_ZNK6aurora8platform15PlatformAdapter11getCpuCoresEv
FN:89,_ZNK6aurora8platform15PlatformAdapter16getTotalMemoryMBEv
FN:94,_ZNK6aurora8platform15PlatformAdapter14hasSIMDSupportEv
FN:111,_ZNK6aurora8platform15PlatformAdapter15getPlatformNameB5cxx11Ev
FN:126,_ZNK6aurora8platform15PlatformAdapter21getOptimalThreadCountEv
FN:140,_ZNK6aurora8platform15PlatformAdapter17useQuantizedModelEv
FN:158,_ZNK6aurora8platform15PlatformAdapter30getRecommendedInferenceBackendB5cxx11Ev
FNDA:0,_ZNK6aurora8platform15PlatformAdapter16getTotalMemoryMBEv
FNDA:0,_ZNK6aurora8platform15PlatformAdapter30getRecommendedInferenceBackendB5cxx11Ev
FNDA:0,_ZNK6aurora8platform15PlatformAdapter15getPlatformNameB5cxx11Ev
FNDA:0,_ZNK6aurora8platform15PlatformAdapter17useQuantizedModelEv
FNDA:0,_ZNK6aurora8platform15PlatformAdapter21getOptimalThreadCountEv
FNDA:0,_ZNK6aurora8platform15PlatformAdapter11getCpuCoresEv
FNDA:0,_ZNK6aurora8platform15PlatformAdapter14hasSIMDSupportEv
FNF:7
FNH:0
BRDA:95,0,0,-
BRDA:95,0,1,-
BRDA:95,0,2,-
BRDA:95,0,3,-
BRDA:95,0,4,-
BRDA:95,0,5,-
BRDA:112,0,0,-
BRDA:112,0,1,-
BRDA:112,0,2,-
BRDA:112,0,3,-
BRDA:113,0,0,-
BRDA:113,0,1,-
BRDA:114,0,0,-
BRDA:114,0,1,-
BRDA:115,0,0,-
BRDA:115,0,1,-
BRDA:116,0,0,-
BRDA:116,0,1,-
BRDA:127,0,0,-
BRDA:127,0,1,-
BRDA:128,0,0,-
BRDA:128,0,1,-
BRDA:141,0,0,-
BRDA:141,0,1,-
BRDA:142,0,0,-
BRDA:142,0,1,-
BRDA:159,0,0,-
BRDA:159,0,1,-
BRDA:160,0,0,-
BRDA:160,0,1,-
BRDA:161,0,0,-
BRDA:161,0,1,-
BRDA:162,0,0,-
BRDA:162,0,1,-
BRDA:163,0,0,-
BRDA:163,0,1,-
BRDA:165,0,0,-
BRDA:165,0,1,-
BRDA:167,0,0,-
BRDA:167,0,1,-
BRDA:168,0,0,-
BRDA:168,0,1,-
BRDA:169,0,0,-
BRDA:169,0,1,-
BRDA:171,0,0,-
BRDA:171,0,1,-
BRF:46
BRH:0
DA:84,0
DA:89,0
DA:94,0
DA:95,0
DA:111,0
DA:112,0
DA:113,0
DA:114,0
DA:115,0
DA:116,0
DA:126,0
DA:127,0
DA:128,0
DA:129,0
DA:131,0
DA:140,0
DA:141,0
DA:142,0
DA:158,0
DA:159,0
DA:160,0
DA:161,0
DA:162,0
DA:163,0
DA:165,0
DA:167,0
DA:168,0
DA:169,0
DA:171,0
LF:29
LH:0
end_of_record
TN:
SF:/home/xucong/caicAD/01datainfra/Aurora/aurora-edge-runtime/src/common/ros2/qos_profiles.h
FN:20,_ZN6aurora6common3qos11sensor_dataEv
FN:30,_ZN6aurora6common3qos8odometryEv
FN:40,_ZN6aurora6common3qos12velocity_cmdEv
FN:49,_ZN6aurora6common3qos13tf_transformsEv
FN:56,_ZN6aurora6common3qos11static_dataEv
FN:63,_ZN6aurora6common3qos13visualizationEv
FN:69,_ZN6aurora6common3qos12channel_dataEv
FNDA:0,_ZN6aurora6common3qos13visualizationEv
FNDA:1,_ZN6aurora6common3qos8odometryEv
FNDA:0,_ZN6aurora6common3qos12channel_dataEv
FNDA:1,_ZN6aurora6common3qos13tf_transformsEv
FNDA:2,_ZN6aurora6common3qos12velocity_cmdEv
FNDA:1,_ZN6aurora6common3qos11static_dataEv
FNDA:2,_ZN6aurora6common3qos11sensor_dataEv
FNF:7
FNH:5
BRDA:21,0,0,2
BRDA:21,0,1,0
BRDA:22,0,0,2
BRDA:22,0,1,0
BRDA:23,0,0,2
BRDA:23,0,1,0
BRDA:23,0,2,2
BRDA:23,0,3,0
BRDA:24,0,0,2
BRDA:24,0,1,0
BRDA:25,0,0,2
BRDA:25,0,1,0
BRDA:25,0,2,2
BRDA:25,0,3,0
BRDA:31,0,0,1
BRDA:31,0,1,0
BRDA:32,0,0,1
BRDA:32,0,1,0
BRDA:33,0,0,1
BRDA:33,0,1,0
BRDA:33,0,2,1
BRDA:33,0,3,0
BRDA:34,0,0,1
BRDA:34,0,1,0
BRDA:35,0,0,1
BRDA:35,0,1,0
BRDA:35,0,2,1
BRDA:35,0,3,0
BRDA:41,0,0,2
BRDA:41,0,1,0
BRDA:42,0,0,2
BRDA:42,0,1,0
BRDA:43,0,0,2
BRDA:43,0,1,0
BRDA:43,0,2,2
BRDA:43,0,3,0
BRDA:44,0,0,2
BRDA:44,0,1,0
BRDA:45,0,0,2
BRDA:45,0,1,0
BRDA:45,0,2,2
BRDA:45,0,3,0
BRDA:50,0,0,1
BRDA:50,0,1,0
BRDA:51,0,0,1
BRDA:51,0,1,0
BRDA:52,0,0,1
BRDA:52,0,1,0
BRDA:52,0,2,1
BRDA:52,0,3,0
BRDA:57,0,0,1
BRDA:57,0,1,0
BRDA:58,0,0,1
BRDA:58,0,1,0
BRDA:59,0,0,1
BRDA:59,0,1,0
BRDA:64,0,0,-
BRDA:64,0,1,-
BRDA:65,0,0,-
BRDA:65,0,1,-
BRDA:70,0,0,-
BRDA:70,0,1,-
BRDA:71,0,0,-
BRDA:71,0,1,-
BRF:64
BRH:28
DA:20,2
DA:21,2
DA:22,2
DA:23,4
DA:24,2
DA:25,4
DA:30,1
DA:31,1
DA:32,1
DA:33,2
DA:34,1
DA:35,2
DA:40,2
DA:41,2
DA:42,2
DA:43,4
DA:44,2
DA:45,4
DA:49,1
DA:50,1
DA:51,1
DA:52,1
DA:56,1
DA:57,1
DA:58,1
DA:59,1
DA:63,0
DA:64,0
DA:65,0
DA:69,0
DA:70,0
DA:71,0
LF:32
LH:26
end_of_record
TN:
SF:/home/xucong/caicAD/01datainfra/Aurora/aurora-edge-runtime/src/common/sensor_config_manager.cpp
FN:14,_ZN12_GLOBAL__N_122extractJsonStringValueERKNSt7__cxx1112basic_stringIcSt11char_traitsIcESaIcEEES7_
FN:32,_ZN12_GLOBAL__N_120extractJsonBoolValueERKNSt7__cxx1112basic_stringIcSt11char_traitsIcESaIcEEES7_
FN:50,_ZN12_GLOBAL__N_119extractJsonIntValueERKNSt7__cxx1112basic_stringIcSt11char_traitsIcESaIcEEES7_
FN:75,_ZN6aurora6common19SensorConfigManager8instanceEv
FN:80,_ZN6aurora6common19SensorConfigManager14loadFromConfigERKNSt7__cxx1112basic_stringIcSt11char_traitsIcESaIcEEE
FN:94,_ZN6aurora6common19SensorConfigManager15parseJsonConfigERKNSt7__cxx1112basic_stringIcSt11char_traitsIcESaIcEEE
FN:111,_ZN6aurora6common19SensorConfigManager10autoDetectEv
FN:123,_ZN6aurora6common19SensorConfigManager15setSensorConfigERKNS0_12SensorConfigE
FN:128,_ZN6aurora6common19SensorConfigManager9setSensorERKNSt7__cxx1112basic_stringIcSt11char_traitsIcESaIcEEEbi
FN:142,_ZNK6aurora6common19SensorConfigManager12printSummaryEv
FN:163,_ZN6aurora6common19SensorConfigManager16getDefaultConfigEv
FNDA:0,_ZN6aurora6common19SensorConfigManager15setSensorConfigERKNS0_12SensorConfigE
FNDA:0,_ZNK6aurora6common19SensorConfigManager12printSummaryEv
FNDA:0,_ZN12_GLOBAL__N_120extractJsonBoolValueERKNSt7__cxx1112basic_stringIcSt11char_traitsIcESaIcEEES7_
FNDA:0,_ZN12_GLOBAL__N_122extractJsonStringValueERKNSt7__cxx1112basic_stringIcSt11char_traitsIcESaIcEEES7_
FNDA:0,_ZN6aurora6common19SensorConfigManager9setSensorERKNSt7__cxx1112basic_stringIcSt11char_traitsIcESaIcEEEbi
FNDA:0,_ZN6aurora6common19SensorConfigManager8instanceEv
FNDA:0,_ZN6aurora6common19SensorConfigManager10autoDetectEv
FNDA:0,_ZN6aurora6common19SensorConfigManager14loadFromConfigERKNSt7__cxx1112basic_stringIcSt11char_traitsIcESaIcEEE
FNDA:0,_ZN6aurora6common19SensorConfigManager15parseJsonConfigERKNSt7__cxx1112basic_stringIcSt11char_traitsIcESaIcEEE
FNDA:0,_ZN12_GLOBAL__N_119extractJsonIntValueERKNSt7__cxx1112basic_stringIcSt11char_traitsIcESaIcEEES7_
FNDA:0,_ZN6aurora6common19SensorConfigManager16getDefaultConfigEv
FNF:11
FNH:0
BRDA:15,0,0,-
BRDA:15,0,1,-
BRDA:15,0,2,-
BRDA:15,0,3,-
BRDA:17,0,0,-
BRDA:17,0,1,-
BRDA:17,0,2,-
BRDA:17,0,3,-
BRDA:20,0,0,-
BRDA:20,0,1,-
BRDA:20,0,2,-
BRDA:20,0,3,-
BRDA:23,0,0,-
BRDA:23,0,1,-
BRDA:23,0,2,-
BRDA:23,0,3,-
BRDA:27,0,0,-
BRDA:27,0,1,-
BRDA:27,0,2,-
BRDA:27,0,3,-
BRDA:29,0,0,-
BRDA:29,0,1,-
BRDA:33,0,0,-
BRDA:33,0,1,-
BRDA:33,0,2,-
BRDA:33,0,3,-
BRDA:35,0,0,-
BRDA:35,0,1,-
BRDA:38,0,0,-
BRDA:38,0,1,-
BRDA:44,0,0,-
BRDA:44,0,1,-
BRDA:44,0,2,-
BRDA:44,0,3,-
BRDA:44,0,4,-
BRDA:44,0,5,-
BRDA:51,0,0,-
BRDA:51,0,1,-
BRDA:51,0,2,-
BRDA:51,0,3,-
BRDA:53,0,0,-
BRDA:53,0,1,-
BRDA:56,0,0,-
BRDA:56,0,1,-
BRDA:59,0,0,-
BRDA:59,0,1,-
BRDA:59,0,2,-
BRDA:59,0,3,-
BRDA:59,0,4,-
BRDA:59,0,5,-
BRDA:59,0,6,-
BRDA:59,0,7,-
BRDA:59,0,8,-
BRDA:59,0,9,-
BRDA:65,0,0,-
BRDA:65,0,1,-
BRDA:65,0,2,-
BRDA:65,0,3,-
BRDA:65,0,4,-
BRDA:65,0,5,-
BRDA:65,0,6,-
BRDA:65,0,7,-
BRDA:66,0,0,-
BRDA:66,0,1,-
BRDA:69,0,0,-
BRDA:69,0,1,-
BRDA:69,0,2,-
BRDA:69,0,3,-
BRDA:81,0,0,-
BRDA:81,0,1,-
BRDA:82,0,0,-
BRDA:82,0,1,-
BRDA:82,0,2,-
BRDA:82,0,3,-
BRDA:83,0,0,-
BRDA:83,0,1,-
BRDA:83,0,2,-
BRDA:83,0,3,-
BRDA:83,0,4,-
BRDA:83,0,5,-
BRDA:87,0,0,-
BRDA:87,0,1,-
BRDA:88,0,0,-
BRDA:88,0,1,-
BRDA:88,0,2,-
BRDA:88,0,3,-
BRDA:89,0,0,-
BRDA:89,0,1,-
BRDA:91,0,0,-
BRDA:91,0,1,-
BRDA:96,0,0,-
BRDA:96,0,1,-
BRDA:96,0,2,-
BRDA:96,0,3,-
BRDA:97,0,0,-
BRDA:97,0,1,-
BRDA:97,0,2,-
BRDA:97,0,3,-
BRDA:100,0,0,-
BRDA:100,0,1,-
BRDA:100,0,2,-
BRDA:100,0,3,-
BRDA:101,0,0,-
BRDA:101,0,1,-
BRDA:101,0,2,-
BRDA:101,0,3,-
BRDA:104,0,0,-
BRDA:104,0,1,-
BRDA:104,0,2,-
BRDA:104,0,3,-
BRDA:105,0,0,-
BRDA:105,0,1,-
BRDA:105,0,2,-
BRDA:105,0,3,-
BRDA:129,0,0,-
BRDA:129,0,1,-
BRDA:131,0,0,-
BRDA:131,0,1,-
BRDA:132,0,0,-
BRDA:132,0,1,-
BRDA:134,0,0,-
BRDA:134,0,1,-
BRDA:135,0,0,-
BRDA:135,0,1,-
BRDA:137,0,0,-
BRDA:137,0,1,-
BRDA:144,0,0,-
BRDA:144,0,1,-
BRDA:145,0,0,-
BRDA:145,0,1,-
BRDA:150,0,0,-
BRDA:150,0,1,-
BRDA:151,0,0,-
BRDA:151,0,1,-
BRDA:156,0,0,-
BRDA:156,0,1,-
BRDA:157,0,0,-
BRDA:157,0,1,-
BRF:138
BRH:0
DA:14,0
DA:15,0
DA:16,0
DA:17,0
DA:19,0
DA:20,0
DA:22,0
DA:23,0
DA:24,0
DA:26,0
DA:27,0
DA:29,0
DA:30,0
DA:32,0
DA:33,0
DA:34,0
DA:35,0
DA:37,0
DA:38,0
DA:41,0
DA:42,0
DA:44,0
DA:45,0
DA:47,0
DA:48,0
DA:50,0
DA:51,0
DA:52,0
DA:53,0
DA:55,0
DA:56,0
DA:59,0
DA:60,0
DA:64,0
DA:65,0
DA:66,0
DA:69,0
DA:70,0
DA:75,0
DA:77,0
DA:80,0
DA:81,0
DA:82,0
DA:83,0
DA:84,0
DA:87,0
DA:88,0
DA:89,0
DA:91,0
DA:92,0
DA:94,0
DA:96,0
DA:97,0
DA:100,0
DA:101,0
DA:104,0
DA:105,0
DA:107,0
DA:108,0
DA:111,0
DA:116,0
DA:117,0
DA:119,0
DA:120,0
DA:123,0
DA:124,0
DA:125,0
DA:126,0
DA:128,0
DA:129,0
DA:130,0
DA:131,0
DA:132,0
DA:133,0
DA:134,0
DA:135,0
DA:136,0
DA:137,0
DA:139,0
DA:140,0
DA:142,0
DA:143,0
DA:144,0
DA:145,0
DA:146,0
DA:148,0
DA:150,0
DA:151,0
DA:152,0
DA:154,0
DA:156,0
DA:157,0
DA:158,0
DA:160,0
DA:161,0
DA:163,0
DA:164,0
DA:165,0
DA:166,0
DA:167,0
DA:168,0
DA:169,0
DA:170,0
DA:171,0
LF:104
LH:0
end_of_record
TN:
SF:/home/xucong/caicAD/01datainfra/Aurora/aurora-edge-runtime/src/common/startup_logger.cpp
FN:38,_ZN6aurora6common13StartupLogger8instanceEv
FN:43,_ZN6aurora6common13StartupLoggerC2Ev
FN:65,_ZN6aurora6common13StartupLoggerD2Ev
FN:69,_ZN6aurora6common13StartupLogger4initENS0_11StartupModeERKNSt7__cxx1112basic_stringIcSt11char_traitsIcESaIcEEE
FN:84,_ZN6aurora6common13StartupLogger16parseVersionInfoEv
FN:123,_ZN6aurora6common13StartupLogger18printStartupBannerERKNS0_10SystemInfoE
FN:134,_ZN6aurora6common13StartupLogger16printAsciiBannerEv
FN:197,_ZN6aurora6common13StartupLogger21printStructuredBannerEv
FN:215,_ZN6aurora6common13StartupLogger10applyColorERKNSt7__cxx1112basic_stringIcSt11char_traitsIcESaIcEEES9_
FN:222,_ZN6aurora6common13StartupLogger17logInitStageBeginENS0_9InitStageE
FN:237,_ZN6aurora6common13StartupLogger15logInitStageEndENS0_9InitStageEbRKNSt7__cxx1112basic_stringIcSt11char_traitsIcESaIcEEE
FN:267,_ZN6aurora6common13StartupLogger15logInitProgressENS0_9InitStageEiRKNSt7__cxx1112basic_stringIcSt11char_traitsIcESaIcEEE
FN:302,_ZN6aurora6common13StartupLogger16printSystemReadyEv
FN:315,_ZN6aurora6common13StartupLogger8logErrorERKNSt7__cxx1112basic_stringIcSt11char_traitsIcESaIcEEE
FN:326,_ZN6aurora6common13StartupLogger10logWarningERKNSt7__cxx1112basic_stringIcSt11char_traitsIcESaIcEEE
FN:337,_ZN6aurora6common13StartupLogger7logInfoERKNSt7__cxx1112basic_stringIcSt11char_traitsIcESaIcEEE
FN:348,_ZN6aurora6common13StartupLogger15setSensorConfigERKNS0_12SensorConfigE
FN:352,_ZN6aurora6common13StartupLogger8shutdownEv
FN:358,_ZN6aurora6common13StartupLogger12getStageNameB5cxx11ENS0_9InitStageE
FN:370,_ZN6aurora6common13StartupLogger19getStageDescriptionB5cxx11ENS0_9InitStageE
FN:382,_ZN6aurora6common13StartupLogger19getCurrentTimestampB5cxx11Ev
FNDA:0,_ZN6aurora6common13StartupLogger19getCurrentTimestampB5cxx11Ev
FNDA:0,_ZN6aurora6common13StartupLogger12getStageNameB5cxx11ENS0_9InitStageE
FNDA:0,_ZN6aurora6common13StartupLogger15logInitStageEndENS0_9InitStageEbRKNSt7__cxx1112basic_stringIcSt11char_traitsIcESaIcEEE
FNDA:0,_ZN6aurora6common13StartupLogger17logInitStageBeginENS0_9InitStageE
FNDA:0,_ZN6aurora6common13StartupLogger19getStageDescriptionB5cxx11ENS0_9InitStageE
FNDA:0,_ZN6aurora6common13StartupLogger8logErrorERKNSt7__cxx1112basic_stringIcSt11char_traitsIcESaIcEEE
FNDA:0,_ZN6aurora6common13StartupLogger15setSensorConfigERKNS0_12SensorConfigE
FNDA:0,_ZN6aurora6common13StartupLogger16parseVersionInfoEv
FNDA:0,_ZN6aurora6common13StartupLogger10applyColorERKNSt7__cxx1112basic_stringIcSt11char_traitsIcESaIcEEES9_
FNDA:0,_ZN6aurora6common13StartupLoggerC2Ev
FNDA:0,_ZN6aurora6common13StartupLogger16printAsciiBannerEv
FNDA:0,_ZN6aurora6common13StartupLoggerD2Ev
FNDA:0,_ZN6aurora6common13StartupLogger15logInitProgressENS0_9InitStageEiRKNSt7__cxx1112basic_stringIcSt11char_traitsIcESaIcEEE
FNDA:0,_ZN6aurora6common13StartupLogger16printSystemReadyEv
FNDA:0,_ZN6aurora6common13StartupLogger4initENS0_11StartupModeERKNSt7__cxx1112basic_stringIcSt11char_traitsIcESaIcEEE
FNDA:0,_ZN6aurora6common13StartupLogger7logInfoERKNSt7__cxx1112basic_stringIcSt11char_traitsIcESaIcEEE
FNDA:0,_ZN6aurora6common13StartupLogger21printStructuredBannerEv
FNDA:0,_ZN6aurora6common13StartupLogger8instanceEv
FNDA:0,_ZN6aurora6common13StartupLogger10logWarningERKNSt7__cxx1112basic_stringIcSt11char_traitsIcESaIcEEE
FNDA:0,_ZN6aurora6common13StartupLogger18printStartupBannerERKNS0_10SystemInfoE
FNDA:0,_ZN6aurora6common13StartupLogger8shutdownEv
FNF:21
FNH:0
BRDA:39,0,0,-
BRDA:39,0,1,-
BRDA:39,0,2,-
BRDA:39,0,3,-
BRDA:39,0,4,-
BRDA:39,0,5,-
BRDA:39,0,6,-
BRDA:39,0,7,-
BRDA:48,0,0,-
BRDA:48,0,1,-
BRDA:49,0,0,-
BRDA:49,0,1,-
BRDA:50,0,0,-
BRDA:50,0,1,-
BRDA:51,0,0,-
BRDA:51,0,1,-
BRDA:52,0,0,-
BRDA:52,0,1,-
BRDA:53,0,0,-
BRDA:53,0,1,-
BRDA:77,0,0,-
BRDA:77,0,1,-
BRDA:108,0,0,-
BRDA:108,0,1,-
BRDA:108,0,2,-
BRDA:108,0,3,-
BRDA:116,0,0,-
BRDA:116,0,1,-
BRDA:117,0,0,-
BRDA:117,0,1,-
BRDA:117,0,2,-
BRDA:117,0,3,-
BRDA:126,0,0,-
BRDA:126,0,1,-
BRDA:135,0,0,-
BRDA:135,0,1,-
BRDA:138,0,0,-
BRDA:138,0,1,-
BRDA:138,0,2,-
BRDA:138,0,3,-
BRDA:138,0,4,-
BRDA:138,0,5,-
BRDA:138,0,6,-
BRDA:138,0,7,-
BRDA:138,0,8,-
BRDA:138,0,9,-
BRDA:139,0,0,-
BRDA:139,0,1,-
BRDA:139,0,2,-
BRDA:139,0,3,-
BRDA:139,0,4,-
BRDA:139,0,5,-
BRDA:139,0,6,-
BRDA:139,0,7,-
BRDA:139,0,8,-
BRDA:139,0,9,-
BRDA:140,0,0,-
BRDA:140,0,1,-
BRDA:140,0,2,-
BRDA:140,0,3,-
BRDA:140,0,4,-
BRDA:140,0,5,-
BRDA:140,0,6,-
BRDA:140,0,7,-
BRDA:140,0,8,-
BRDA:140,0,9,-
BRDA:141,0,0,-
BRDA:141,0,1,-
BRDA:141,0,2,-
BRDA:141,0,3,-
BRDA:141,0,4,-
BRDA:141,0,5,-
BRDA:141,0,6,-
BRDA:141,0,7,-
BRDA:141,0,8,-
BRDA:141,0,9,-
BRDA:142,0,0,-
BRDA:142,0,1,-
BRDA:145,0,0,-
BRDA:145,0,1,-
BRDA:145,0,2,-
BRDA:145,0,3,-
BRDA:145,0,4,-
BRDA:145,0,5,-
BRDA:147,0,0,-
BRDA:147,0,1,-
BRDA:147,0,2,-
BRDA:147,0,3,-
BRDA:149,0,0,-
BRDA:149,0,1,-
BRDA:149,0,2,-
BRDA:149,0,3,-
BRDA:149,0,4,-
BRDA:149,0,5,-
BRDA:150,0,0,-
BRDA:150,0,1,-
BRDA:150,0,2,-
BRDA:150,0,3,-
BRDA:150,0,4,-
BRDA:150,0,5,-
BRDA:152,0,0,-
BRDA:152,0,1,-
BRDA:152,0,2,-
BRDA:152,0,3,-
BRDA:152,0,4,-
BRDA:152,0,5,-
BRDA:153,0,0,-
BRDA:153,0,1,-
BRDA:153,0,2,-
BRDA:153,0,3,-
BRDA:153,0,4,-
BRDA:153,0,5,-
BRDA:153,0,6,-
BRDA:153,0,7,-
BRDA:153,0,8,-
BRDA:153,0,9,-
BRDA:153,0,10,-
BRDA:153,0,11,-
BRDA:155,0,0,-
BRDA:155,0,1,-
BRDA:155,0,2,-
BRDA:155,0,3,-
BRDA:155,0,4,-
BRDA:155,0,5,-
BRDA:156,0,0,-
BRDA:156,0,1,-
BRDA:156,0,2,-
BRDA:156,0,3,-
BRDA:156,0,4,-
BRDA:156,0,5,-
BRDA:159,0,0,-
BRDA:159,0,1,-
BRDA:159,0,2,-
BRDA:159,0,3,-
BRDA:160,0,0,-
BRDA:160,0,1,-
BRDA:160,0,2,-
BRDA:160,0,3,-
BRDA:160,0,4,-
BRDA:160,0,5,-
BRDA:161,0,0,-
BRDA:161,0,1,-
BRDA:161,0,2,-
BRDA:161,0,3,-
BRDA:161,0,4,-
BRDA:161,0,5,-
BRDA:161,0,6,-
BRDA:161,0,7,-
BRDA:161,0,8,-
BRDA:161,0,9,-
BRDA:163,0,0,-
BRDA:163,0,1,-
BRDA:163,0,2,-
BRDA:163,0,3,-
BRDA:163,0,4,-
BRDA:163,0,5,-
BRDA:164,0,0,-
BRDA:164,0,1,-
BRDA:164,0,2,-
BRDA:164,0,3,-
BRDA:164,0,4,-
BRDA:164,0,5,-
BRDA:166,0,0,-
BRDA:166,0,1,-
BRDA:166,0,2,-
BRDA:166,0,3,-
BRDA:169,0,0,-
BRDA:169,0,1,-
BRDA:169,0,2,-
BRDA:169,0,3,-
BRDA:169,0,4,-
BRDA:169,0,5,-
BRDA:169,0,6,-
BRDA:169,0,7,-
BRDA:169,0,8,-
BRDA:169,0,9,-
BRDA:173,0,0,-
BRDA:173,0,1,-
BRDA:173,0,2,-
BRDA:173,0,3,-
BRDA:173,0,4,-
BRDA:173,0,5,-
BRDA:173,0,6,-
BRDA:173,0,7,-
BRDA:173,0,8,-
BRDA:173,0,9,-
BRDA:173,0,10,-
BRDA:173,0,11,-
BRDA:173,0,12,-
BRDA:173,0,13,-
BRDA:173,0,14,-
BRDA:173,0,15,-
BRDA:173,0,16,-
BRDA:173,0,17,-
BRDA:173,0,18,-
BRDA:173,0,19,-
BRDA:173,0,20,-
BRDA:173,0,21,-
BRDA:173,0,22,-
BRDA:173,0,23,-
BRDA:173,0,24,-
BRDA:173,0,25,-
BRDA:173,0,26,-
BRDA:173,0,27,-
BRDA:173,0,28,-
BRDA:173,0,29,-
BRDA:173,0,30,-
BRDA:173,0,31,-
BRDA:173,0,32,-
BRDA:173,0,33,-
BRDA:173,0,34,-
BRDA:173,0,35,-
BRDA:174,0,0,-
BRDA:174,0,1,-
BRDA:175,0,0,-
BRDA:175,0,1,-
BRDA:175,0,2,-
BRDA:175,0,3,-
BRDA:175,0,4,-
BRDA:175,0,5,-
BRDA:177,0,0,-
BRDA:177,0,1,-
BRDA:180,0,0,-
BRDA:180,0,1,-
BRDA:180,0,2,-
BRDA:180,0,3,-
BRDA:180,0,4,-
BRDA:180,0,5,-
BRDA:180,0,6,-
BRDA:180,0,7,-
BRDA:180,0,8,-
BRDA:180,0,9,-
BRDA:180,0,10,-
BRDA:180,0,11,-
BRDA:180,0,12,-
BRDA:180,0,13,-
BRDA:180,0,14,-
BRDA:180,0,15,-
BRDA:180,0,16,-
BRDA:180,0,17,-
BRDA:180,0,18,-
BRDA:180,0,19,-
BRDA:180,0,20,-
BRDA:180,0,21,-
BRDA:180,0,22,-
BRDA:180,0,23,-
BRDA:180,0,24,-
BRDA:180,0,25,-
BRDA:180,0,26,-
BRDA:180,0,27,-
BRDA:180,0,28,-
BRDA:180,0,29,-
BRDA:180,0,30,-
BRDA:180,0,31,-
BRDA:180,0,32,-
BRDA:180,0,33,-
BRDA:180,0,34,-
BRDA:180,0,35,-
BRDA:181,0,0,-
BRDA:181,0,1,-
BRDA:182,0,0,-
BRDA:182,0,1,-
BRDA:182,0,2,-
BRDA:182,0,3,-
BRDA:182,0,4,-
BRDA:182,0,5,-
BRDA:184,0,0,-
BRDA:184,0,1,-
BRDA:187,0,0,-
BRDA:187,0,1,-
BRDA:187,0,2,-
BRDA:187,0,3,-
BRDA:187,0,4,-
BRDA:187,0,5,-
BRDA:187,0,6,-
BRDA:187,0,7,-
BRDA:187,0,8,-
BRDA:187,0,9,-
BRDA:187,0,10,-
BRDA:187,0,11,-
BRDA:187,0,12,-
BRDA:187,0,13,-
BRDA:187,0,14,-
BRDA:187,0,15,-
BRDA:187,0,16,-
BRDA:187,0,17,-
BRDA:187,0,18,-
BRDA:187,0,19,-
BRDA:187,0,20,-
BRDA:187,0,21,-
BRDA:187,0,22,-
BRDA:187,0,23,-
BRDA:187,0,24,-
BRDA:187,0,25,-
BRDA:187,0,26,-
BRDA:187,0,27,-
BRDA:187,0,28,-
BRDA:187,0,29,-
BRDA:187,0,30,-
BRDA:187,0,31,-
BRDA:187,0,32,-
BRDA:187,0,33,-
BRDA:187,0,34,-
BRDA:187,0,35,-
BRDA:188,0,0,-
BRDA:188,0,1,-
BRDA:189,0,0,-
BRDA:189,0,1,-
BRDA:189,0,2,-
BRDA:189,0,3,-
BRDA:189,0,4,-
BRDA:189,0,5,-
BRDA:191,0,0,-
BRDA:191,0,1,-
BRDA:193,0,0,-
BRDA:193,0,1,-
BRDA:193,0,2,-
BRDA:193,0,3,-
BRDA:194,0,0,-
BRDA:194,0,1,-
BRDA:207,0,0,-
BRDA:207,0,1,-
BRDA:209,0,0,-
BRDA:209,0,1,-
BRDA:211,0,0,-
BRDA:211,0,1,-
BRDA:216,0,0,-
BRDA:216,0,1,-
BRDA:217,0,0,-
BRDA:217,0,1,-
BRDA:226,0,0,-
BRDA:226,0,1,-
BRDA:227,0,0,-
BRDA:227,0,1,-
BRDA:227,0,2,-
BRDA:227,0,3,-
BRDA:227,0,4,-
BRDA:227,0,5,-
BRDA:228,0,0,-
BRDA:228,0,1,-
BRDA:228,0,2,-
BRDA:228,0,3,-
BRDA:229,0,0,-
BRDA:229,0,1,-
BRDA:229,0,2,-
BRDA:229,0,3,-
BRDA:230,0,0,-
BRDA:230,0,1,-
BRDA:230,0,2,-
BRDA:230,0,3,-
BRDA:230,0,4,-
BRDA:230,0,5,-
BRDA:230,0,6,-
BRDA:230,0,7,-
BRDA:230,0,8,-
BRDA:230,0,9,-
BRDA:230,0,10,-
BRDA:230,0,11,-
BRDA:230,0,12,-
BRDA:230,0,13,-
BRDA:230,0,14,-
BRDA:230,0,15,-
BRDA:233,0,0,-
BRDA:233,0,1,-
BRDA:233,0,2,-
BRDA:233,0,3,-
BRDA:233,0,4,-
BRDA:233,0,5,-
BRDA:233,0,6,-
BRDA:233,0,7,-
BRDA:233,0,8,-
BRDA:233,0,9,-
BRDA:233,0,10,-
BRDA:233,0,11,-
BRDA:238,0,0,-
BRDA:238,0,1,-
BRDA:238,0,2,-
BRDA:238,0,3,-
BRDA:241,0,0,-
BRDA:241,0,1,-
BRDA:242,0,0,-
BRDA:242,0,1,-
BRDA:242,0,2,-
BRDA:242,0,3,-
BRDA:244,0,0,-
BRDA:244,0,1,-
BRDA:245,0,0,-
BRDA:245,0,1,-
BRDA:246,0,0,-
BRDA:246,0,1,-
BRDA:246,0,2,-
BRDA:246,0,3,-
BRDA:246,0,4,-
BRDA:246,0,5,-
BRDA:246,0,6,-
BRDA:246,0,7,-
BRDA:248,0,0,-
BRDA:248,0,1,-
BRDA:248,0,2,-
BRDA:248,0,3,-
BRDA:248,0,4,-
BRDA:248,0,5,-
BRDA:248,0,6,-
BRDA:248,0,7,-
BRDA:250,0,0,-
BRDA:250,0,1,-
BRDA:250,0,2,-
BRDA:250,0,3,-
BRDA:250,0,4,-
BRDA:250,0,5,-
BRDA:251,0,0,-
BRDA:251,0,1,-
BRDA:252,0,0,-
BRDA:252,0,1,-
BRDA:252,0,2,-
BRDA:252,0,3,-
BRDA:254,0,0,-
BRDA:254,0,1,-
BRDA:258,0,0,-
BRDA:258,0,1,-
BRDA:258,0,2,-
BRDA:258,0,3,-
BRDA:258,0,4,-
BRDA:258,0,5,-
BRDA:258,0,6,-
BRDA:258,0,7,-
BRDA:258,0,8,-
BRDA:258,0,9,-
BRDA:258,0,10,-
BRDA:258,0,11,-
BRDA:258,0,12,-
BRDA:258,0,13,-
BRDA:258,0,14,-
BRDA:258,0,15,-
BRDA:259,0,0,-
BRDA:259,0,1,-
BRDA:259,0,2,-
BRDA:259,0,3,-
BRDA:259,0,4,-
BRDA:259,0,5,-
BRDA:259,0,6,-
BRDA:259,0,7,-
BRDA:260,0,0,-
BRDA:260,0,1,-
BRDA:261,0,0,-
BRDA:261,0,1,-
BRDA:261,0,2,-
BRDA:261,0,3,-
BRDA:261,0,4,-
BRDA:261,0,5,-
BRDA:263,0,0,-
BRDA:263,0,1,-
BRDA:263,0,2,-
BRDA:263,0,3,-
BRDA:268,0,0,-
BRDA:268,0,1,-
BRDA:273,0,0,-
BRDA:273,0,1,-
BRDA:273,0,2,-
BRDA:273,0,3,-
BRDA:273,0,4,-
BRDA:273,0,5,-
BRDA:274,0,0,-
BRDA:274,0,1,-
BRDA:274,0,2,-
BRDA:274,0,3,-
BRDA:274,0,4,-
BRDA:274,0,5,-
BRDA:274,0,6,-
BRDA:274,0,7,-
BRDA:274,0,8,-
BRDA:274,0,9,-
BRDA:274,0,10,-
BRDA:274,0,11,-
BRDA:274,0,12,-
BRDA:274,0,13,-
BRDA:276,0,0,-
BRDA:276,0,1,-
BRDA:277,0,0,-
BRDA:277,0,1,-
BRDA:278,0,0,-
BRDA:278,0,1,-
BRDA:278,0,2,-
BRDA:278,0,3,-
BRDA:278,0,4,-
BRDA:278,0,5,-
BRDA:279,0,0,-
BRDA:279,0,1,-
BRDA:280,0,0,-
BRDA:280,0,1,-
BRDA:280,0,2,-
BRDA:280,0,3,-
BRDA:280,0,4,-
BRDA:280,0,5,-
BRDA:282,0,0,-
BRDA:282,0,1,-
BRDA:282,0,2,-
BRDA:282,0,3,-
BRDA:282,0,4,-
BRDA:282,0,5,-
BRDA:287,0,0,-
BRDA:287,0,1,-
BRDA:293,0,0,-
BRDA:293,0,1,-
BRDA:293,0,2,-
BRDA:293,0,3,-
BRDA:294,0,0,-
BRDA:294,0,1,-
BRDA:294,0,2,-
BRDA:294,0,3,-
BRDA:294,0,4,-
BRDA:294,0,5,-
BRDA:294,0,6,-
BRDA:294,0,7,-
BRDA:294,0,8,-
BRDA:294,0,9,-
BRDA:295,0,0,-
BRDA:295,0,1,-
BRDA:303,0,0,-
BRDA:303,0,1,-
BRDA:305,0,0,-
BRDA:305,0,1,-
BRDA:305,0,2,-
BRDA:305,0,3,-
BRDA:305,0,4,-
BRDA:305,0,5,-
BRDA:306,0,0,-
BRDA:306,0,1,-
BRDA:306,0,2,-
BRDA:306,0,3,-
BRDA:306,0,4,-
BRDA:306,0,5,-
BRDA:306,0,6,-
BRDA:306,0,7,-
BRDA:306,0,8,-
BRDA:306,0,9,-
BRDA:306,0,10,-
BRDA:306,0,11,-
BRDA:306,0,12,-
BRDA:306,0,13,-
BRDA:307,0,0,-
BRDA:307,0,1,-
BRDA:311,0,0,-
BRDA:311,0,1,-
BRDA:311,0,2,-
BRDA:311,0,3,-
BRDA:311,0,4,-
BRDA:311,0,5,-
BRDA:316,0,0,-
BRDA:316,0,1,-
BRDA:317,0,0,-
BRDA:317,0,1,-
BRDA:317,0,2,-
BRDA:317,0,3,-
BRDA:317,0,4,-
BRDA:317,0,5,-
BRDA:318,0,0,-
BRDA:318,0,1,-
BRDA:318,0,2,-
BRDA:318,0,3,-
BRDA:319,0,0,-
BRDA:319,0,1,-
BRDA:319,0,2,-
BRDA:319,0,3,-
BRDA:319,0,4,-
BRDA:319,0,5,-
BRDA:319,0,6,-
BRDA:319,0,7,-
BRDA:319,0,8,-
BRDA:319,0,9,-
BRDA:319,0,10,-
BRDA:319,0,11,-
BRDA:319,0,12,-
BRDA:319,0,13,-
BRDA:322,0,0,-
BRDA:322,0,1,-
BRDA:322,0,2,-
BRDA:322,0,3,-
BRDA:322,0,4,-
BRDA:322,0,5,-
BRDA:322,0,6,-
BRDA:322,0,7,-
BRDA:322,0,8,-
BRDA:322,0,9,-
BRDA:327,0,0,-
BRDA:327,0,1,-
BRDA:328,0,0,-
BRDA:328,0,1,-
BRDA:328,0,2,-
BRDA:328,0,3,-
BRDA:328,0,4,-
BRDA:328,0,5,-
BRDA:329,0,0,-
BRDA:329,0,1,-
BRDA:329,0,2,-
BRDA:329,0,3,-
BRDA:330,0,0,-
BRDA:330,0,1,-
BRDA:330,0,2,-
BRDA:330,0,3,-
BRDA:330,0,4,-
BRDA:330,0,5,-
BRDA:330,0,6,-
BRDA:330,0,7,-
BRDA:330,0,8,-
BRDA:330,0,9,-
BRDA:330,0,10,-
BRDA:330,0,11,-
BRDA:333,0,0,-
BRDA:333,0,1,-
BRDA:333,0,2,-
BRDA:333,0,3,-
BRDA:333,0,4,-
BRDA:333,0,5,-
BRDA:333,0,6,-
BRDA:333,0,7,-
BRDA:333,0,8,-
BRDA:333,0,9,-
BRDA:338,0,0,-
BRDA:338,0,1,-
BRDA:339,0,0,-
BRDA:339,0,1,-
BRDA:339,0,2,-
BRDA:339,0,3,-
BRDA:339,0,4,-
BRDA:339,0,5,-
BRDA:340,0,0,-
BRDA:340,0,1,-
BRDA:340,0,2,-
BRDA:340,0,3,-
BRDA:341,0,0,-
BRDA:341,0,1,-
BRDA:341,0,2,-
BRDA:341,0,3,-
BRDA:341,0,4,-
BRDA:341,0,5,-
BRDA:341,0,6,-
BRDA:341,0,7,-
BRDA:341,0,8,-
BRDA:341,0,9,-
BRDA:341,0,10,-
BRDA:341,0,11,-
BRDA:344,0,0,-
BRDA:344,0,1,-
BRDA:344,0,2,-
BRDA:344,0,3,-
BRDA:344,0,4,-
BRDA:344,0,5,-
BRDA:344,0,6,-
BRDA:344,0,7,-
BRDA:344,0,8,-
BRDA:344,0,9,-
BRDA:353,0,0,-
BRDA:353,0,1,-
BRDA:359,0,0,-
BRDA:359,0,1,-
BRDA:359,0,2,-
BRDA:359,0,3,-
BRDA:359,0,4,-
BRDA:359,0,5,-
BRDA:359,0,6,-
BRDA:360,0,0,-
BRDA:360,0,1,-
BRDA:361,0,0,-
BRDA:361,0,1,-
BRDA:362,0,0,-
BRDA:362,0,1,-
BRDA:363,0,0,-
BRDA:363,0,1,-
BRDA:364,0,0,-
BRDA:364,0,1,-
BRDA:365,0,0,-
BRDA:365,0,1,-
BRDA:366,0,0,-
BRDA:366,0,1,-
BRDA:371,0,0,-
BRDA:371,0,1,-
BRDA:371,0,2,-
BRDA:371,0,3,-
BRDA:371,0,4,-
BRDA:371,0,5,-
BRDA:371,0,6,-
BRDA:372,0,0,-
BRDA:372,0,1,-
BRDA:373,0,0,-
BRDA:373,0,1,-
BRDA:374,0,0,-
BRDA:374,0,1,-
BRDA:375,0,0,-
BRDA:375,0,1,-
BRDA:376,0,0,-
BRDA:376,0,1,-
BRDA:377,0,0,-
BRDA:377,0,1,-
BRDA:378,0,0,-
BRDA:378,0,1,-
BRDA:385,0,0,-
BRDA:385,0,1,-
BRDA:386,0,0,-
BRDA:386,0,1,-
BRDA:388,0,0,-
BRDA:388,0,1,-
BRDA:389,0,0,-
BRDA:389,0,1,-
BRDA:390,0,0,-
BRDA:390,0,1,-
BRDA:390,0,2,-
BRDA:390,0,3,-
BRDA:390,0,4,-
BRDA:390,0,5,-
BRDA:390,0,6,-
BRDA:390,0,7,-
BRDA:391,0,0,-
BRDA:391,0,1,-
BRF:714
BRH:0
DA:38,0
DA:39,0
DA:40,0
DA:43,0
DA:44,0
DA:45,0
DA:46,0
DA:48,0
DA:49,0
DA:50,0
DA:51,0
DA:52,0
DA:53,0
DA:61,0
DA:63,0
DA:65,0
DA:66,0
DA:67,0
DA:69,0
DA:70,0
DA:71,0
DA:74,0
DA:77,0
DA:78,0
DA:81,0
DA:84,0
DA:87,0
DA:94,0
DA:101,0
DA:107,0
DA:108,0
DA:109,0
DA:111,0
DA:115,0
DA:116,0
DA:117,0
DA:119,0
DA:121,0
DA:123,0
DA:124,0
DA:126,0
DA:127,0
DA:129,0
DA:131,0
DA:134,0
DA:135,0
DA:138,0
DA:139,0
DA:140,0
DA:141,0
DA:142,0
DA:144,0
DA:145,0
DA:147,0
DA:149,0
DA:150,0
DA:152,0
DA:153,0
DA:155,0
DA:156,0
DA:158,0
DA:159,0
DA:160,0
DA:161,0
DA:163,0
DA:164,0
DA:166,0
DA:169,0
DA:171,0
DA:173,0
DA:174,0
DA:175,0
DA:177,0
DA:180,0
DA:181,0
DA:182,0
DA:184,0
DA:187,0
DA:188,0
DA:189,0
DA:191,0
DA:193,0
DA:194,0
DA:195,0
DA:197,0
DA:199,0
DA:200,0
DA:201,0
DA:202,0
DA:203,0
DA:204,0
DA:206,0
DA:207,0
DA:208,0
DA:209,0
DA:210,0
DA:211,0
DA:212,0
DA:213,0
DA:215,0
DA:216,0
DA:217,0
DA:219,0
DA:222,0
DA:223,0
DA:224,0
DA:226,0
DA:227,0
DA:228,0
DA:229,0
DA:230,0
DA:232,0
DA:233,0
DA:235,0
DA:237,0
DA:238,0
DA:240,0
DA:241,0
DA:242,0
DA:244,0
DA:245,0
DA:246,0
DA:248,0
DA:250,0
DA:251,0
DA:252,0
DA:254,0
DA:256,0
DA:258,0
DA:259,0
DA:260,0
DA:261,0
DA:263,0
DA:265,0
DA:267,0
DA:268,0
DA:270,0
DA:271,0
DA:273,0
DA:274,0
DA:276,0
DA:277,0
DA:278,0
DA:279,0
DA:280,0
DA:282,0
DA:286,0
DA:287,0
DA:288,0
DA:290,0
DA:292,0
DA:293,0
DA:294,0
DA:295,0
DA:296,0
DA:298,0
DA:300,0
DA:302,0
DA:303,0
DA:304,0
DA:305,0
DA:306,0
DA:307,0
DA:308,0
DA:311,0
DA:313,0
DA:315,0
DA:316,0
DA:317,0
DA:318,0
DA:319,0
DA:322,0
DA:324,0
DA:326,0
DA:327,0
DA:328,0
DA:329,0
DA:330,0
DA:333,0
DA:335,0
DA:337,0
DA:338,0
DA:339,0
DA:340,0
DA:341,0
DA:344,0
DA:346,0
DA:348,0
DA:349,0
DA:350,0
DA:352,0
DA:353,0
DA:354,0
DA:356,0
DA:358,0
DA:359,0
DA:360,0
DA:361,0
DA:362,0
DA:363,0
DA:364,0
DA:365,0
DA:366,0
DA:370,0
DA:371,0
DA:372,0
DA:373,0
DA:374,0
DA:375,0
DA:376,0
DA:377,0
DA:378,0
DA:382,0
DA:383,0
DA:384,0
DA:385,0
DA:386,0
DA:388,0
DA:389,0
DA:390,0
DA:391,0
DA:392,0
LF:222
LH:0
end_of_record
TN:
SF:/home/xucong/caicAD/01datainfra/Aurora/aurora-edge-runtime/src/common/utils/sRegex.cpp
FN:11,_ZN6aurora6common7IsMatchERKNSt7__cxx1112basic_stringIcSt11char_traitsIcESaIcEEES8_
FNDA:0,_ZN6aurora6common7IsMatchERKNSt7__cxx1112basic_stringIcSt11char_traitsIcESaIcEEES8_
FNF:1
FNH:0
BRDA:14,0,0,-
BRDA:14,0,1,-
BRDA:15,0,0,-
BRDA:15,0,1,-
BRDA:17,0,0,0
BRDA:17,0,1,0
BRDA:19,0,0,0
BRDA:19,0,1,0
BRDA:19,0,2,0
BRDA:19,0,3,0
BRDA:19,0,4,0
BRDA:19,0,5,0
BRF:12
BRH:0
DA:11,0
DA:14,0
DA:15,0
DA:16,0
DA:17,0
DA:19,0
DA:20,0
DA:21,0
LF:8
LH:0
end_of_record
TN:
SF:/home/xucong/caicAD/01datainfra/Aurora/aurora-edge-runtime/src/common/utils/utils.cpp
FN:21,_ZN6aurora6common10IsDirExistERKNSt7__cxx1112basic_stringIcSt11char_traitsIcESaIcEEE
FN:35,_ZN6aurora6common10DeleteFileERKNSt7__cxx1112basic_stringIcSt11char_traitsIcESaIcEEE
FN:40,_ZN6aurora6common11DeleteFilesERKSt6vectorINSt7__cxx1112basic_stringIcSt11char_traitsIcESaIcEEESaIS7_EE
FN:57,_ZN6aurora6common14saveDataToFileERKNSt7__cxx1112basic_stringIcSt11char_traitsIcESaIcEEES8_
FN:78,_ZN6aurora6common21ensureDirectoryExistsERKNSt7__cxx1112basic_stringIcSt11char_traitsIcESaIcEEE
FN:86,_ZN6aurora6common23ForceCreateDirRecursiveERKNSt7__cxx1112basic_stringIcSt11char_traitsIcESaIcEEE
FN:102,_ZN6aurora6common22FindFilesWithAllSuffixERKNSt7__cxx1112basic_stringIcSt11char_traitsIcESaIcEEE
FN:125,_ZN6aurora6common10RenameFileERKNSt7__cxx1112basic_stringIcSt11char_traitsIcESaIcEEES8_
FN:143,_ZN6aurora6common16RenameRecordFileERKNSt7__cxx1112basic_stringIcSt11char_traitsIcESaIcEEE
FN:158,_ZN6aurora6common16readFileToStringERKNSt7__cxx1112basic_stringIcSt11char_traitsIcESaIcEEE
FN:178,_ZN6aurora6common19GetFileCreationTimeERKNSt7__cxx1112basic_stringIcSt11char_traitsIcESaIcEEE
FN:187,_ZN6aurora6common19GetFilesInTimeRangeERKNSt7__cxx1112basic_stringIcSt11char_traitsIcESaIcEEEmm
FN:240,_ZN6aurora6common21GetCurrentTimestampMsEv
FN:247,_ZN6aurora6common19GetCurrentTimestampEv
FN:254,_ZN6aurora6common21GetCurrentTimestampNsEv
FN:261,_ZN6aurora6common7getTimeEv
FN:269,_ZN6aurora6common19get14DigitTimestampB5cxx11Ev
FN:293,_ZN6aurora6common17generateTimestampEv
FN:301,_ZN6aurora6common23getCurrentTimeFormattedB5cxx11Ev
FN:316,_ZN6aurora6common19UnixSecondsToStringEmRKNSt7__cxx1112basic_stringIcSt11char_traitsIcESaIcEEE
FN:331,_ZN6aurora6common15TimestampNs2StrB5cxx11Em
FN:341,_ZN6aurora6common12FileTimeToMsERKNSt6chrono10time_pointINSt10filesystem12__file_clockENS1_8durationIlSt5ratioILl1ELl1000000000EEEEEE
FN:349,_ZN6aurora6common8MonoTimeEv
FN:359,_ZN6aurora6common8ToSecondEm
FN:363,_ZN6aurora6common24getCurrentDateTimeStringB5cxx11Ev
FN:376,_ZN6aurora6common3VinB5cxx11Ev
FN:381,_ZN6aurora6common16ReplaceSubstringENSt7__cxx1112basic_stringIcSt11char_traitsIcESaIcEEERKS6_S8_
FN:390,_ZN6aurora6common4trimERKNSt7__cxx1112basic_stringIcSt11char_traitsIcESaIcEEE
FN:408,_ZN6aurora6common5splitERKNSt7__cxx1112basic_stringIcSt11char_traitsIcESaIcEEEc
FN:422,_ZN6aurora6common20generateRandomStringB5cxx11Em
FN:442,_ZN6aurora6common12getRandMsgIDB5cxx11Ev
FN:451,_ZN6aurora6common19ParseJsonFromStringERKNSt7__cxx1112basic_stringIcSt11char_traitsIcESaIcEEE
FN:455,_ZN6aurora6common12jsonFormaterERN8nlohmann10basic_jsonISt3mapSt6vectorNSt7__cxx1112basic_stringIcSt11char_traitsIcESaIcEEEblmdSaNS1_14adl_serializerEEESD_
FNDA:0,_ZN6aurora6common12getRandMsgIDB5cxx11Ev
FNDA:0,_ZN6aurora6common16ReplaceSubstringENSt7__cxx1112basic_stringIcSt11char_traitsIcESaIcEEERKS6_S8_
FNDA:0,_ZN6aurora6common10DeleteFileERKNSt7__cxx1112basic_stringIcSt11char_traitsIcESaIcEEE
FNDA:0,_ZN6aurora6common19GetFileCreationTimeERKNSt7__cxx1112basic_stringIcSt11char_traitsIcESaIcEEE
FNDA:0,_ZN6aurora6common8MonoTimeEv
FNDA:0,_ZN6aurora6common24getCurrentDateTimeStringB5cxx11Ev
FNDA:0,_ZN6aurora6common16RenameRecordFileERKNSt7__cxx1112basic_stringIcSt11char_traitsIcESaIcEEE
FNDA:0,_ZN6aurora6common19UnixSecondsToStringEmRKNSt7__cxx1112basic_stringIcSt11char_traitsIcESaIcEEE
FNDA:0,_ZN6aurora6common23ForceCreateDirRecursiveERKNSt7__cxx1112basic_stringIcSt11char_traitsIcESaIcEEE
FNDA:0,_ZN6aurora6common21ensureDirectoryExistsERKNSt7__cxx1112basic_stringIcSt11char_traitsIcESaIcEEE
FNDA:0,_ZN6aurora6common14saveDataToFileERKNSt7__cxx1112basic_stringIcSt11char_traitsIcESaIcEEES8_
FNDA:0,_ZN6aurora6common17generateTimestampEv
FNDA:0,_ZN6aurora6common12FileTimeToMsERKNSt6chrono10time_pointINSt10filesystem12__file_clockENS1_8durationIlSt5ratioILl1ELl1000000000EEEEEE
FNDA:0,_ZN6aurora6common7getTimeEv
FNDA:0,_ZN6aurora6common20generateRandomStringB5cxx11Em
FNDA:0,_ZN6aurora6common5splitERKNSt7__cxx1112basic_stringIcSt11char_traitsIcESaIcEEEc
FNDA:0,_ZN6aurora6common10IsDirExistERKNSt7__cxx1112basic_stringIcSt11char_traitsIcESaIcEEE
FNDA:0,_ZN6aurora6common12jsonFormaterERN8nlohmann10basic_jsonISt3mapSt6vectorNSt7__cxx1112basic_stringIcSt11char_traitsIcESaIcEEEblmdSaNS1_14adl_serializerEEESD_
FNDA:0,_ZN6aurora6common19ParseJsonFromStringERKNSt7__cxx1112basic_stringIcSt11char_traitsIcESaIcEEE
FNDA:0,_ZN6aurora6common19GetCurrentTimestampEv
FNDA:0,_ZN6aurora6common22FindFilesWithAllSuffixERKNSt7__cxx1112basic_stringIcSt11char_traitsIcESaIcEEE
FNDA:0,_ZN6aurora6common4trimERKNSt7__cxx1112basic_stringIcSt11char_traitsIcESaIcEEE
FNDA:0,_ZN6aurora6common19GetFilesInTimeRangeERKNSt7__cxx1112basic_stringIcSt11char_traitsIcESaIcEEEmm
FNDA:0,_ZN6aurora6common21GetCurrentTimestampNsEv
FNDA:0,_ZN6aurora6common23getCurrentTimeFormattedB5cxx11Ev
FNDA:0,_ZN6aurora6common15TimestampNs2StrB5cxx11Em
FNDA:0,_ZN6aurora6common10RenameFileERKNSt7__cxx1112basic_stringIcSt11char_traitsIcESaIcEEES8_
FNDA:0,_ZN6aurora6common21GetCurrentTimestampMsEv
FNDA:0,_ZN6aurora6common19get14DigitTimestampB5cxx11Ev
FNDA:0,_ZN6aurora6common11DeleteFilesERKSt6vectorINSt7__cxx1112basic_stringIcSt11char_traitsIcESaIcEEESaIS7_EE
FNDA:0,_ZN6aurora6common16readFileToStringERKNSt7__cxx1112basic_stringIcSt11char_traitsIcESaIcEEE
FNDA:0,_ZN6aurora6common8ToSecondEm
FNDA:0,_ZN6aurora6common3VinB5cxx11Ev
FNF:33
FNH:0
BRDA:23,0,0,-
BRDA:23,0,1,-
BRDA:41,0,0,-
BRDA:41,0,1,-
BRDA:42,0,0,-
BRDA:42,0,1,-
BRDA:42,0,2,-
BRDA:42,0,3,-
BRDA:42,0,4,-
BRDA:42,0,5,-
BRDA:44,0,0,-
BRDA:44,0,1,-
BRDA:44,0,2,-
BRDA:44,0,3,-
BRDA:45,0,0,-
BRDA:45,0,1,-
BRDA:45,0,2,-
BRDA:45,0,3,-
BRDA:45,0,4,-
BRDA:45,0,5,-
BRDA:46,0,0,0
BRDA:46,0,1,0
BRDA:47,0,0,0
BRDA:47,0,1,0
BRDA:47,0,2,0
BRDA:47,0,3,0
BRDA:47,0,4,0
BRDA:47,0,5,0
BRDA:49,0,0,0
BRDA:49,0,1,0
BRDA:51,0,0,-
BRDA:51,0,1,-
BRDA:51,0,2,-
BRDA:51,0,3,-
BRDA:51,0,4,-
BRDA:51,0,5,-
BRDA:59,0,0,-
BRDA:59,0,1,-
BRDA:61,0,0,-
BRDA:61,0,1,-
BRDA:62,0,0,-
BRDA:62,0,1,-
BRDA:65,0,0,-
BRDA:65,0,1,-
BRDA:66,0,0,-
BRDA:66,0,1,-
BRDA:66,0,2,-
BRDA:66,0,3,-
BRDA:68,0,0,-
BRDA:68,0,1,-
BRDA:68,0,2,-
BRDA:68,0,3,-
BRDA:69,0,0,-
BRDA:69,0,1,-
BRDA:70,0,0,-
BRDA:70,0,1,-
BRDA:70,0,2,-
BRDA:70,0,3,-
BRDA:70,0,4,-
BRDA:70,0,5,-
BRDA:74,0,0,-
BRDA:74,0,1,-
BRDA:74,0,2,-
BRDA:74,0,3,-
BRDA:74,0,4,-
BRDA:74,0,5,-
BRDA:82,0,0,-
BRDA:82,0,1,-
BRDA:82,0,2,-
BRDA:82,0,3,-
BRDA:88,0,0,-
BRDA:88,0,1,-
BRDA:89,0,0,-
BRDA:89,0,1,-
BRDA:90,0,0,-
BRDA:90,0,1,-
BRDA:90,0,2,-
BRDA:90,0,3,-
BRDA:90,0,4,-
BRDA:90,0,5,-
BRDA:90,0,6,-
BRDA:90,0,7,-
BRDA:91,0,0,-
BRDA:91,0,1,-
BRDA:94,0,0,-
BRDA:94,0,1,-
BRDA:94,0,2,-
BRDA:94,0,3,-
BRDA:94,0,4,-
BRDA:94,0,5,-
BRDA:96,0,0,-
BRDA:96,0,1,-
BRDA:97,0,0,0
BRDA:97,0,1,0
BRDA:97,0,2,0
BRDA:97,0,3,0
BRDA:97,0,4,0
BRDA:97,0,5,0
BRDA:103,0,0,-
BRDA:103,0,1,-
BRDA:104,0,0,-
BRDA:104,0,1,-
BRDA:105,0,0,-
BRDA:105,0,1,-
BRDA:105,0,2,-
BRDA:105,0,3,-
BRDA:108,0,0,-
BRDA:108,0,1,-
BRDA:108,0,2,-
BRDA:108,0,3,-
BRDA:108,0,4,-
BRDA:108,0,5,-
BRDA:109,0,0,-
BRDA:109,0,1,-
BRDA:109,0,2,-
BRDA:109,0,3,-
BRDA:110,0,0,-
BRDA:110,0,1,-
BRDA:110,0,2,-
BRDA:110,0,3,-
BRDA:111,0,0,-
BRDA:111,0,1,-
BRDA:112,0,0,-
BRDA:112,0,1,-
BRDA:112,0,2,-
BRDA:112,0,3,-
BRDA:118,0,0,-
BRDA:118,0,1,-
BRDA:119,0,0,-
BRDA:119,0,1,-
BRDA:121,0,0,-
BRDA:121,0,1,-
BRDA:127,0,0,-
BRDA:127,0,1,-
BRDA:128,0,0,-
BRDA:128,0,1,-
BRDA:129,0,0,-
BRDA:129,0,1,-
BRDA:129,0,2,-
BRDA:129,0,3,-
BRDA:130,0,0,-
BRDA:130,0,1,-
BRDA:130,0,2,-
BRDA:130,0,3,-
BRDA:130,0,4,-
BRDA:130,0,5,-
BRDA:134,0,0,-
BRDA:134,0,1,-
BRDA:137,0,0,-
BRDA:137,0,1,-
BRDA:138,0,0,0
BRDA:138,0,1,0
BRDA:138,0,2,0
BRDA:138,0,3,0
BRDA:138,0,4,0
BRDA:138,0,5,0
BRDA:145,0,0,-
BRDA:145,0,1,-
BRDA:147,0,0,-
BRDA:147,0,1,-
BRDA:147,0,2,-
BRDA:147,0,3,-
BRDA:147,0,4,-
BRDA:147,0,5,-
BRDA:147,0,6,-
BRDA:147,0,7,-
BRDA:148,0,0,-
BRDA:148,0,1,-
BRDA:148,0,2,-
BRDA:148,0,3,-
BRDA:148,0,4,-
BRDA:148,0,5,-
BRDA:148,0,6,-
BRDA:148,0,7,-
BRDA:150,0,0,-
BRDA:150,0,1,-
BRDA:150,0,2,-
BRDA:150,0,3,-
BRDA:150,0,4,-
BRDA:150,0,5,-
BRDA:150,0,6,-
BRDA:150,0,7,-
BRDA:150,0,8,-
BRDA:150,0,9,-
BRDA:154,0,0,-
BRDA:154,0,1,-
BRDA:154,0,2,-
BRDA:154,0,3,-
BRDA:154,0,4,-
BRDA:154,0,5,-
BRDA:154,0,6,-
BRDA:154,0,7,-
BRDA:154,0,8,-
BRDA:154,0,9,-
BRDA:155,0,0,-
BRDA:155,0,1,-
BRDA:159,0,0,-
BRDA:159,0,1,-
BRDA:159,0,2,-
BRDA:159,0,3,-
BRDA:159,0,4,-
BRDA:159,0,5,-
BRDA:160,0,0,-
BRDA:160,0,1,-
BRDA:160,0,2,-
BRDA:160,0,3,-
BRDA:160,0,4,-
BRDA:160,0,5,-
BRDA:161,0,0,-
BRDA:161,0,1,-
BRDA:164,0,0,-
BRDA:164,0,1,-
BRDA:165,0,0,-
BRDA:165,0,1,-
BRDA:165,0,2,-
BRDA:165,0,3,-
BRDA:166,0,0,-
BRDA:166,0,1,-
BRDA:166,0,2,-
BRDA:166,0,3,-
BRDA:166,0,4,-
BRDA:166,0,5,-
BRDA:167,0,0,-
BRDA:167,0,1,-
BRDA:171,0,0,-
BRDA:171,0,1,-
BRDA:171,0,2,-
BRDA:171,0,3,-
BRDA:172,0,0,-
BRDA:172,0,1,-
BRDA:174,0,0,-
BRDA:174,0,1,-
BRDA:180,0,0,-
BRDA:180,0,1,-
BRDA:181,0,0,-
BRDA:181,0,1,-
BRDA:181,0,2,-
BRDA:181,0,3,-
BRDA:189,0,0,-
BRDA:189,0,1,-
BRDA:190,0,0,-
BRDA:190,0,1,-
BRDA:190,0,2,-
BRDA:190,0,3,-
BRDA:193,0,0,-
BRDA:193,0,1,-
BRDA:193,0,2,-
BRDA:193,0,3,-
BRDA:194,0,0,-
BRDA:194,0,1,-
BRDA:194,0,2,-
BRDA:194,0,3,-
BRDA:198,0,0,-
BRDA:198,0,1,-
BRDA:198,0,2,-
BRDA:198,0,3,-
BRDA:198,0,4,-
BRDA:198,0,5,-
BRDA:198,0,6,-
BRDA:198,0,7,-
BRDA:199,0,0,-
BRDA:199,0,1,-
BRDA:199,0,2,-
BRDA:199,0,3,-
BRDA:200,0,0,-
BRDA:200,0,1,-
BRDA:201,0,0,-
BRDA:201,0,1,-
BRDA:202,0,0,-
BRDA:202,0,1,-
BRDA:202,0,2,-
BRDA:202,0,3,-
BRDA:212,0,0,0
BRDA:212,0,1,0
BRDA:214,0,0,0
BRDA:214,0,1,0
BRDA:243,0,0,-
BRDA:243,0,1,-
BRDA:257,0,0,-
BRDA:257,0,1,-
BRDA:263,0,0,-
BRDA:263,0,1,-
BRDA:275,0,0,-
BRDA:275,0,1,-
BRDA:275,0,2,-
BRDA:275,0,3,-
BRDA:275,0,4,-
BRDA:275,0,5,-
BRDA:282,0,0,-
BRDA:282,0,1,-
BRDA:283,0,0,-
BRDA:283,0,1,-
BRDA:283,0,2,-
BRDA:283,0,3,-
BRDA:284,0,0,-
BRDA:284,0,1,-
BRDA:284,0,2,-
BRDA:284,0,3,-
BRDA:284,0,4,-
BRDA:284,0,5,-
BRDA:285,0,0,-
BRDA:285,0,1,-
BRDA:285,0,2,-
BRDA:285,0,3,-
BRDA:285,0,4,-
BRDA:285,0,5,-
BRDA:286,0,0,-
BRDA:286,0,1,-
BRDA:286,0,2,-
BRDA:286,0,3,-
BRDA:286,0,4,-
BRDA:286,0,5,-
BRDA:287,0,0,-
BRDA:287,0,1,-
BRDA:287,0,2,-
BRDA:287,0,3,-
BRDA:287,0,4,-
BRDA:287,0,5,-
BRDA:288,0,0,-
BRDA:288,0,1,-
BRDA:288,0,2,-
BRDA:288,0,3,-
BRDA:288,0,4,-
BRDA:288,0,5,-
BRDA:288,0,6,-
BRDA:288,0,7,-
BRDA:290,0,0,-
BRDA:290,0,1,-
BRDA:295,0,0,-
BRDA:295,0,1,-
BRDA:303,0,0,-
BRDA:303,0,1,-
BRDA:304,0,0,-
BRDA:304,0,1,-
BRDA:309,0,0,-
BRDA:309,0,1,-
BRDA:310,0,0,-
BRDA:310,0,1,-
BRDA:311,0,0,-
BRDA:311,0,1,-
BRDA:311,0,2,-
BRDA:311,0,3,-
BRDA:311,0,4,-
BRDA:311,0,5,-
BRDA:313,0,0,-
BRDA:313,0,1,-
BRDA:322,0,0,-
BRDA:322,0,1,-
BRDA:323,0,0,-
BRDA:323,0,1,-
BRDA:326,0,0,-
BRDA:326,0,1,-
BRDA:328,0,0,-
BRDA:328,0,1,-
BRDA:332,0,0,-
BRDA:332,0,1,-
BRDA:337,0,0,-
BRDA:337,0,1,-
BRDA:338,0,0,-
BRDA:338,0,1,-
BRDA:342,0,0,-
BRDA:342,0,1,-
BRDA:343,0,0,-
BRDA:343,0,1,-
BRDA:343,0,2,-
BRDA:343,0,3,-
BRDA:345,0,0,-
BRDA:345,0,1,-
BRDA:352,0,0,-
BRDA:352,0,1,-
BRDA:355,0,0,-
BRDA:355,0,1,-
BRDA:370,0,0,-
BRDA:370,0,1,-
BRDA:378,0,0,-
BRDA:378,0,1,-
BRDA:378,0,2,-
BRDA:378,0,3,-
BRDA:378,0,4,-
BRDA:378,0,5,-
BRDA:378,0,6,-
BRDA:378,0,7,-
BRDA:378,0,8,-
BRDA:378,0,9,-
BRDA:378,0,10,-
BRDA:378,0,11,-
BRDA:378,0,12,-
BRDA:378,0,13,-
BRDA:383,0,0,-
BRDA:383,0,1,-
BRDA:392,0,0,-
BRDA:392,0,1,-
BRDA:393,0,0,-
BRDA:393,0,1,-
BRDA:396,0,0,-
BRDA:396,0,1,-
BRDA:396,0,2,-
BRDA:396,0,3,-
BRDA:396,0,4,-
BRDA:396,0,5,-
BRDA:403,0,0,-
BRDA:403,0,1,-
BRDA:403,0,2,-
BRDA:403,0,3,-
BRDA:403,0,4,-
BRDA:403,0,5,-
BRDA:405,0,0,-
BRDA:405,0,1,-
BRDA:411,0,0,-
BRDA:411,0,1,-
BRDA:413,0,0,-
BRDA:413,0,1,-
BRDA:413,0,2,-
BRDA:413,0,3,-
BRDA:413,0,4,-
BRDA:413,0,5,-
BRDA:414,0,0,-
BRDA:414,0,1,-
BRDA:415,0,0,-
BRDA:415,0,1,-
BRDA:428,0,0,-
BRDA:428,0,1,-
BRDA:429,0,0,-
BRDA:429,0,1,-
BRDA:429,0,2,-
BRDA:429,0,3,-
BRDA:430,0,0,-
BRDA:430,0,1,-
BRDA:433,0,0,-
BRDA:433,0,1,-
BRDA:435,0,0,-
BRDA:435,0,1,-
BRDA:436,0,0,-
BRDA:436,0,1,-
BRDA:436,0,2,-
BRDA:436,0,3,-
BRDA:443,0,0,-
BRDA:443,0,1,-
BRDA:444,0,0,-
BRDA:444,0,1,-
BRDA:445,0,0,-
BRDA:445,0,1,-
BRDA:452,0,0,-
BRDA:452,0,1,-
BRDA:452,0,2,-
BRDA:452,0,3,-
BRDA:456,0,0,-
BRDA:456,0,1,-
BRDA:456,0,2,-
BRDA:456,0,3,-
BRDA:456,0,4,-
BRDA:456,0,5,-
BRDA:456,0,6,-
BRDA:456,0,7,-
BRDA:456,0,8,-
BRDA:456,0,9,-
BRDA:457,0,0,-
BRDA:457,0,1,-
BRDA:457,0,2,-
BRDA:457,0,3,-
BRDA:457,0,4,-
BRDA:457,0,5,-
BRDA:457,0,6,-
BRDA:457,0,7,-
BRDA:457,0,8,-
BRDA:457,0,9,-
BRDA:459,0,0,-
BRDA:459,0,1,-
BRDA:459,0,2,-
BRDA:459,0,3,-
BRDA:460,0,0,-
BRDA:460,0,1,-
BRDA:460,0,2,-
BRDA:460,0,3,-
BRDA:461,0,0,-
BRDA:461,0,1,-
BRDA:461,0,2,-
BRDA:461,0,3,-
BRF:478
BRH:0
DA:21,0
DA:22,0
DA:23,0
DA:25,0
DA:26,0
DA:30,0
DA:35,0
DA:37,0
DA:40,0
DA:41,0
DA:42,0
DA:44,0
DA:45,0
DA:46,0
DA:47,0
DA:48,0
DA:49,0
DA:51,0
DA:54,0
DA:57,0
DA:58,0
DA:59,0
DA:61,0
DA:62,0
DA:63,0
DA:65,0
DA:66,0
DA:68,0
DA:69,0
DA:70,0
DA:74,0
DA:76,0
DA:78,0
DA:82,0
DA:86,0
DA:88,0
DA:89,0
DA:90,0
DA:91,0
DA:92,0
DA:94,0
DA:95,0
DA:96,0
DA:97,0
DA:98,0
DA:99,0
DA:102,0
DA:103,0
DA:104,0
DA:105,0
DA:107,0
DA:108,0
DA:109,0
DA:110,0
DA:111,0
DA:112,0
DA:115,0
DA:116,0
DA:118,0
DA:119,0
DA:121,0
DA:123,0
DA:125,0
DA:127,0
DA:128,0
DA:129,0
DA:130,0
DA:131,0
DA:134,0
DA:136,0
DA:137,0
DA:138,0
DA:139,0
DA:140,0
DA:143,0
DA:145,0
DA:147,0
DA:148,0
DA:150,0
DA:151,0
DA:154,0
DA:155,0
DA:156,0
DA:158,0
DA:159,0
DA:160,0
DA:161,0
DA:164,0
DA:165,0
DA:166,0
DA:167,0
DA:171,0
DA:172,0
DA:174,0
DA:175,0
DA:176,0
DA:178,0
DA:180,0
DA:181,0
DA:182,0
DA:184,0
DA:187,0
DA:188,0
DA:189,0
DA:190,0
DA:191,0
DA:193,0
DA:194,0
DA:195,0
DA:198,0
DA:199,0
DA:200,0
DA:201,0
DA:202,0
DA:210,0
DA:211,0
DA:212,0
DA:213,0
DA:214,0
DA:216,0
DA:240,0
DA:242,0
DA:243,0
DA:244,0
DA:247,0
DA:251,0
DA:254,0
DA:256,0
DA:257,0
DA:258,0
DA:261,0
DA:262,0
DA:263,0
DA:264,0
DA:266,0
DA:269,0
DA:270,0
DA:271,0
DA:272,0
DA:274,0
DA:275,0
DA:276,0
DA:277,0
DA:278,0
DA:279,0
DA:280,0
DA:282,0
DA:283,0
DA:284,0
DA:285,0
DA:286,0
DA:287,0
DA:288,0
DA:290,0
DA:291,0
DA:293,0
DA:294,0
DA:295,0
DA:296,0
DA:298,0
DA:301,0
DA:302,0
DA:303,0
DA:304,0
DA:306,0
DA:307,0
DA:309,0
DA:310,0
DA:311,0
DA:313,0
DA:314,0
DA:316,0
DA:319,0
DA:321,0
DA:322,0
DA:323,0
DA:325,0
DA:326,0
DA:327,0
DA:328,0
DA:329,0
DA:331,0
DA:332,0
DA:333,0
DA:334,0
DA:335,0
DA:336,0
DA:337,0
DA:338,0
DA:339,0
DA:341,0
DA:342,0
DA:343,0
DA:344,0
DA:345,0
DA:346,0
DA:349,0
DA:350,0
DA:352,0
DA:353,0
DA:355,0
DA:356,0
DA:359,0
DA:360,0
DA:363,0
DA:364,0
DA:365,0
DA:368,0
DA:370,0
DA:376,0
DA:377,0
DA:378,0
DA:381,0
DA:382,0
DA:383,0
DA:384,0
DA:385,0
DA:387,0
DA:390,0
DA:392,0
DA:393,0
DA:395,0
DA:396,0
DA:397,0
DA:399,0
DA:402,0
DA:403,0
DA:405,0
DA:408,0
DA:409,0
DA:410,0
DA:411,0
DA:413,0
DA:414,0
DA:415,0
DA:418,0
DA:419,0
DA:422,0
DA:428,0
DA:429,0
DA:430,0
DA:432,0
DA:433,0
DA:435,0
DA:436,0
DA:439,0
DA:440,0
DA:442,0
DA:443,0
DA:444,0
DA:445,0
DA:446,0
DA:451,0
DA:452,0
DA:455,0
DA:456,0
DA:457,0
DA:458,0
DA:459,0
DA:460,0
DA:461,0
DA:462,0
DA:463,0
LF:263
LH:0
end_of_record
TN:
SF:/home/xucong/caicAD/01datainfra/Aurora/aurora-edge-runtime/src/data_collection/channel/channel_manager.cpp
FN:7,_ZN6aurora9collector14ChannelManager4InitERKSt10shared_ptrIN6rclcpp4NodeEERKNS0_14StrategyConfigE
FN:26,_ZN6aurora9collector14ChannelManager15InitSubscribersEv
FN:37,_ZZN6aurora9collector14ChannelManager15InitSubscribersEvENKUlRKSt10shared_ptrIN6rclcpp17SerializedMessageEEE_clES7_
FN:64,_ZN6aurora9collector14ChannelManager17OnMessageReceivedERKNSt7__cxx1112basic_stringIcSt11char_traitsIcESaIcEEERKN6rclcpp17SerializedMessageE
FN:69,_ZNK6aurora9collector14ChannelManager11AddObserverERKSt10shared_ptrINS0_8ObserverEE
FN:76,_ZNK6aurora9collector14ChannelManager14RemoveObserverERKSt10shared_ptrINS0_8ObserverEE
FN:83,_ZNK6aurora9collector14ChannelManager6NotifyERKNSt7__cxx1112basic_stringIcSt11char_traitsIcESaIcEEERKN6rclcpp17SerializedMessageE
FNDA:0,_ZN6aurora9collector14ChannelManager4InitERKSt10shared_ptrIN6rclcpp4NodeEERKNS0_14StrategyConfigE
FNDA:0,_ZNK6aurora9collector14ChannelManager14RemoveObserverERKSt10shared_ptrINS0_8ObserverEE
FNDA:0,_ZN6aurora9collector14ChannelManager15InitSubscribersEv
FNDA:0,_ZNK6aurora9collector14ChannelManager6NotifyERKNSt7__cxx1112basic_stringIcSt11char_traitsIcESaIcEEERKN6rclcpp17SerializedMessageE
FNDA:0,_ZNK6aurora9collector14ChannelManager11AddObserverERKSt10shared_ptrINS0_8ObserverEE
FNDA:0,_ZN6aurora9collector14ChannelManager17OnMessageReceivedERKNSt7__cxx1112basic_stringIcSt11char_traitsIcESaIcEEERKN6rclcpp17SerializedMessageE
FNDA:0,_ZZN6aurora9collector14ChannelManager15InitSubscribersEvENKUlRKSt10shared_ptrIN6rclcpp17SerializedMessageEEE_clES7_
FNF:7
FNH:0
BRDA:21,0,0,-
BRDA:21,0,1,-
BRDA:21,0,2,-
BRDA:21,0,3,-
BRDA:27,0,0,-
BRDA:27,0,1,-
BRDA:28,0,0,-
BRDA:28,0,1,-
BRDA:29,0,0,-
BRDA:29,0,1,-
BRDA:30,0,0,-
BRDA:30,0,1,-
BRDA:31,0,0,-
BRDA:31,0,1,-
BRDA:31,0,2,-
BRDA:31,0,3,-
BRDA:36,0,0,-
BRDA:36,0,1,-
BRDA:39,0,0,-
BRDA:39,0,1,-
BRDA:41,0,0,-
BRDA:41,0,1,-
BRDA:47,0,0,-
BRDA:47,0,1,-
BRDA:50,0,0,-
BRDA:50,0,1,-
BRDA:50,0,2,-
BRDA:50,0,3,-
BRDA:52,0,0,-
BRDA:52,0,1,-
BRDA:53,0,0,-
BRDA:53,0,1,-
BRDA:53,0,2,-
BRDA:53,0,3,-
BRDA:56,0,0,-
BRDA:56,0,1,-
BRDA:56,0,2,-
BRDA:56,0,3,-
BRDA:57,0,0,-
BRDA:57,0,1,-
BRDA:58,0,0,-
BRDA:58,0,1,-
BRDA:58,0,2,-
BRDA:58,0,3,-
BRDA:58,0,4,-
BRDA:58,0,5,-
BRDA:58,0,6,-
BRDA:58,0,7,-
BRDA:58,0,8,-
BRDA:58,0,9,-
BRDA:58,0,10,-
BRDA:66,0,0,-
BRDA:66,0,1,-
BRDA:71,0,0,-
BRDA:71,0,1,-
BRDA:72,0,0,-
BRDA:72,0,1,-
BRDA:78,0,0,-
BRDA:78,0,1,-
BRDA:85,0,0,-
BRDA:85,0,1,-
BRF:61
BRH:0
DA:7,0
DA:11,0
DA:12,0
DA:14,0
DA:17,0
DA:18,0
DA:20,0
DA:21,0
DA:23,0
DA:26,0
DA:27,0
DA:28,0
DA:29,0
DA:30,0
DA:31,0
DA:32,0
DA:36,0
DA:37,0
DA:38,0
DA:39,0
DA:41,0
DA:42,0
DA:44,0
DA:47,0
DA:50,0
DA:52,0
DA:53,0
DA:54,0
DA:56,0
DA:57,0
DA:58,0
DA:60,0
DA:64,0
DA:66,0
DA:67,0
DA:69,0
DA:71,0
DA:72,0
DA:74,0
DA:76,0
DA:78,0
DA:79,0
DA:81,0
DA:83,0
DA:85,0
DA:86,0
DA:88,0
LF:47
LH:0
end_of_record
TN:
SF:/home/xucong/caicAD/01datainfra/Aurora/aurora-edge-runtime/src/data_collection/channel/channel_manager.h
FN:15,_ZN6aurora9collector14ChannelManagerC2Ev
FN:16,_ZN6aurora9collector14ChannelManagerD2Ev
FN:16,_ZN6aurora9collector14ChannelManagerD0Ev
FNDA:0,_ZN6aurora9collector14ChannelManagerD2Ev
FNDA:0,_ZN6aurora9collector14ChannelManagerC2Ev
FNDA:0,_ZN6aurora9collector14ChannelManagerD0Ev
FNF:3
FNH:0
DA:15,0
DA:16,0
LF:2
LH:0
end_of_record
TN:
SF:/home/xucong/caicAD/01datainfra/Aurora/aurora-edge-runtime/src/data_collection/channel/message_provider.cpp
FN:7,_ZN6aurora9collector15MessageProvider17OnMessageReceivedERKNSt7__cxx1112basic_stringIcSt11char_traitsIcESaIcEEERKN6rclcpp17SerializedMessageE
FNDA:0,_ZN6aurora9collector15MessageProvider17OnMessageReceivedERKNSt7__cxx1112basic_stringIcSt11char_traitsIcESaIcEEERKN6rclcpp17SerializedMessageE
FNF:1
FNH:0
BRDA:10,0,0,-
BRDA:10,0,1,-
BRDA:12,0,0,-
BRDA:12,0,1,-
BRDA:13,0,0,-
BRDA:13,0,1,-
BRDA:14,0,0,-
BRDA:14,0,1,-
BRDA:16,0,0,-
BRDA:16,0,1,-
BRDA:17,0,0,-
BRDA:17,0,1,-
BRDA:19,0,0,-
BRDA:19,0,1,-
BRDA:20,0,0,-
BRDA:20,0,1,-
BRF:16
BRH:0
DA:7,0
DA:10,0
DA:12,0
DA:13,0
DA:14,0
DA:16,0
DA:17,0
DA:19,0
DA:20,0
DA:22,0
LF:10
LH:0
end_of_record
TN:
SF:/home/xucong/caicAD/01datainfra/Aurora/aurora-edge-runtime/src/data_collection/channel/message_provider.h
FN:13,_ZN6aurora9collector15MessageProviderD0Ev
FN:13,_ZN6aurora9collector15MessageProviderD2Ev
FNDA:0,_ZN6aurora9collector15MessageProviderD2Ev
FNDA:0,_ZN6aurora9collector15MessageProviderD0Ev
FNF:2
FNH:0
DA:13,0
LF:1
LH:0
end_of_record
TN:
SF:/home/xucong/caicAD/01datainfra/Aurora/aurora-edge-runtime/src/data_collection/channel/observer.h
FN:26,_ZN6aurora9collector8ObserverD2Ev
FN:26,_ZN6aurora9collector8ObserverD0Ev
FN:33,_ZN6aurora9collector7SubjectD0Ev
FN:33,_ZN6aurora9collector7SubjectD2Ev
FN:35,_ZN6aurora9collector7Subject11addObserverESt10shared_ptrINS0_8ObserverEE
FN:40,_ZN6aurora9collector7Subject14removeObserverERKSt10shared_ptrINS0_8ObserverEE
FN:47,_ZNK6aurora9collector7Subject9notifyAllERKNSt7__cxx1112basic_stringIcSt11char_traitsIcESaIcEEERKN6rclcpp17SerializedMessageE
FNDA:0,_ZNK6aurora9collector7Subject9notifyAllERKNSt7__cxx1112basic_stringIcSt11char_traitsIcESaIcEEERKN6rclcpp17SerializedMessageE
FNDA:0,_ZN6aurora9collector8ObserverD0Ev
FNDA:0,_ZN6aurora9collector7Subject11addObserverESt10shared_ptrINS0_8ObserverEE
FNDA:0,_ZN6aurora9collector7SubjectD2Ev
FNDA:0,_ZN6aurora9collector8ObserverD2Ev
FNDA:0,_ZN6aurora9collector7SubjectD0Ev
FNDA:0,_ZN6aurora9collector7Subject14removeObserverERKSt10shared_ptrINS0_8ObserverEE
FNF:7
FNH:0
BRDA:41,0,0,-
BRDA:41,0,1,-
BRDA:42,0,0,-
BRDA:42,0,1,-
BRDA:43,0,0,-
BRDA:43,0,1,-
BRDA:49,0,0,-
BRDA:49,0,1,-
BRDA:50,0,0,-
BRDA:50,0,1,-
BRF:10
BRH:0
DA:26,0
DA:33,0
DA:35,0
DA:36,0
DA:37,0
DA:40,0
DA:41,0
DA:42,0
DA:43,0
DA:45,0
DA:47,0
DA:49,0
DA:50,0
DA:52,0
LF:14
LH:0
end_of_record
TN:
SF:/home/xucong/caicAD/01datainfra/Aurora/aurora-edge-runtime/src/data_collection/collection_feedback.cpp
FN:10,_ZN6aurora9collector18CollectionFeedbackC2Ev
FN:34,_ZN6aurora9collector18CollectionFeedback22submitCollectionResultERKNS0_16CollectionResultE
FN:97,_ZNK6aurora9collector18CollectionFeedback13computeRewardERKNS0_16CollectionResultE
FN:141,_ZNK6aurora9collector18CollectionFeedback24detectEnvironmentChangesERKNS0_16CollectionResultE
FN:185,_ZNK6aurora9collector18CollectionFeedback16generateMetadataERKNS0_16CollectionResultEdRKSt6vectorINS0_17EnvironmentChangeESaIS6_EERKS5_IdSaIdEESE_SE_
FN:233,_ZN6aurora9collector18CollectionFeedback20setCurrentExperienceERKSt6vectorIdSaIdEES6_
FN:241,_ZNK6aurora9collector18CollectionFeedback12shouldReplanERKNS0_16CollectionResultERKSt6vectorINS0_17EnvironmentChangeESaIS6_EE
FN:280,_ZN6aurora9collector18CollectionFeedback17uploadExperiencesEv
FN:305,_ZN6aurora9collector18CollectionFeedback16setRewardWeightsEddddd
FN:319,_ZN6aurora9collector18CollectionFeedback19setReplanThresholdsEddd
FN:331,_ZNK6aurora9collector18CollectionFeedback8hashPathERKSt6vectorI5PointSaIS3_EE
FNDA:0,_ZNK6aurora9collector18CollectionFeedback24detectEnvironmentChangesERKNS0_16CollectionResultE
FNDA:0,_ZN6aurora9collector18CollectionFeedbackC2Ev
FNDA:0,_ZN6aurora9collector18CollectionFeedback22submitCollectionResultERKNS0_16CollectionResultE
FNDA:0,_ZN6aurora9collector18CollectionFeedback17uploadExperiencesEv
FNDA:0,_ZNK6aurora9collector18CollectionFeedback8hashPathERKSt6vectorI5PointSaIS3_EE
FNDA:0,_ZNK6aurora9collector18CollectionFeedback16generateMetadataERKNS0_16CollectionResultEdRKSt6vectorINS0_17EnvironmentChangeESaIS6_EERKS5_IdSaIdEESE_SE_
FNDA:0,_ZN6aurora9collector18CollectionFeedback16setRewardWeightsEddddd
FNDA:0,_ZNK6aurora9collector18CollectionFeedback13computeRewardERKNS0_16CollectionResultE
FNDA:0,_ZNK6aurora9collector18CollectionFeedback12shouldReplanERKNS0_16CollectionResultERKSt6vectorINS0_17EnvironmentChangeESaIS6_EE
FNDA:0,_ZN6aurora9collector18CollectionFeedback19setReplanThresholdsEddd
FNDA:0,_ZN6aurora9collector18CollectionFeedback20setCurrentExperienceERKSt6vectorIdSaIdEES6_
FNF:11
FNH:0
BRDA:14,0,0,-
BRDA:14,0,1,-
BRDA:28,0,0,-
BRDA:28,0,1,-
BRDA:30,0,0,-
BRDA:30,0,1,-
BRDA:30,0,2,-
BRDA:30,0,3,-
BRDA:35,0,0,-
BRDA:35,0,1,-
BRDA:35,0,2,-
BRDA:35,0,3,-
BRDA:39,0,0,-
BRDA:39,0,1,-
BRDA:40,0,0,-
BRDA:40,0,1,-
BRDA:40,0,2,-
BRDA:40,0,3,-
BRDA:50,0,0,-
BRDA:50,0,1,-
BRDA:51,0,0,-
BRDA:51,0,1,-
BRDA:52,0,0,-
BRDA:52,0,1,-
BRDA:56,0,0,-
BRDA:56,0,1,-
BRDA:57,0,0,-
BRDA:57,0,1,-
BRDA:58,0,0,-
BRDA:58,0,1,-
BRDA:58,0,2,-
BRDA:58,0,3,-
BRDA:66,0,0,-
BRDA:66,0,1,-
BRDA:73,0,0,-
BRDA:73,0,1,-
BRDA:74,0,0,-
BRDA:74,0,1,-
BRDA:74,0,2,-
BRDA:74,0,3,-
BRDA:78,0,0,-
BRDA:78,0,1,-
BRDA:79,0,0,-
BRDA:79,0,1,-
BRDA:79,0,2,-
BRDA:79,0,3,-
BRDA:80,0,0,-
BRDA:80,0,1,-
BRDA:84,0,0,-
BRDA:84,0,1,-
BRDA:84,0,2,-
BRDA:84,0,3,-
BRDA:88,0,0,-
BRDA:88,0,1,-
BRDA:88,0,2,-
BRDA:88,0,3,-
BRDA:88,0,4,-
BRDA:88,0,5,-
BRDA:89,0,0,-
BRDA:89,0,1,-
BRDA:90,0,0,-
BRDA:90,0,1,-
BRDA:90,0,2,-
BRDA:90,0,3,-
BRDA:110,0,0,-
BRDA:110,0,1,-
BRDA:122,0,0,-
BRDA:122,0,1,-
BRDA:132,0,0,-
BRDA:132,0,1,-
BRDA:147,0,0,-
BRDA:147,0,1,-
BRDA:148,0,0,-
BRDA:148,0,1,-
BRDA:152,0,0,-
BRDA:152,0,1,-
BRDA:153,0,0,-
BRDA:153,0,1,-
BRDA:157,0,0,-
BRDA:157,0,1,-
BRDA:157,0,2,-
BRDA:157,0,3,-
BRDA:160,0,0,-
BRDA:160,0,1,-
BRDA:161,0,0,-
BRDA:161,0,1,-
BRDA:165,0,0,-
BRDA:165,0,1,-
BRDA:167,0,0,-
BRDA:167,0,1,-
BRDA:169,0,0,-
BRDA:169,0,1,-
BRDA:170,0,0,-
BRDA:170,0,1,-
BRDA:178,0,0,-
BRDA:178,0,1,-
BRDA:195,0,0,-
BRDA:195,0,1,-
BRDA:196,0,0,-
BRDA:196,0,1,-
BRDA:197,0,0,-
BRDA:197,0,1,-
BRDA:199,0,0,-
BRDA:199,0,1,-
BRDA:202,0,0,-
BRDA:202,0,1,-
BRDA:206,0,0,-
BRDA:206,0,1,-
BRDA:207,0,0,-
BRDA:207,0,1,-
BRDA:211,0,0,-
BRDA:211,0,1,-
BRDA:212,0,0,-
BRDA:212,0,1,-
BRDA:213,0,0,-
BRDA:213,0,1,-
BRDA:215,0,0,-
BRDA:215,0,1,-
BRDA:222,0,0,-
BRDA:222,0,1,-
BRDA:246,0,0,-
BRDA:246,0,1,-
BRDA:247,0,0,-
BRDA:247,0,1,-
BRDA:248,0,0,-
BRDA:248,0,1,-
BRDA:248,0,2,-
BRDA:248,0,3,-
BRDA:255,0,0,-
BRDA:255,0,1,-
BRDA:259,0,0,-
BRDA:259,0,1,-
BRDA:260,0,0,-
BRDA:260,0,1,-
BRDA:261,0,0,-
BRDA:261,0,1,-
BRDA:268,0,0,-
BRDA:268,0,1,-
BRDA:270,0,0,-
BRDA:270,0,1,-
BRDA:271,0,0,-
BRDA:271,0,1,-
BRDA:281,0,0,-
BRDA:281,0,1,-
BRDA:282,0,0,-
BRDA:282,0,1,-
BRDA:282,0,2,-
BRDA:282,0,3,-
BRDA:287,0,0,-
BRDA:287,0,1,-
BRDA:289,0,0,-
BRDA:289,0,1,-
BRDA:289,0,2,-
BRDA:289,0,3,-
BRDA:293,0,0,-
BRDA:293,0,1,-
BRDA:294,0,0,-
BRDA:294,0,1,-
BRDA:296,0,0,-
BRDA:296,0,1,-
BRDA:296,0,2,-
BRDA:296,0,3,-
BRDA:298,0,0,-
BRDA:298,0,1,-
BRDA:298,0,2,-
BRDA:298,0,3,-
BRDA:314,0,0,-
BRDA:314,0,1,-
BRDA:326,0,0,-
BRDA:326,0,1,-
BRDA:334,0,0,-
BRDA:334,0,1,-
BRF:172
BRH:0
DA:10,0
DA:11,0
DA:12,0
DA:13,0
DA:14,0
DA:17,0
DA:18,0
DA:19,0
DA:20,0
DA:21,0
DA:24,0
DA:25,0
DA:26,0
DA:28,0
DA:30,0
DA:32,0
DA:34,0
DA:35,0
DA:39,0
DA:40,0
DA:43,0
DA:44,0
DA:45,0
DA:46,0
DA:47,0
DA:50,0
DA:51,0
DA:52,0
DA:56,0
DA:57,0
DA:58,0
DA:64,0
DA:65,0
DA:66,0
DA:73,0
DA:74,0
DA:78,0
DA:79,0
DA:80,0
DA:84,0
DA:85,0
DA:88,0
DA:89,0
DA:90,0
DA:94,0
DA:95,0
DA:97,0
DA:98,0
DA:101,0
DA:102,0
DA:105,0
DA:106,0
DA:109,0
DA:110,0
DA:111,0
DA:112,0
DA:114,0
DA:117,0
DA:118,0
DA:121,0
DA:122,0
DA:124,0
DA:126,0
DA:128,0
DA:131,0
DA:132,0
DA:133,0
DA:134,0
DA:136,0
DA:138,0
DA:141,0
DA:144,0
DA:147,0
DA:148,0
DA:152,0
DA:153,0
DA:157,0
DA:159,0
DA:160,0
DA:161,0
DA:165,0
DA:166,0
DA:167,0
DA:168,0
DA:169,0
DA:170,0
DA:171,0
DA:172,0
DA:174,0
DA:175,0
DA:177,0
DA:178,0
DA:182,0
DA:183,0
DA:185,0
DA:192,0
DA:195,0
DA:196,0
DA:197,0
DA:199,0
DA:200,0
DA:201,0
DA:202,0
DA:203,0
DA:206,0
DA:207,0
DA:211,0
DA:212,0
DA:213,0
DA:215,0
DA:219,0
DA:222,0
DA:223,0
DA:224,0
DA:228,0
DA:230,0
DA:231,0
DA:233,0
DA:236,0
DA:237,0
DA:238,0
DA:239,0
DA:241,0
DA:246,0
DA:247,0
DA:248,0
DA:250,0
DA:255,0
DA:256,0
DA:257,0
DA:259,0
DA:260,0
DA:261,0
DA:263,0
DA:268,0
DA:269,0
DA:270,0
DA:271,0
DA:273,0
DA:277,0
DA:280,0
DA:281,0
DA:282,0
DA:283,0
DA:287,0
DA:289,0
DA:293,0
DA:294,0
DA:295,0
DA:296,0
DA:298,0
DA:302,0
DA:303,0
DA:305,0
DA:308,0
DA:309,0
DA:310,0
DA:311,0
DA:312,0
DA:314,0
DA:317,0
DA:319,0
DA:322,0
DA:323,0
DA:324,0
DA:326,0
DA:329,0
DA:331,0
DA:333,0
DA:334,0
DA:336,0
DA:337,0
DA:338,0
DA:340,0
LF:174
LH:0
end_of_record
TN:
SF:/home/xucong/caicAD/01datainfra/Aurora/aurora-edge-runtime/src/data_collection/collection_feedback.h
FN:46,_ZN6aurora9collector16CollectionResultC2Ev
FN:76,_ZN6aurora9collector17EnvironmentChangeC2ENS1_10ChangeTypeE5Pointdm
FN:113,_ZN6aurora9collector18ExperienceMetadataC2Ev
FN:118,_ZN6aurora9collector18ExperienceMetadata8quantizeEf
FN:129,_ZN6aurora9collector18ExperienceMetadata8setStateERKSt6vectorIdSaIdEE
FN:138,_ZN6aurora9collector18ExperienceMetadata12setNextStateERKSt6vectorIdSaIdEE
FN:148,_ZN6aurora9collector18ExperienceMetadata9setActionERKSt6vectorIdSaIdEE
FN:206,_ZN6aurora9collector18CollectionFeedbackD2Ev
FN:303,_ZN6aurora9collector18CollectionFeedback17setReplanCallbackESt8functionIFvRKNS0_17EnvironmentChangeEEE
FN:308,_ZN6aurora9collector18CollectionFeedback17setUploadCallbackESt8functionIFvRKSt6vectorINS0_18ExperienceMetadataESaIS4_EEEE
FN:348,_ZN6aurora9collector18CollectionFeedback11RewardStatsC2Ev
FN:352,_ZNK6aurora9collector18CollectionFeedback14getRewardStatsEv
FNDA:0,_ZN6aurora9collector18CollectionFeedback17setUploadCallbackESt8functionIFvRKSt6vectorINS0_18ExperienceMetadataESaIS4_EEEE
FNDA:0,_ZN6aurora9collector17EnvironmentChangeC2ENS1_10ChangeTypeE5Pointdm
FNDA:0,_ZN6aurora9collector18CollectionFeedback11RewardStatsC2Ev
FNDA:0,_ZN6aurora9collector18CollectionFeedbackD2Ev
FNDA:0,_ZN6aurora9collector18CollectionFeedback17setReplanCallbackESt8functionIFvRKNS0_17EnvironmentChangeEEE
FNDA:0,_ZN6aurora9collector18ExperienceMetadata9setActionERKSt6vectorIdSaIdEE
FNDA:0,_ZN6aurora9collector18ExperienceMetadata8setStateERKSt6vectorIdSaIdEE
FNDA:0,_ZNK6aurora9collector18CollectionFeedback14getRewardStatsEv
FNDA:0,_ZN6aurora9collector16CollectionResultC2Ev
FNDA:0,_ZN6aurora9collector18ExperienceMetadata8quantizeEf
FNDA:0,_ZN6aurora9collector18ExperienceMetadataC2Ev
FNDA:0,_ZN6aurora9collector18ExperienceMetadata12setNextStateERKSt6vectorIdSaIdEE
FNF:12
FNH:0
BRDA:132,0,0,-
BRDA:132,0,1,-
BRDA:142,0,0,-
BRDA:142,0,1,-
BRDA:151,0,0,-
BRDA:151,0,1,-
BRF:6
BRH:0
DA:46,0
DA:47,0
DA:48,0
DA:49,0
DA:50,0
DA:51,0
DA:52,0
DA:53,0
DA:54,0
DA:55,0
DA:76,0
DA:78,0
DA:113,0
DA:114,0
DA:115,0
DA:118,0
DA:119,0
DA:120,0
DA:129,0
DA:130,0
DA:131,0
DA:132,0
DA:133,0
DA:135,0
DA:138,0
DA:139,0
DA:140,0
DA:142,0
DA:143,0
DA:145,0
DA:148,0
DA:149,0
DA:150,0
DA:151,0
DA:152,0
DA:154,0
DA:206,0
DA:303,0
DA:308,0
DA:348,0
DA:349,0
DA:352,0
LF:42
LH:0
end_of_record
TN:
SF:/home/xucong/caicAD/01datainfra/Aurora/aurora-edge-runtime/src/data_collection/common/app_config.cpp
FN:20,_ZN12_GLOBAL__N_113expandEnvVarsERKNSt7__cxx1112basic_stringIcSt11char_traitsIcESaIcEEE
FN:57,_ZN12_GLOBAL__N_119expandEnvVarsInJsonERN8nlohmann10basic_jsonISt3mapSt6vectorNSt7__cxx1112basic_stringIcSt11char_traitsIcESaIcEEEblmdSaNS0_14adl_serializerEEE
FN:75,_ZN6aurora9collector9AppConfig11getInstanceEv
FN:80,_ZN6aurora9collector9AppConfig4InitERKNSt7__cxx1112basic_stringIcSt11char_traitsIcESaIcEEE
FN:108,_ZZN6aurora9collector9AppConfig4InitERKNSt7__cxx1112basic_stringIcSt11char_traitsIcESaIcEEEENKUlRKN8nlohmann10basic_jsonISt3mapSt6vectorS7_blmdSaNSA_14adl_serializerEEES9_iiiE_clESH_S9_iii
FN:188,_ZNK6aurora9collector9AppConfig9GetConfigEv
FN:192,_ZN6aurora9collector9AppConfig10CheckValidERKNSt7__cxx1112basic_stringIcSt11char_traitsIcESaIcEEE
FN:202,_ZNK6aurora9collector9AppConfig15checkFileExistsERKNSt7__cxx1112basic_stringIcSt11char_traitsIcESaIcEEE
FN:206,_ZNK6aurora9collector9AppConfig15checkJsonFormatERKN8nlohmann10basic_jsonISt3mapSt6vectorNSt7__cxx1112basic_stringIcSt11char_traitsIcESaIcEEEblmdSaNS2_14adl_serializerEEE
FNDA:0,_ZN6aurora9collector9AppConfig4InitERKNSt7__cxx1112basic_stringIcSt11char_traitsIcESaIcEEE
FNDA:0,_ZN12_GLOBAL__N_113expandEnvVarsERKNSt7__cxx1112basic_stringIcSt11char_traitsIcESaIcEEE
FNDA:0,_ZN6aurora9collector9AppConfig10CheckValidERKNSt7__cxx1112basic_stringIcSt11char_traitsIcESaIcEEE
FNDA:0,_ZNK6aurora9collector9AppConfig15checkJsonFormatERKN8nlohmann10basic_jsonISt3mapSt6vectorNSt7__cxx1112basic_stringIcSt11char_traitsIcESaIcEEEblmdSaNS2_14adl_serializerEEE
FNDA:0,_ZNK6aurora9collector9AppConfig9GetConfigEv
FNDA:0,_ZN12_GLOBAL__N_119expandEnvVarsInJsonERN8nlohmann10basic_jsonISt3mapSt6vectorNSt7__cxx1112basic_stringIcSt11char_traitsIcESaIcEEEblmdSaNS0_14adl_serializerEEE
FNDA:0,_ZN6aurora9collector9AppConfig11getInstanceEv
FNDA:0,_ZZN6aurora9collector9AppConfig4InitERKNSt7__cxx1112basic_stringIcSt11char_traitsIcESaIcEEEENKUlRKN8nlohmann10basic_jsonISt3mapSt6vectorS7_blmdSaNSA_14adl_serializerEEES9_iiiE_clESH_S9_iii
FNDA:0,_ZNK6aurora9collector9AppConfig15checkFileExistsERKNSt7__cxx1112basic_stringIcSt11char_traitsIcESaIcEEE
FNF:9
FNH:0
BRDA:21,0,0,-
BRDA:21,0,1,-
BRDA:21,0,2,-
BRDA:21,0,3,-
BRDA:21,0,4,-
BRDA:21,0,5,-
BRDA:21,0,6,-
BRDA:21,0,7,-
BRDA:22,0,0,-
BRDA:22,0,1,-
BRDA:26,0,0,-
BRDA:26,0,1,-
BRDA:26,0,2,-
BRDA:26,0,3,-
BRDA:27,0,0,-
BRDA:27,0,1,-
BRDA:27,0,2,-
BRDA:27,0,3,-
BRDA:28,0,0,-
BRDA:28,0,1,-
BRDA:28,0,2,-
BRDA:28,0,3,-
BRDA:34,0,0,-
BRDA:34,0,1,-
BRDA:35,0,0,-
BRDA:35,0,1,-
BRDA:36,0,0,-
BRDA:36,0,1,-
BRDA:38,0,0,-
BRDA:38,0,1,-
BRDA:42,0,0,-
BRDA:42,0,1,-
BRDA:42,0,2,-
BRDA:42,0,3,-
BRDA:42,0,4,-
BRDA:42,0,5,-
BRDA:42,0,6,-
BRDA:42,0,7,-
BRDA:42,0,8,-
BRDA:42,0,9,-
BRDA:44,0,0,-
BRDA:44,0,1,-
BRDA:44,0,2,-
BRDA:44,0,3,-
BRDA:44,0,4,-
BRDA:44,0,5,-
BRDA:44,0,6,-
BRDA:44,0,7,-
BRDA:44,0,8,-
BRDA:44,0,9,-
BRDA:44,0,10,-
BRDA:44,0,11,-
BRDA:47,0,0,-
BRDA:47,0,1,-
BRDA:58,0,0,-
BRDA:58,0,1,-
BRDA:59,0,0,-
BRDA:59,0,1,-
BRDA:59,0,2,-
BRDA:59,0,3,-
BRDA:60,0,0,-
BRDA:60,0,1,-
BRDA:61,0,0,-
BRDA:61,0,1,-
BRDA:61,0,2,-
BRDA:61,0,3,-
BRDA:61,0,4,-
BRDA:61,0,5,-
BRDA:61,0,6,-
BRDA:61,0,7,-
BRDA:61,0,8,-
BRDA:61,0,9,-
BRDA:62,0,0,-
BRDA:62,0,1,-
BRDA:64,0,0,-
BRDA:64,0,1,-
BRDA:65,0,0,-
BRDA:65,0,1,-
BRDA:65,0,2,-
BRDA:65,0,3,-
BRDA:65,0,4,-
BRDA:65,0,5,-
BRDA:65,0,6,-
BRDA:65,0,7,-
BRDA:66,0,0,-
BRDA:66,0,1,-
BRDA:76,0,0,-
BRDA:76,0,1,-
BRDA:76,0,2,-
BRDA:76,0,3,-
BRDA:81,0,0,-
BRDA:81,0,1,-
BRDA:81,0,2,-
BRDA:81,0,3,-
BRDA:82,0,0,-
BRDA:82,0,1,-
BRDA:82,0,2,-
BRDA:82,0,3,-
BRDA:86,0,0,-
BRDA:86,0,1,-
BRDA:87,0,0,-
BRDA:87,0,1,-
BRDA:87,0,2,-
BRDA:87,0,3,-
BRDA:88,0,0,-
BRDA:88,0,1,-
BRDA:88,0,2,-
BRDA:88,0,3,-
BRDA:92,0,0,-
BRDA:92,0,1,-
BRDA:93,0,0,-
BRDA:93,0,1,-
BRDA:95,0,0,-
BRDA:95,0,1,-
BRDA:95,0,2,-
BRDA:95,0,3,-
BRDA:96,0,0,-
BRDA:96,0,1,-
BRDA:96,0,2,-
BRDA:96,0,3,-
BRDA:100,0,0,-
BRDA:100,0,1,-
BRDA:100,0,2,-
BRDA:100,0,3,-
BRDA:102,0,0,-
BRDA:102,0,1,-
BRDA:102,0,2,-
BRDA:102,0,3,-
BRDA:105,0,0,-
BRDA:105,0,1,-
BRDA:111,0,0,-
BRDA:111,0,1,-
BRDA:111,0,2,-
BRDA:111,0,3,-
BRDA:111,0,4,-
BRDA:111,0,5,-
BRDA:113,0,0,-
BRDA:113,0,1,-
BRDA:113,0,2,-
BRDA:113,0,3,-
BRDA:123,0,0,-
BRDA:123,0,1,-
BRDA:123,0,2,-
BRDA:123,0,3,-
BRDA:123,0,4,-
BRDA:123,0,5,-
BRDA:124,0,0,-
BRDA:124,0,1,-
BRDA:124,0,2,-
BRDA:124,0,3,-
BRDA:124,0,4,-
BRDA:124,0,5,-
BRDA:125,0,0,-
BRDA:125,0,1,-
BRDA:125,0,2,-
BRDA:125,0,3,-
BRDA:125,0,4,-
BRDA:125,0,5,-
BRDA:126,0,0,-
BRDA:126,0,1,-
BRDA:126,0,2,-
BRDA:126,0,3,-
BRDA:126,0,4,-
BRDA:126,0,5,-
BRDA:127,0,0,-
BRDA:127,0,1,-
BRDA:127,0,2,-
BRDA:127,0,3,-
BRDA:127,0,4,-
BRDA:127,0,5,-
BRDA:128,0,0,-
BRDA:128,0,1,-
BRDA:128,0,2,-
BRDA:128,0,3,-
BRDA:128,0,4,-
BRDA:128,0,5,-
BRDA:128,0,6,-
BRDA:128,0,7,-
BRDA:128,0,8,-
BRDA:128,0,9,-
BRDA:128,0,10,-
BRDA:128,0,11,-
BRDA:129,0,0,-
BRDA:129,0,1,-
BRDA:129,0,2,-
BRDA:129,0,3,-
BRDA:129,0,4,-
BRDA:129,0,5,-
BRDA:129,0,6,-
BRDA:129,0,7,-
BRDA:129,0,8,-
BRDA:129,0,9,-
BRDA:129,0,10,-
BRDA:129,0,11,-
BRDA:132,0,0,-
BRDA:132,0,1,-
BRDA:132,0,2,-
BRDA:132,0,3,-
BRDA:132,0,4,-
BRDA:132,0,5,-
BRDA:133,0,0,-
BRDA:133,0,1,-
BRDA:133,0,2,-
BRDA:133,0,3,-
BRDA:133,0,4,-
BRDA:133,0,5,-
BRDA:134,0,0,-
BRDA:134,0,1,-
BRDA:134,0,2,-
BRDA:134,0,3,-
BRDA:134,0,4,-
BRDA:134,0,5,-
BRDA:135,0,0,-
BRDA:135,0,1,-
BRDA:135,0,2,-
BRDA:135,0,3,-
BRDA:135,0,4,-
BRDA:135,0,5,-
BRDA:136,0,0,-
BRDA:136,0,1,-
BRDA:136,0,2,-
BRDA:136,0,3,-
BRDA:136,0,4,-
BRDA:136,0,5,-
BRDA:137,0,0,-
BRDA:137,0,1,-
BRDA:137,0,2,-
BRDA:137,0,3,-
BRDA:137,0,4,-
BRDA:137,0,5,-
BRDA:137,0,6,-
BRDA:137,0,7,-
BRDA:138,0,0,-
BRDA:138,0,1,-
BRDA:138,0,2,-
BRDA:138,0,3,-
BRDA:138,0,4,-
BRDA:138,0,5,-
BRDA:138,0,6,-
BRDA:138,0,7,-
BRDA:139,0,0,-
BRDA:139,0,1,-
BRDA:139,0,2,-
BRDA:139,0,3,-
BRDA:139,0,4,-
BRDA:139,0,5,-
BRDA:139,0,6,-
BRDA:139,0,7,-
BRDA:140,0,0,-
BRDA:140,0,1,-
BRDA:140,0,2,-
BRDA:140,0,3,-
BRDA:140,0,4,-
BRDA:140,0,5,-
BRDA:140,0,6,-
BRDA:140,0,7,-
BRDA:141,0,0,-
BRDA:141,0,1,-
BRDA:141,0,2,-
BRDA:141,0,3,-
BRDA:141,0,4,-
BRDA:141,0,5,-
BRDA:141,0,6,-
BRDA:141,0,7,-
BRDA:142,0,0,-
BRDA:142,0,1,-
BRDA:142,0,2,-
BRDA:142,0,3,-
BRDA:142,0,4,-
BRDA:142,0,5,-
BRDA:142,0,6,-
BRDA:142,0,7,-
BRDA:145,0,0,-
BRDA:145,0,1,-
BRDA:145,0,2,-
BRDA:145,0,3,-
BRDA:145,0,4,-
BRDA:145,0,5,-
BRDA:146,0,0,-
BRDA:146,0,1,-
BRDA:146,0,2,-
BRDA:146,0,3,-
BRDA:146,0,4,-
BRDA:146,0,5,-
BRDA:147,0,0,-
BRDA:147,0,1,-
BRDA:147,0,2,-
BRDA:147,0,3,-
BRDA:147,0,4,-
BRDA:147,0,5,-
BRDA:148,0,0,-
BRDA:148,0,1,-
BRDA:148,0,2,-
BRDA:148,0,3,-
BRDA:148,0,4,-
BRDA:148,0,5,-
BRDA:149,0,0,-
BRDA:149,0,1,-
BRDA:149,0,2,-
BRDA:149,0,3,-
BRDA:149,0,4,-
BRDA:149,0,5,-
BRDA:150,0,0,-
BRDA:150,0,1,-
BRDA:150,0,2,-
BRDA:150,0,3,-
BRDA:150,0,4,-
BRDA:150,0,5,-
BRDA:151,0,0,-
BRDA:151,0,1,-
BRDA:151,0,2,-
BRDA:151,0,3,-
BRDA:151,0,4,-
BRDA:151,0,5,-
BRDA:152,0,0,-
BRDA:152,0,1,-
BRDA:152,0,2,-
BRDA:152,0,3,-
BRDA:152,0,4,-
BRDA:152,0,5,-
BRDA:153,0,0,-
BRDA:153,0,1,-
BRDA:153,0,2,-
BRDA:153,0,3,-
BRDA:153,0,4,-
BRDA:153,0,5,-
BRDA:154,0,0,-
BRDA:154,0,1,-
BRDA:154,0,2,-
BRDA:154,0,3,-
BRDA:154,0,4,-
BRDA:154,0,5,-
BRDA:155,0,0,-
BRDA:155,0,1,-
BRDA:155,0,2,-
BRDA:155,0,3,-
BRDA:155,0,4,-
BRDA:155,0,5,-
BRDA:156,0,0,-
BRDA:156,0,1,-
BRDA:156,0,2,-
BRDA:156,0,3,-
BRDA:156,0,4,-
BRDA:156,0,5,-
BRDA:156,0,6,-
BRDA:156,0,7,-
BRDA:157,0,0,-
BRDA:157,0,1,-
BRDA:157,0,2,-
BRDA:157,0,3,-
BRDA:157,0,4,-
BRDA:157,0,5,-
BRDA:158,0,0,-
BRDA:158,0,1,-
BRDA:158,0,2,-
BRDA:158,0,3,-
BRDA:158,0,4,-
BRDA:158,0,5,-
BRDA:158,0,6,-
BRDA:158,0,7,-
BRDA:159,0,0,-
BRDA:159,0,1,-
BRDA:159,0,2,-
BRDA:159,0,3,-
BRDA:159,0,4,-
BRDA:159,0,5,-
BRDA:159,0,6,-
BRDA:159,0,7,-
BRDA:162,0,0,-
BRDA:162,0,1,-
BRDA:162,0,2,-
BRDA:162,0,3,-
BRDA:162,0,4,-
BRDA:162,0,5,-
BRDA:162,0,6,-
BRDA:162,0,7,-
BRDA:163,0,0,-
BRDA:163,0,1,-
BRDA:163,0,2,-
BRDA:163,0,3,-
BRDA:163,0,4,-
BRDA:163,0,5,-
BRDA:163,0,6,-
BRDA:163,0,7,-
BRDA:164,0,0,-
BRDA:164,0,1,-
BRDA:164,0,2,-
BRDA:164,0,3,-
BRDA:164,0,4,-
BRDA:164,0,5,-
BRDA:164,0,6,-
BRDA:164,0,7,-
BRDA:165,0,0,-
BRDA:165,0,1,-
BRDA:165,0,2,-
BRDA:165,0,3,-
BRDA:165,0,4,-
BRDA:165,0,5,-
BRDA:165,0,6,-
BRDA:165,0,7,-
BRDA:166,0,0,-
BRDA:166,0,1,-
BRDA:166,0,2,-
BRDA:166,0,3,-
BRDA:166,0,4,-
BRDA:166,0,5,-
BRDA:166,0,6,-
BRDA:166,0,7,-
BRDA:167,0,0,-
BRDA:167,0,1,-
BRDA:167,0,2,-
BRDA:167,0,3,-
BRDA:167,0,4,-
BRDA:167,0,5,-
BRDA:167,0,6,-
BRDA:167,0,7,-
BRDA:170,0,0,-
BRDA:170,0,1,-
BRDA:170,0,2,-
BRDA:170,0,3,-
BRDA:170,0,4,-
BRDA:170,0,5,-
BRDA:171,0,0,-
BRDA:171,0,1,-
BRDA:171,0,2,-
BRDA:171,0,3,-
BRDA:171,0,4,-
BRDA:171,0,5,-
BRDA:172,0,0,-
BRDA:172,0,1,-
BRDA:172,0,2,-
BRDA:172,0,3,-
BRDA:172,0,4,-
BRDA:172,0,5,-
BRDA:173,0,0,-
BRDA:173,0,1,-
BRDA:173,0,2,-
BRDA:173,0,3,-
BRDA:173,0,4,-
BRDA:173,0,5,-
BRDA:176,0,0,-
BRDA:176,0,1,-
BRDA:176,0,2,-
BRDA:176,0,3,-
BRDA:176,0,4,-
BRDA:176,0,5,-
BRDA:177,0,0,-
BRDA:177,0,1,-
BRDA:177,0,2,-
BRDA:177,0,3,-
BRDA:177,0,4,-
BRDA:177,0,5,-
BRDA:178,0,0,-
BRDA:178,0,1,-
BRDA:178,0,2,-
BRDA:178,0,3,-
BRDA:178,0,4,-
BRDA:178,0,5,-
BRDA:179,0,0,-
BRDA:179,0,1,-
BRDA:179,0,2,-
BRDA:179,0,3,-
BRDA:179,0,4,-
BRDA:179,0,5,-
BRDA:180,0,0,-
BRDA:180,0,1,-
BRDA:180,0,2,-
BRDA:180,0,3,-
BRDA:180,0,4,-
BRDA:180,0,5,-
BRDA:181,0,0,-
BRDA:181,0,1,-
BRDA:181,0,2,-
BRDA:181,0,3,-
BRDA:181,0,4,-
BRDA:181,0,5,-
BRDA:182,0,0,-
BRDA:182,0,1,-
BRDA:182,0,2,-
BRDA:182,0,3,-
BRDA:182,0,4,-
BRDA:182,0,5,-
BRDA:183,0,0,-
BRDA:183,0,1,-
BRDA:183,0,2,-
BRDA:183,0,3,-
BRDA:183,0,4,-
BRDA:183,0,5,-
BRDA:194,0,0,-
BRDA:194,0,1,-
BRDA:194,0,2,-
BRDA:194,0,3,-
BRDA:195,0,0,-
BRDA:195,0,1,-
BRDA:196,0,0,-
BRDA:196,0,1,-
BRDA:197,0,0,0
BRDA:197,0,1,0
BRDA:197,0,2,0
BRDA:197,0,3,0
BRDA:197,0,4,0
BRDA:197,0,5,0
BRDA:203,0,0,-
BRDA:203,0,1,-
BRDA:207,0,0,-
BRDA:207,0,1,-
BRDA:208,0,0,-
BRDA:208,0,1,-
BRDA:208,0,2,-
BRDA:208,0,3,-
BRDA:208,0,4,-
BRDA:208,0,5,-
BRDA:208,0,6,-
BRDA:208,0,7,-
BRDA:209,0,0,-
BRDA:209,0,1,-
BRDA:214,0,0,-
BRDA:214,0,1,-
BRDA:215,0,0,-
BRDA:215,0,1,-
BRDA:215,0,2,-
BRDA:215,0,3,-
BRDA:216,0,0,-
BRDA:216,0,1,-
BRDA:216,0,2,-
BRDA:216,0,3,-
BRDA:216,0,4,-
BRDA:216,0,5,-
BRDA:216,0,6,-
BRDA:216,0,7,-
BRDA:221,0,0,-
BRDA:221,0,1,-
BRDA:222,0,0,-
BRDA:222,0,1,-
BRDA:222,0,2,-
BRDA:222,0,3,-
BRDA:223,0,0,-
BRDA:223,0,1,-
BRDA:223,0,2,-
BRDA:223,0,3,-
BRDA:223,0,4,-
BRDA:223,0,5,-
BRDA:223,0,6,-
BRDA:223,0,7,-
BRDA:228,0,0,-
BRDA:228,0,1,-
BRDA:229,0,0,-
BRDA:229,0,1,-
BRDA:229,0,2,-
BRDA:229,0,3,-
BRDA:230,0,0,-
BRDA:230,0,1,-
BRDA:230,0,2,-
BRDA:230,0,3,-
BRDA:231,0,0,-
BRDA:231,0,1,-
BRDA:231,0,2,-
BRDA:231,0,3,-
BRDA:232,0,0,-
BRDA:232,0,1,-
BRDA:232,0,2,-
BRDA:232,0,3,-
BRDA:232,0,4,-
BRDA:232,0,5,-
BRDA:232,0,6,-
BRDA:232,0,7,-
BRDA:233,0,0,-
BRDA:233,0,1,-
BRDA:237,0,0,-
BRDA:237,0,1,-
BRDA:238,0,0,-
BRDA:238,0,1,-
BRDA:239,0,0,-
BRDA:239,0,1,-
BRDA:239,0,2,-
BRDA:239,0,3,-
BRDA:239,0,4,-
BRDA:239,0,5,-
BRDA:239,0,6,-
BRDA:239,0,7,-
BRDA:245,0,0,-
BRDA:245,0,1,-
BRDA:246,0,0,-
BRDA:246,0,1,-
BRDA:246,0,2,-
BRDA:246,0,3,-
BRDA:246,0,4,-
BRDA:246,0,5,-
BRDA:246,0,6,-
BRDA:246,0,7,-
BRDA:251,0,0,-
BRDA:251,0,1,-
BRDA:252,0,0,-
BRDA:252,0,1,-
BRDA:252,0,2,-
BRDA:252,0,3,-
BRDA:253,0,0,-
BRDA:253,0,1,-
BRDA:253,0,2,-
BRDA:253,0,3,-
BRDA:254,0,0,-
BRDA:254,0,1,-
BRDA:254,0,2,-
BRDA:254,0,3,-
BRDA:254,0,4,-
BRDA:254,0,5,-
BRDA:254,0,6,-
BRDA:254,0,7,-
BRF:608
BRH:0
DA:20,0
DA:21,0
DA:22,0
DA:23,0
DA:24,0
DA:26,0
DA:27,0
DA:28,0
DA:31,0
DA:32,0
DA:33,0
DA:34,0
DA:35,0
DA:36,0
DA:38,0
DA:41,0
DA:42,0
DA:43,0
DA:44,0
DA:46,0
DA:47,0
DA:48,0
DA:49,0
DA:51,0
DA:52,0
DA:57,0
DA:58,0
DA:59,0
DA:60,0
DA:61,0
DA:62,0
DA:63,0
DA:64,0
DA:65,0
DA:66,0
DA:69,0
DA:75,0
DA:76,0
DA:77,0
DA:80,0
DA:81,0
DA:82,0
DA:83,0
DA:86,0
DA:87,0
DA:88,0
DA:89,0
DA:92,0
DA:93,0
DA:95,0
DA:96,0
DA:97,0
DA:100,0
DA:102,0
DA:105,0
DA:108,0
DA:111,0
DA:112,0
DA:113,0
DA:114,0
DA:115,0
DA:116,0
DA:117,0
DA:119,0
DA:123,0
DA:124,0
DA:125,0
DA:126,0
DA:127,0
DA:128,0
DA:129,0
DA:132,0
DA:133,0
DA:134,0
DA:135,0
DA:136,0
DA:137,0
DA:138,0
DA:139,0
DA:140,0
DA:141,0
DA:142,0
DA:145,0
DA:146,0
DA:147,0
DA:148,0
DA:149,0
DA:150,0
DA:151,0
DA:152,0
DA:153,0
DA:154,0
DA:155,0
DA:156,0
DA:157,0
DA:158,0
DA:159,0
DA:162,0
DA:163,0
DA:164,0
DA:165,0
DA:166,0
DA:167,0
DA:170,0
DA:171,0
DA:172,0
DA:173,0
DA:176,0
DA:177,0
DA:178,0
DA:179,0
DA:180,0
DA:181,0
DA:182,0
DA:183,0
DA:185,0
DA:186,0
DA:188,0
DA:189,0
DA:192,0
DA:194,0
DA:195,0
DA:196,0
DA:197,0
DA:198,0
DA:199,0
DA:202,0
DA:203,0
DA:206,0
DA:207,0
DA:208,0
DA:209,0
DA:210,0
DA:214,0
DA:215,0
DA:216,0
DA:217,0
DA:221,0
DA:222,0
DA:223,0
DA:224,0
DA:228,0
DA:229,0
DA:230,0
DA:231,0
DA:232,0
DA:233,0
DA:234,0
DA:237,0
DA:238,0
DA:239,0
DA:240,0
DA:245,0
DA:246,0
DA:247,0
DA:251,0
DA:252,0
DA:253,0
DA:254,0
DA:255,0
DA:258,0
LF:161
LH:0
end_of_record
TN:
SF:/home/xucong/caicAD/01datainfra/Aurora/aurora-edge-runtime/src/data_collection/common/app_config.h
FN:105,_ZN6aurora9collector9AppConfigC2Ev
FN:106,_ZN6aurora9collector9AppConfigD2Ev
FNDA:0,_ZN6aurora9collector9AppConfigC2Ev
FNDA:0,_ZN6aurora9collector9AppConfigD2Ev
FNF:2
FNH:0
DA:105,0
DA:106,0
LF:2
LH:0
end_of_record
TN:
SF:/home/xucong/caicAD/01datainfra/Aurora/aurora-edge-runtime/src/data_collection/common/base.h
FN:27,_ZN6aurora9collectorL14normalize_pathERKNSt10filesystem7__cxx114pathE
FN:30,_ZN6aurora9collectorL13relative_pathERKNSt10filesystem7__cxx114pathES5_
FN:34,_ZN6aurora9collector18getInstallRootPathEv
FNDA:0,_ZN6aurora9collectorL14normalize_pathERKNSt10filesystem7__cxx114pathE
FNDA:0,_ZN6aurora9collectorL13relative_pathERKNSt10filesystem7__cxx114pathES5_
FNDA:1,_ZN6aurora9collector18getInstallRootPathEv
FNF:3
FNH:1
BRDA:28,0,0,-
BRDA:28,0,1,-
BRDA:28,0,2,-
BRDA:28,0,3,-
BRDA:36,0,0,0
BRDA:36,0,1,1
BRF:6
BRH:1
DA:27,0
DA:28,0
DA:30,0
DA:31,0
DA:34,1
DA:35,1
DA:36,1
DA:37,0
DA:41,1
DA:42,1
DA:43,1
LF:11
LH:6
end_of_record
TN:
SF:/home/xucong/caicAD/01datainfra/Aurora/aurora-edge-runtime/src/data_collection/common/config_watcher.cpp
FN:8,_ZN6aurora9collector13ConfigWatcherC2ERKNSt7__cxx1112basic_stringIcSt11char_traitsIcESaIcEEEj
FN:25,_ZN6aurora9collector13ConfigWatcherD2Ev
FN:29,_ZN6aurora9collector13ConfigWatcher5startEv
FN:43,_ZN6aurora9collector13ConfigWatcher4stopEv
FN:57,_ZN6aurora9collector13ConfigWatcher17setChangeCallbackESt8functionIFvRKNSt7__cxx1112basic_stringIcSt11char_traitsIcESaIcEEEEE
FN:62,_ZN6aurora9collector13ConfigWatcher12checkChangedEv
FN:76,_ZNK6aurora9collector13ConfigWatcher19getLastModifiedTimeEv
FN:81,_ZN6aurora9collector13ConfigWatcher11watchThreadEv
FN:124,_ZNK6aurora9collector13ConfigWatcher15readFileModTimeEv
FNDA:0,_ZN6aurora9collector13ConfigWatcher4stopEv
FNDA:0,_ZNK6aurora9collector13ConfigWatcher19getLastModifiedTimeEv
FNDA:0,_ZN6aurora9collector13ConfigWatcher17setChangeCallbackESt8functionIFvRKNSt7__cxx1112basic_stringIcSt11char_traitsIcESaIcEEEEE
FNDA:0,_ZN6aurora9collector13ConfigWatcher11watchThreadEv
FNDA:0,_ZN6aurora9collector13ConfigWatcher5startEv
FNDA:0,_ZN6aurora9collector13ConfigWatcher12checkChangedEv
FNDA:0,_ZN6aurora9collector13ConfigWatcherD2Ev
FNDA:0,_ZN6aurora9collector13ConfigWatcherC2ERKNSt7__cxx1112basic_stringIcSt11char_traitsIcESaIcEEEj
FNDA:0,_ZNK6aurora9collector13ConfigWatcher15readFileModTimeEv
FNF:9
FNH:0
BRDA:13,0,0,-
BRDA:13,0,1,-
BRDA:14,0,0,-
BRDA:14,0,1,-
BRDA:15,0,0,-
BRDA:15,0,1,-
BRDA:16,0,0,-
BRDA:16,0,1,-
BRDA:18,0,0,-
BRDA:18,0,1,-
BRDA:18,0,2,-
BRDA:18,0,3,-
BRDA:30,0,0,-
BRDA:30,0,1,-
BRDA:31,0,0,-
BRDA:31,0,1,-
BRDA:36,0,0,-
BRDA:36,0,1,-
BRDA:44,0,0,-
BRDA:44,0,1,-
BRDA:50,0,0,-
BRDA:50,0,1,-
BRDA:54,0,0,-
BRDA:54,0,1,-
BRDA:58,0,0,-
BRDA:58,0,1,-
BRDA:63,0,0,-
BRDA:63,0,1,-
BRDA:64,0,0,-
BRDA:64,0,1,-
BRDA:68,0,0,-
BRDA:68,0,1,-
BRDA:69,0,0,-
BRDA:69,0,1,-
BRDA:69,0,2,-
BRDA:69,0,3,-
BRDA:69,0,4,-
BRDA:69,0,5,-
BRDA:70,0,0,-
BRDA:70,0,1,-
BRDA:77,0,0,-
BRDA:77,0,1,-
BRDA:84,0,0,-
BRDA:84,0,1,-
BRDA:86,0,0,-
BRDA:86,0,1,-
BRDA:86,0,2,-
BRDA:86,0,3,-
BRDA:87,0,0,-
BRDA:87,0,1,-
BRDA:87,0,2,-
BRDA:87,0,3,-
BRDA:91,0,0,-
BRDA:91,0,1,-
BRDA:92,0,0,-
BRDA:92,0,1,-
BRDA:95,0,0,-
BRDA:95,0,1,-
BRDA:97,0,0,-
BRDA:97,0,1,-
BRDA:98,0,0,0
BRDA:98,0,1,0
BRDA:99,0,0,0
BRDA:99,0,1,0
BRDA:99,0,2,0
BRDA:99,0,3,0
BRDA:101,0,0,0
BRDA:101,0,1,0
BRDA:101,0,2,0
BRDA:101,0,3,0
BRDA:102,0,0,0
BRDA:102,0,1,0
BRDA:104,0,0,-
BRDA:104,0,1,-
BRDA:104,0,2,-
BRDA:104,0,3,-
BRDA:108,0,0,0
BRDA:108,0,1,0
BRDA:109,0,0,0
BRDA:109,0,1,0
BRDA:109,0,2,0
BRDA:109,0,3,0
BRDA:111,0,0,0
BRDA:111,0,1,0
BRDA:111,0,2,0
BRDA:111,0,3,0
BRDA:112,0,0,0
BRDA:112,0,1,0
BRDA:115,0,0,-
BRDA:115,0,1,-
BRDA:117,0,0,-
BRDA:117,0,1,-
BRDA:118,0,0,-
BRDA:118,0,1,-
BRDA:121,0,0,-
BRDA:121,0,1,-
BRDA:126,0,0,-
BRDA:126,0,1,-
BRDA:127,0,0,-
BRDA:127,0,1,-
BRDA:127,0,2,-
BRDA:127,0,3,-
BRDA:128,0,0,-
BRDA:128,0,1,-
BRDA:128,0,2,-
BRDA:128,0,3,-
BRDA:132,0,0,-
BRDA:132,0,1,-
BRDA:135,0,0,-
BRDA:135,0,1,-
BRDA:136,0,0,0
BRDA:136,0,1,0
BRDA:136,0,2,0
BRDA:136,0,3,0
BRF:114
BRH:0
DA:8,0
DA:9,0
DA:10,0
DA:13,0
DA:14,0
DA:15,0
DA:16,0
DA:17,0
DA:18,0
DA:21,0
DA:23,0
DA:25,0
DA:26,0
DA:27,0
DA:29,0
DA:30,0
DA:31,0
DA:32,0
DA:35,0
DA:36,0
DA:40,0
DA:43,0
DA:44,0
DA:45,0
DA:48,0
DA:50,0
DA:51,0
DA:54,0
DA:57,0
DA:58,0
DA:59,0
DA:60,0
DA:62,0
DA:63,0
DA:64,0
DA:65,0
DA:68,0
DA:69,0
DA:70,0
DA:71,0
DA:73,0
DA:74,0
DA:76,0
DA:77,0
DA:78,0
DA:79,0
DA:81,0
DA:84,0
DA:86,0
DA:87,0
DA:89,0
DA:91,0
DA:92,0
DA:93,0
DA:95,0
DA:97,0
DA:98,0
DA:99,0
DA:100,0
DA:101,0
DA:102,0
DA:104,0
DA:106,0
DA:108,0
DA:109,0
DA:110,0
DA:111,0
DA:112,0
DA:115,0
DA:117,0
DA:118,0
DA:119,0
DA:121,0
DA:122,0
DA:124,0
DA:126,0
DA:127,0
DA:128,0
DA:129,0
DA:132,0
DA:133,0
DA:135,0
DA:136,0
DA:138,0
DA:139,0
LF:85
LH:0
end_of_record
TN:
SF:/home/xucong/caicAD/01datainfra/Aurora/aurora-edge-runtime/src/data_collection/common/data.cpp
FN:9,_ZN6aurora9collector7to_jsonERN8nlohmann10basic_jsonISt3mapSt6vectorNSt7__cxx1112basic_stringIcSt11char_traitsIcESaIcEEEblmdSaNS1_14adl_serializerEEENS0_10UploadTypeE
FN:13,_ZN6aurora9collector9from_jsonERKN8nlohmann10basic_jsonISt3mapSt6vectorNSt7__cxx1112basic_stringIcSt11char_traitsIcESaIcEEEblmdSaNS1_14adl_serializerEEERNS0_10UploadTypeE
FN:17,_ZN6aurora9collector7to_jsonERN8nlohmann10basic_jsonISt3mapSt6vectorNSt7__cxx1112basic_stringIcSt11char_traitsIcESaIcEEEblmdSaNS1_14adl_serializerEEENS0_12UploadStatusE
FN:21,_ZN6aurora9collector9from_jsonERKN8nlohmann10basic_jsonISt3mapSt6vectorNSt7__cxx1112basic_stringIcSt11char_traitsIcESaIcEEEblmdSaNS1_14adl_serializerEEERNS0_12UploadStatusE
FN:25,_ZN6aurora9collector7to_jsonERN8nlohmann10basic_jsonISt3mapSt6vectorNSt7__cxx1112basic_stringIcSt11char_traitsIcESaIcEEEblmdSaNS1_14adl_serializerEEERKNS0_13UploadUrlResp6ObjectE
FN:34,_ZN6aurora9collector9from_jsonERKN8nlohmann10basic_jsonISt3mapSt6vectorNSt7__cxx1112basic_stringIcSt11char_traitsIcESaIcEEEblmdSaNS1_14adl_serializerEEERNS0_13UploadUrlResp6ObjectE
FN:49,_ZN6aurora9collector7to_jsonERN8nlohmann10basic_jsonISt3mapSt6vectorNSt7__cxx1112basic_stringIcSt11char_traitsIcESaIcEEEblmdSaNS1_14adl_serializerEEERKNS0_13UploadUrlRespE
FN:57,_ZN6aurora9collector9from_jsonERKN8nlohmann10basic_jsonISt3mapSt6vectorNSt7__cxx1112basic_stringIcSt11char_traitsIcESaIcEEEblmdSaNS1_14adl_serializerEEERNS0_13UploadUrlRespE
FN:69,_ZN6aurora9collector7to_jsonERN8nlohmann10basic_jsonISt3mapSt6vectorNSt7__cxx1112basic_stringIcSt11char_traitsIcESaIcEEEblmdSaNS1_14adl_serializerEEERKNS0_18CompleteUploadResp6ObjectE
FN:76,_ZN6aurora9collector9from_jsonERKN8nlohmann10basic_jsonISt3mapSt6vectorNSt7__cxx1112basic_stringIcSt11char_traitsIcESaIcEEEblmdSaNS1_14adl_serializerEEERNS0_18CompleteUploadResp6ObjectE
FN:85,_ZN6aurora9collector7to_jsonERN8nlohmann10basic_jsonISt3mapSt6vectorNSt7__cxx1112basic_stringIcSt11char_traitsIcESaIcEEEblmdSaNS1_14adl_serializerEEERKNS0_18CompleteUploadRespE
FN:92,_ZN6aurora9collector9from_jsonERKN8nlohmann10basic_jsonISt3mapSt6vectorNSt7__cxx1112basic_stringIcSt11char_traitsIcESaIcEEEblmdSaNS1_14adl_serializerEEERNS0_18CompleteUploadRespE
FN:104,_ZN6aurora9collector7to_jsonERN8nlohmann10basic_jsonISt3mapSt6vectorNSt7__cxx1112basic_stringIcSt11char_traitsIcESaIcEEEblmdSaNS1_14adl_serializerEEERKNS0_16UploadStatusResp10UploadPartE
FN:111,_ZN6aurora9collector9from_jsonERKN8nlohmann10basic_jsonISt3mapSt6vectorNSt7__cxx1112basic_stringIcSt11char_traitsIcESaIcEEEblmdSaNS1_14adl_serializerEEERNS0_16UploadStatusResp10UploadPartE
FN:120,_ZN6aurora9collector7to_jsonERN8nlohmann10basic_jsonISt3mapSt6vectorNSt7__cxx1112basic_stringIcSt11char_traitsIcESaIcEEEblmdSaNS1_14adl_serializerEEERKNS0_16UploadStatusResp6ObjectE
FN:127,_ZN6aurora9collector9from_jsonERKN8nlohmann10basic_jsonISt3mapSt6vectorNSt7__cxx1112basic_stringIcSt11char_traitsIcESaIcEEEblmdSaNS1_14adl_serializerEEERNS0_16UploadStatusResp6ObjectE
FN:136,_ZN6aurora9collector7to_jsonERN8nlohmann10basic_jsonISt3mapSt6vectorNSt7__cxx1112basic_stringIcSt11char_traitsIcESaIcEEEblmdSaNS1_14adl_serializerEEERKNS0_16UploadStatusRespE
FN:144,_ZN6aurora9collector9from_jsonERKN8nlohmann10basic_jsonISt3mapSt6vectorNSt7__cxx1112basic_stringIcSt11char_traitsIcESaIcEEEblmdSaNS1_14adl_serializerEEERNS0_16UploadStatusRespE
FN:156,_ZN6aurora9collector7to_jsonERN8nlohmann10basic_jsonISt3mapSt6vectorNSt7__cxx1112basic_stringIcSt11char_traitsIcESaIcEEEblmdSaNS1_14adl_serializerEEERKNS0_13QueryTaskResp6ObjectE
FN:167,_ZN6aurora9collector9from_jsonERKN8nlohmann10basic_jsonISt3mapSt6vectorNSt7__cxx1112basic_stringIcSt11char_traitsIcESaIcEEEblmdSaNS1_14adl_serializerEEERNS0_13QueryTaskResp6ObjectE
FN:188,_ZN6aurora9collector7to_jsonERN8nlohmann10basic_jsonISt3mapSt6vectorNSt7__cxx1112basic_stringIcSt11char_traitsIcESaIcEEEblmdSaNS1_14adl_serializerEEERKNS0_13QueryTaskRespE
FN:196,_ZN6aurora9collector9from_jsonERKN8nlohmann10basic_jsonISt3mapSt6vectorNSt7__cxx1112basic_stringIcSt11char_traitsIcESaIcEEEblmdSaNS1_14adl_serializerEEERNS0_13QueryTaskRespE
FN:208,_ZN6aurora9collector7to_jsonERN8nlohmann10basic_jsonISt3mapSt6vectorNSt7__cxx1112basic_stringIcSt11char_traitsIcESaIcEEEblmdSaNS1_14adl_serializerEEERKNS0_12UploadUrlReqE
FN:223,_ZN6aurora9collector9from_jsonERKN8nlohmann10basic_jsonISt3mapSt6vectorNSt7__cxx1112basic_stringIcSt11char_traitsIcESaIcEEEblmdSaNS1_14adl_serializerEEERNS0_12UploadUrlReqE
FN:244,_ZN6aurora9collector7to_jsonERN8nlohmann10basic_jsonISt3mapSt6vectorNSt7__cxx1112basic_stringIcSt11char_traitsIcESaIcEEEblmdSaNS1_14adl_serializerEEERKNS0_17CompleteUploadReqE
FN:258,_ZN6aurora9collector9from_jsonERKN8nlohmann10basic_jsonISt3mapSt6vectorNSt7__cxx1112basic_stringIcSt11char_traitsIcESaIcEEEblmdSaNS1_14adl_serializerEEERNS0_17CompleteUploadReqE
FN:282,_ZN6aurora9collector7to_jsonERN8nlohmann10basic_jsonISt3mapSt6vectorNSt7__cxx1112basic_stringIcSt11char_traitsIcESaIcEEEblmdSaNS1_14adl_serializerEEERKNS0_16FileUploadRecordE
FN:292,_ZN6aurora9collector9from_jsonERKN8nlohmann10basic_jsonISt3mapSt6vectorNSt7__cxx1112basic_stringIcSt11char_traitsIcESaIcEEEblmdSaNS1_14adl_serializerEEERNS0_16FileUploadRecordE
FN:310,_ZN6aurora9collector7to_jsonERN8nlohmann10basic_jsonISt3mapSt6vectorNSt7__cxx1112basic_stringIcSt11char_traitsIcESaIcEEEblmdSaNS1_14adl_serializerEEERKNS0_18FileUploadProgressE
FN:324,_ZN6aurora9collector9from_jsonERKN8nlohmann10basic_jsonISt3mapSt6vectorNSt7__cxx1112basic_stringIcSt11char_traitsIcESaIcEEEblmdSaNS1_14adl_serializerEEERNS0_18FileUploadProgressE
FN:354,_ZN6aurora9collector7to_jsonERN8nlohmann10basic_jsonISt3mapSt6vectorNSt7__cxx1112basic_stringIcSt11char_traitsIcESaIcEEEblmdSaNS1_14adl_serializerEEERKNS0_7SysInfoE
FN:368,_ZN6aurora9collector9from_jsonERKN8nlohmann10basic_jsonISt3mapSt6vectorNSt7__cxx1112basic_stringIcSt11char_traitsIcESaIcEEEblmdSaNS1_14adl_serializerEEERNS0_7SysInfoE
FN:398,_ZN6aurora9collector7to_jsonERN8nlohmann10basic_jsonISt3mapSt6vectorNSt7__cxx1112basic_stringIcSt11char_traitsIcESaIcEEEblmdSaNS1_14adl_serializerEEERKNS0_11CollectInfoE
FN:413,_ZN6aurora9collector9from_jsonERKN8nlohmann10basic_jsonISt3mapSt6vectorNSt7__cxx1112basic_stringIcSt11char_traitsIcESaIcEEEblmdSaNS1_14adl_serializerEEERNS0_11CollectInfoE
FN:443,_ZN6aurora9collector7to_jsonERN8nlohmann10basic_jsonISt3mapSt6vectorNSt7__cxx1112basic_stringIcSt11char_traitsIcESaIcEEEblmdSaNS1_14adl_serializerEEERKNS0_8RtspInfoE
FN:451,_ZN6aurora9collector9from_jsonERKN8nlohmann10basic_jsonISt3mapSt6vectorNSt7__cxx1112basic_stringIcSt11char_traitsIcESaIcEEEblmdSaNS1_14adl_serializerEEERNS0_8RtspInfoE
FN:463,_ZN6aurora9collector7to_jsonERN8nlohmann10basic_jsonISt3mapSt6vectorNSt7__cxx1112basic_stringIcSt11char_traitsIcESaIcEEEblmdSaNS1_14adl_serializerEEERKNS0_12OBUStateInfoE
FN:494,_ZN6aurora9collector9from_jsonERKN8nlohmann10basic_jsonISt3mapSt6vectorNSt7__cxx1112basic_stringIcSt11char_traitsIcESaIcEEEblmdSaNS1_14adl_serializerEEERNS0_12OBUStateInfoE
FNDA:0,_ZN6aurora9collector7to_jsonERN8nlohmann10basic_jsonISt3mapSt6vectorNSt7__cxx1112basic_stringIcSt11char_traitsIcESaIcEEEblmdSaNS1_14adl_serializerEEERKNS0_13UploadUrlRespE
FNDA:0,_ZN6aurora9collector9from_jsonERKN8nlohmann10basic_jsonISt3mapSt6vectorNSt7__cxx1112basic_stringIcSt11char_traitsIcESaIcEEEblmdSaNS1_14adl_serializerEEERNS0_16UploadStatusRespE
FNDA:0,_ZN6aurora9collector9from_jsonERKN8nlohmann10basic_jsonISt3mapSt6vectorNSt7__cxx1112basic_stringIcSt11char_traitsIcESaIcEEEblmdSaNS1_14adl_serializerEEERNS0_16UploadStatusResp10UploadPartE
FNDA:0,_ZN6aurora9collector9from_jsonERKN8nlohmann10basic_jsonISt3mapSt6vectorNSt7__cxx1112basic_stringIcSt11char_traitsIcESaIcEEEblmdSaNS1_14adl_serializerEEERNS0_17CompleteUploadReqE
FNDA:0,_ZN6aurora9collector9from_jsonERKN8nlohmann10basic_jsonISt3mapSt6vectorNSt7__cxx1112basic_stringIcSt11char_traitsIcESaIcEEEblmdSaNS1_14adl_serializerEEERNS0_12OBUStateInfoE
FNDA:0,_ZN6aurora9collector9from_jsonERKN8nlohmann10basic_jsonISt3mapSt6vectorNSt7__cxx1112basic_stringIcSt11char_traitsIcESaIcEEEblmdSaNS1_14adl_serializerEEERNS0_11CollectInfoE
FNDA:0,_ZN6aurora9collector9from_jsonERKN8nlohmann10basic_jsonISt3mapSt6vectorNSt7__cxx1112basic_stringIcSt11char_traitsIcESaIcEEEblmdSaNS1_14adl_serializerEEERNS0_16UploadStatusResp6ObjectE
FNDA:0,_ZN6aurora9collector7to_jsonERN8nlohmann10basic_jsonISt3mapSt6vectorNSt7__cxx1112basic_stringIcSt11char_traitsIcESaIcEEEblmdSaNS1_14adl_serializerEEERKNS0_16UploadStatusRespE
FNDA:0,_ZN6aurora9collector7to_jsonERN8nlohmann10basic_jsonISt3mapSt6vectorNSt7__cxx1112basic_stringIcSt11char_traitsIcESaIcEEEblmdSaNS1_14adl_serializerEEENS0_12UploadStatusE
FNDA:0,_ZN6aurora9collector9from_jsonERKN8nlohmann10basic_jsonISt3mapSt6vectorNSt7__cxx1112basic_stringIcSt11char_traitsIcESaIcEEEblmdSaNS1_14adl_serializerEEERNS0_13QueryTaskRespE
FNDA:0,_ZN6aurora9collector7to_jsonERN8nlohmann10basic_jsonISt3mapSt6vectorNSt7__cxx1112basic_stringIcSt11char_traitsIcESaIcEEEblmdSaNS1_14adl_serializerEEERKNS0_17CompleteUploadReqE
FNDA:0,_ZN6aurora9collector9from_jsonERKN8nlohmann10basic_jsonISt3mapSt6vectorNSt7__cxx1112basic_stringIcSt11char_traitsIcESaIcEEEblmdSaNS1_14adl_serializerEEERNS0_7SysInfoE
FNDA:0,_ZN6aurora9collector9from_jsonERKN8nlohmann10basic_jsonISt3mapSt6vectorNSt7__cxx1112basic_stringIcSt11char_traitsIcESaIcEEEblmdSaNS1_14adl_serializerEEERNS0_8RtspInfoE
FNDA:0,_ZN6aurora9collector9from_jsonERKN8nlohmann10basic_jsonISt3mapSt6vectorNSt7__cxx1112basic_stringIcSt11char_traitsIcESaIcEEEblmdSaNS1_14adl_serializerEEERNS0_13QueryTaskResp6ObjectE
FNDA:0,_ZN6aurora9collector7to_jsonERN8nlohmann10basic_jsonISt3mapSt6vectorNSt7__cxx1112basic_stringIcSt11char_traitsIcESaIcEEEblmdSaNS1_14adl_serializerEEERKNS0_7SysInfoE
FNDA:0,_ZN6aurora9collector7to_jsonERN8nlohmann10basic_jsonISt3mapSt6vectorNSt7__cxx1112basic_stringIcSt11char_traitsIcESaIcEEEblmdSaNS1_14adl_serializerEEERKNS0_16UploadStatusResp10UploadPartE
FNDA:0,_ZN6aurora9collector9from_jsonERKN8nlohmann10basic_jsonISt3mapSt6vectorNSt7__cxx1112basic_stringIcSt11char_traitsIcESaIcEEEblmdSaNS1_14adl_serializerEEERNS0_13UploadUrlResp6ObjectE
FNDA:0,_ZN6aurora9collector7to_jsonERN8nlohmann10basic_jsonISt3mapSt6vectorNSt7__cxx1112basic_stringIcSt11char_traitsIcESaIcEEEblmdSaNS1_14adl_serializerEEERKNS0_12UploadUrlReqE
FNDA:0,_ZN6aurora9collector7to_jsonERN8nlohmann10basic_jsonISt3mapSt6vectorNSt7__cxx1112basic_stringIcSt11char_traitsIcESaIcEEEblmdSaNS1_14adl_serializerEEERKNS0_18CompleteUploadResp6ObjectE
FNDA:0,_ZN6aurora9collector7to_jsonERN8nlohmann10basic_jsonISt3mapSt6vectorNSt7__cxx1112basic_stringIcSt11char_traitsIcESaIcEEEblmdSaNS1_14adl_serializerEEERKNS0_16UploadStatusResp6ObjectE
FNDA:0,_ZN6aurora9collector9from_jsonERKN8nlohmann10basic_jsonISt3mapSt6vectorNSt7__cxx1112basic_stringIcSt11char_traitsIcESaIcEEEblmdSaNS1_14adl_serializerEEERNS0_12UploadStatusE
FNDA:0,_ZN6aurora9collector7to_jsonERN8nlohmann10basic_jsonISt3mapSt6vectorNSt7__cxx1112basic_stringIcSt11char_traitsIcESaIcEEEblmdSaNS1_14adl_serializerEEERKNS0_13QueryTaskRespE
FNDA:0,_ZN6aurora9collector7to_jsonERN8nlohmann10basic_jsonISt3mapSt6vectorNSt7__cxx1112basic_stringIcSt11char_traitsIcESaIcEEEblmdSaNS1_14adl_serializerEEERKNS0_18FileUploadProgressE
FNDA:0,_ZN6aurora9collector7to_jsonERN8nlohmann10basic_jsonISt3mapSt6vectorNSt7__cxx1112basic_stringIcSt11char_traitsIcESaIcEEEblmdSaNS1_14adl_serializerEEERKNS0_16FileUploadRecordE
FNDA:0,_ZN6aurora9collector7to_jsonERN8nlohmann10basic_jsonISt3mapSt6vectorNSt7__cxx1112basic_stringIcSt11char_traitsIcESaIcEEEblmdSaNS1_14adl_serializerEEERKNS0_18CompleteUploadRespE
FNDA:0,_ZN6aurora9collector9from_jsonERKN8nlohmann10basic_jsonISt3mapSt6vectorNSt7__cxx1112basic_stringIcSt11char_traitsIcESaIcEEEblmdSaNS1_14adl_serializerEEERNS0_18FileUploadProgressE
FNDA:0,_ZN6aurora9collector9from_jsonERKN8nlohmann10basic_jsonISt3mapSt6vectorNSt7__cxx1112basic_stringIcSt11char_traitsIcESaIcEEEblmdSaNS1_14adl_serializerEEERNS0_18CompleteUploadResp6ObjectE
FNDA:0,_ZN6aurora9collector7to_jsonERN8nlohmann10basic_jsonISt3mapSt6vectorNSt7__cxx1112basic_stringIcSt11char_traitsIcESaIcEEEblmdSaNS1_14adl_serializerEEERKNS0_13QueryTaskResp6ObjectE
FNDA:0,_ZN6aurora9collector9from_jsonERKN8nlohmann10basic_jsonISt3mapSt6vectorNSt7__cxx1112basic_stringIcSt11char_traitsIcESaIcEEEblmdSaNS1_14adl_serializerEEERNS0_18CompleteUploadRespE
FNDA:0,_ZN6aurora9collector7to_jsonERN8nlohmann10basic_jsonISt3mapSt6vectorNSt7__cxx1112basic_stringIcSt11char_traitsIcESaIcEEEblmdSaNS1_14adl_serializerEEENS0_10UploadTypeE
FNDA:0,_ZN6aurora9collector9from_jsonERKN8nlohmann10basic_jsonISt3mapSt6vectorNSt7__cxx1112basic_stringIcSt11char_traitsIcESaIcEEEblmdSaNS1_14adl_serializerEEERNS0_10UploadTypeE
FNDA:0,_ZN6aurora9collector9from_jsonERKN8nlohmann10basic_jsonISt3mapSt6vectorNSt7__cxx1112basic_stringIcSt11char_traitsIcESaIcEEEblmdSaNS1_14adl_serializerEEERNS0_16FileUploadRecordE
FNDA:0,_ZN6aurora9collector9from_jsonERKN8nlohmann10basic_jsonISt3mapSt6vectorNSt7__cxx1112basic_stringIcSt11char_traitsIcESaIcEEEblmdSaNS1_14adl_serializerEEERNS0_13UploadUrlRespE
FNDA:0,_ZN6aurora9collector7to_jsonERN8nlohmann10basic_jsonISt3mapSt6vectorNSt7__cxx1112basic_stringIcSt11char_traitsIcESaIcEEEblmdSaNS1_14adl_serializerEEERKNS0_13UploadUrlResp6ObjectE
FNDA:0,_ZN6aurora9collector7to_jsonERN8nlohmann10basic_jsonISt3mapSt6vectorNSt7__cxx1112basic_stringIcSt11char_traitsIcESaIcEEEblmdSaNS1_14adl_serializerEEERKNS0_11CollectInfoE
FNDA:0,_ZN6aurora9collector7to_jsonERN8nlohmann10basic_jsonISt3mapSt6vectorNSt7__cxx1112basic_stringIcSt11char_traitsIcESaIcEEEblmdSaNS1_14adl_serializerEEERKNS0_12OBUStateInfoE
FNDA:0,_ZN6aurora9collector7to_jsonERN8nlohmann10basic_jsonISt3mapSt6vectorNSt7__cxx1112basic_stringIcSt11char_traitsIcESaIcEEEblmdSaNS1_14adl_serializerEEERKNS0_8RtspInfoE
FNDA:0,_ZN6aurora9collector9from_jsonERKN8nlohmann10basic_jsonISt3mapSt6vectorNSt7__cxx1112basic_stringIcSt11char_traitsIcESaIcEEEblmdSaNS1_14adl_serializerEEERNS0_12UploadUrlReqE
FNF:38
FNH:0
BRDA:26,0,0,-
BRDA:26,0,1,-
BRDA:26,0,2,-
BRDA:26,0,3,-
BRDA:26,0,4,-
BRDA:26,0,5,-
BRDA:26,0,6,-
BRDA:26,0,7,-
BRDA:26,0,8,-
BRDA:26,0,9,-
BRDA:26,0,10,-
BRDA:26,0,11,-
BRDA:26,0,12,-
BRDA:26,0,13,-
BRDA:26,0,14,-
BRDA:26,0,15,-
BRDA:26,0,16,-
BRDA:26,0,17,-
BRDA:26,0,18,-
BRDA:26,0,19,-
BRDA:26,0,20,-
BRDA:26,0,21,-
BRDA:26,0,22,-
BRDA:26,0,23,-
BRDA:26,0,24,-
BRDA:26,0,25,-
BRDA:26,0,26,-
BRDA:26,0,27,-
BRDA:26,0,28,-
BRDA:26,0,29,-
BRDA:26,0,30,-
BRDA:26,0,31,-
BRDA:26,0,32,-
BRDA:26,0,33,-
BRDA:26,0,34,-
BRDA:26,0,35,-
BRDA:28,0,0,-
BRDA:28,0,1,-
BRDA:29,0,0,-
BRDA:29,0,1,-
BRDA:30,0,0,-
BRDA:30,0,1,-
BRDA:35,0,0,-
BRDA:35,0,1,-
BRDA:35,0,2,-
BRDA:35,0,3,-
BRDA:35,0,4,-
BRDA:35,0,5,-
BRDA:36,0,0,-
BRDA:36,0,1,-
BRDA:36,0,2,-
BRDA:36,0,3,-
BRDA:36,0,4,-
BRDA:36,0,5,-
BRDA:38,0,0,-
BRDA:38,0,1,-
BRDA:38,0,2,-
BRDA:38,0,3,-
BRDA:38,0,4,-
BRDA:38,0,5,-
BRDA:39,0,0,-
BRDA:39,0,1,-
BRDA:39,0,2,-
BRDA:39,0,3,-
BRDA:39,0,4,-
BRDA:39,0,5,-
BRDA:41,0,0,-
BRDA:41,0,1,-
BRDA:41,0,2,-
BRDA:41,0,3,-
BRDA:41,0,4,-
BRDA:41,0,5,-
BRDA:42,0,0,-
BRDA:42,0,1,-
BRDA:42,0,2,-
BRDA:42,0,3,-
BRDA:42,0,4,-
BRDA:42,0,5,-
BRDA:44,0,0,-
BRDA:44,0,1,-
BRDA:44,0,2,-
BRDA:44,0,3,-
BRDA:44,0,4,-
BRDA:44,0,5,-
BRDA:45,0,0,-
BRDA:45,0,1,-
BRDA:45,0,2,-
BRDA:45,0,3,-
BRDA:45,0,4,-
BRDA:45,0,5,-
BRDA:50,0,0,-
BRDA:50,0,1,-
BRDA:50,0,2,-
BRDA:50,0,3,-
BRDA:50,0,4,-
BRDA:50,0,5,-
BRDA:50,0,6,-
BRDA:50,0,7,-
BRDA:50,0,8,-
BRDA:50,0,9,-
BRDA:50,0,10,-
BRDA:50,0,11,-
BRDA:50,0,12,-
BRDA:50,0,13,-
BRDA:50,0,14,-
BRDA:50,0,15,-
BRDA:50,0,16,-
BRDA:50,0,17,-
BRDA:50,0,18,-
BRDA:50,0,19,-
BRDA:50,0,20,-
BRDA:50,0,21,-
BRDA:50,0,22,-
BRDA:50,0,23,-
BRDA:50,0,24,-
BRDA:50,0,25,-
BRDA:50,0,26,-
BRDA:50,0,27,-
BRDA:52,0,0,-
BRDA:52,0,1,-
BRDA:53,0,0,-
BRDA:53,0,1,-
BRDA:58,0,0,-
BRDA:58,0,1,-
BRDA:58,0,2,-
BRDA:58,0,3,-
BRDA:58,0,4,-
BRDA:58,0,5,-
BRDA:59,0,0,-
BRDA:59,0,1,-
BRDA:59,0,2,-
BRDA:59,0,3,-
BRDA:59,0,4,-
BRDA:59,0,5,-
BRDA:61,0,0,-
BRDA:61,0,1,-
BRDA:61,0,2,-
BRDA:61,0,3,-
BRDA:61,0,4,-
BRDA:61,0,5,-
BRDA:62,0,0,-
BRDA:62,0,1,-
BRDA:62,0,2,-
BRDA:62,0,3,-
BRDA:62,0,4,-
BRDA:62,0,5,-
BRDA:64,0,0,-
BRDA:64,0,1,-
BRDA:64,0,2,-
BRDA:64,0,3,-
BRDA:64,0,4,-
BRDA:64,0,5,-
BRDA:65,0,0,-
BRDA:65,0,1,-
BRDA:65,0,2,-
BRDA:65,0,3,-
BRDA:65,0,4,-
BRDA:65,0,5,-
BRDA:70,0,0,-
BRDA:70,0,1,-
BRDA:70,0,2,-
BRDA:70,0,3,-
BRDA:70,0,4,-
BRDA:70,0,5,-
BRDA:70,0,6,-
BRDA:70,0,7,-
BRDA:70,0,8,-
BRDA:70,0,9,-
BRDA:70,0,10,-
BRDA:70,0,11,-
BRDA:70,0,12,-
BRDA:70,0,13,-
BRDA:70,0,14,-
BRDA:70,0,15,-
BRDA:70,0,16,-
BRDA:70,0,17,-
BRDA:70,0,18,-
BRDA:70,0,19,-
BRDA:72,0,0,-
BRDA:72,0,1,-
BRDA:77,0,0,-
BRDA:77,0,1,-
BRDA:77,0,2,-
BRDA:77,0,3,-
BRDA:77,0,4,-
BRDA:77,0,5,-
BRDA:77,0,6,-
BRDA:77,0,7,-
BRDA:77,0,8,-
BRDA:77,0,9,-
BRDA:77,0,10,-
BRDA:77,0,11,-
BRDA:77,0,12,-
BRDA:77,0,13,-
BRDA:77,0,14,-
BRDA:77,0,15,-
BRDA:77,0,16,-
BRDA:77,0,17,-
BRDA:77,0,18,-
BRDA:77,0,19,-
BRDA:78,0,0,-
BRDA:78,0,1,-
BRDA:78,0,2,-
BRDA:78,0,3,-
BRDA:78,0,4,-
BRDA:78,0,5,-
BRDA:80,0,0,-
BRDA:80,0,1,-
BRDA:80,0,2,-
BRDA:80,0,3,-
BRDA:80,0,4,-
BRDA:80,0,5,-
BRDA:80,0,6,-
BRDA:80,0,7,-
BRDA:80,0,8,-
BRDA:80,0,9,-
BRDA:80,0,10,-
BRDA:80,0,11,-
BRDA:80,0,12,-
BRDA:80,0,13,-
BRDA:80,0,14,-
BRDA:80,0,15,-
BRDA:80,0,16,-
BRDA:80,0,17,-
BRDA:80,0,18,-
BRDA:80,0,19,-
BRDA:81,0,0,-
BRDA:81,0,1,-
BRDA:81,0,2,-
BRDA:81,0,3,-
BRDA:81,0,4,-
BRDA:81,0,5,-
BRDA:86,0,0,-
BRDA:86,0,1,-
BRDA:86,0,2,-
BRDA:86,0,3,-
BRDA:86,0,4,-
BRDA:86,0,5,-
BRDA:86,0,6,-
BRDA:86,0,7,-
BRDA:86,0,8,-
BRDA:86,0,9,-
BRDA:86,0,10,-
BRDA:86,0,11,-
BRDA:86,0,12,-
BRDA:86,0,13,-
BRDA:86,0,14,-
BRDA:86,0,15,-
BRDA:86,0,16,-
BRDA:86,0,17,-
BRDA:86,0,18,-
BRDA:86,0,19,-
BRDA:86,0,20,-
BRDA:86,0,21,-
BRDA:86,0,22,-
BRDA:86,0,23,-
BRDA:86,0,24,-
BRDA:86,0,25,-
BRDA:86,0,26,-
BRDA:86,0,27,-
BRDA:88,0,0,-
BRDA:88,0,1,-
BRDA:89,0,0,-
BRDA:89,0,1,-
BRDA:93,0,0,-
BRDA:93,0,1,-
BRDA:93,0,2,-
BRDA:93,0,3,-
BRDA:93,0,4,-
BRDA:93,0,5,-
BRDA:94,0,0,-
BRDA:94,0,1,-
BRDA:94,0,2,-
BRDA:94,0,3,-
BRDA:94,0,4,-
BRDA:94,0,5,-
BRDA:96,0,0,-
BRDA:96,0,1,-
BRDA:96,0,2,-
BRDA:96,0,3,-
BRDA:96,0,4,-
BRDA:96,0,5,-
BRDA:97,0,0,-
BRDA:97,0,1,-
BRDA:97,0,2,-
BRDA:97,0,3,-
BRDA:97,0,4,-
BRDA:97,0,5,-
BRDA:99,0,0,-
BRDA:99,0,1,-
BRDA:99,0,2,-
BRDA:99,0,3,-
BRDA:99,0,4,-
BRDA:99,0,5,-
BRDA:100,0,0,-
BRDA:100,0,1,-
BRDA:100,0,2,-
BRDA:100,0,3,-
BRDA:100,0,4,-
BRDA:100,0,5,-
BRDA:105,0,0,-
BRDA:105,0,1,-
BRDA:105,0,2,-
BRDA:105,0,3,-
BRDA:105,0,4,-
BRDA:105,0,5,-
BRDA:105,0,6,-
BRDA:105,0,7,-
BRDA:105,0,8,-
BRDA:105,0,9,-
BRDA:105,0,10,-
BRDA:105,0,11,-
BRDA:105,0,12,-
BRDA:105,0,13,-
BRDA:105,0,14,-
BRDA:105,0,15,-
BRDA:105,0,16,-
BRDA:105,0,17,-
BRDA:105,0,18,-
BRDA:105,0,19,-
BRDA:107,0,0,-
BRDA:107,0,1,-
BRDA:112,0,0,-
BRDA:112,0,1,-
BRDA:112,0,2,-
BRDA:112,0,3,-
BRDA:112,0,4,-
BRDA:112,0,5,-
BRDA:113,0,0,-
BRDA:113,0,1,-
BRDA:113,0,2,-
BRDA:113,0,3,-
BRDA:113,0,4,-
BRDA:113,0,5,-
BRDA:115,0,0,-
BRDA:115,0,1,-
BRDA:115,0,2,-
BRDA:115,0,3,-
BRDA:115,0,4,-
BRDA:115,0,5,-
BRDA:116,0,0,-
BRDA:116,0,1,-
BRDA:116,0,2,-
BRDA:116,0,3,-
BRDA:116,0,4,-
BRDA:116,0,5,-
BRDA:121,0,0,-
BRDA:121,0,1,-
BRDA:121,0,2,-
BRDA:121,0,3,-
BRDA:121,0,4,-
BRDA:121,0,5,-
BRDA:121,0,6,-
BRDA:121,0,7,-
BRDA:121,0,8,-
BRDA:121,0,9,-
BRDA:121,0,10,-
BRDA:121,0,11,-
BRDA:121,0,12,-
BRDA:121,0,13,-
BRDA:121,0,14,-
BRDA:121,0,15,-
BRDA:121,0,16,-
BRDA:121,0,17,-
BRDA:121,0,18,-
BRDA:121,0,19,-
BRDA:123,0,0,-
BRDA:123,0,1,-
BRDA:128,0,0,-
BRDA:128,0,1,-
BRDA:128,0,2,-
BRDA:128,0,3,-
BRDA:128,0,4,-
BRDA:128,0,5,-
BRDA:129,0,0,-
BRDA:129,0,1,-
BRDA:129,0,2,-
BRDA:129,0,3,-
BRDA:129,0,4,-
BRDA:129,0,5,-
BRDA:131,0,0,-
BRDA:131,0,1,-
BRDA:131,0,2,-
BRDA:131,0,3,-
BRDA:131,0,4,-
BRDA:131,0,5,-
BRDA:132,0,0,-
BRDA:132,0,1,-
BRDA:132,0,2,-
BRDA:132,0,3,-
BRDA:132,0,4,-
BRDA:132,0,5,-
BRDA:137,0,0,-
BRDA:137,0,1,-
BRDA:137,0,2,-
BRDA:137,0,3,-
BRDA:137,0,4,-
BRDA:137,0,5,-
BRDA:137,0,6,-
BRDA:137,0,7,-
BRDA:137,0,8,-
BRDA:137,0,9,-
BRDA:137,0,10,-
BRDA:137,0,11,-
BRDA:137,0,12,-
BRDA:137,0,13,-
BRDA:137,0,14,-
BRDA:137,0,15,-
BRDA:137,0,16,-
BRDA:137,0,17,-
BRDA:137,0,18,-
BRDA:137,0,19,-
BRDA:137,0,20,-
BRDA:137,0,21,-
BRDA:137,0,22,-
BRDA:137,0,23,-
BRDA:137,0,24,-
BRDA:137,0,25,-
BRDA:137,0,26,-
BRDA:137,0,27,-
BRDA:139,0,0,-
BRDA:139,0,1,-
BRDA:140,0,0,-
BRDA:140,0,1,-
BRDA:145,0,0,-
BRDA:145,0,1,-
BRDA:145,0,2,-
BRDA:145,0,3,-
BRDA:145,0,4,-
BRDA:145,0,5,-
BRDA:146,0,0,-
BRDA:146,0,1,-
BRDA:146,0,2,-
BRDA:146,0,3,-
BRDA:146,0,4,-
BRDA:146,0,5,-
BRDA:148,0,0,-
BRDA:148,0,1,-
BRDA:148,0,2,-
BRDA:148,0,3,-
BRDA:148,0,4,-
BRDA:148,0,5,-
BRDA:149,0,0,-
BRDA:149,0,1,-
BRDA:149,0,2,-
BRDA:149,0,3,-
BRDA:149,0,4,-
BRDA:149,0,5,-
BRDA:151,0,0,-
BRDA:151,0,1,-
BRDA:151,0,2,-
BRDA:151,0,3,-
BRDA:151,0,4,-
BRDA:151,0,5,-
BRDA:152,0,0,-
BRDA:152,0,1,-
BRDA:152,0,2,-
BRDA:152,0,3,-
BRDA:152,0,4,-
BRDA:152,0,5,-
BRDA:157,0,0,-
BRDA:157,0,1,-
BRDA:157,0,2,-
BRDA:157,0,3,-
BRDA:157,0,4,-
BRDA:157,0,5,-
BRDA:157,0,6,-
BRDA:157,0,7,-
BRDA:157,0,8,-
BRDA:157,0,9,-
BRDA:157,0,10,-
BRDA:157,0,11,-
BRDA:157,0,12,-
BRDA:157,0,13,-
BRDA:157,0,14,-
BRDA:157,0,15,-
BRDA:157,0,16,-
BRDA:157,0,17,-
BRDA:157,0,18,-
BRDA:157,0,19,-
BRDA:157,0,20,-
BRDA:157,0,21,-
BRDA:157,0,22,-
BRDA:157,0,23,-
BRDA:157,0,24,-
BRDA:157,0,25,-
BRDA:157,0,26,-
BRDA:157,0,27,-
BRDA:157,0,28,-
BRDA:157,0,29,-
BRDA:157,0,30,-
BRDA:157,0,31,-
BRDA:157,0,32,-
BRDA:157,0,33,-
BRDA:157,0,34,-
BRDA:157,0,35,-
BRDA:157,0,36,-
BRDA:157,0,37,-
BRDA:157,0,38,-
BRDA:157,0,39,-
BRDA:157,0,40,-
BRDA:157,0,41,-
BRDA:157,0,42,-
BRDA:157,0,43,-
BRDA:157,0,44,-
BRDA:157,0,45,-
BRDA:157,0,46,-
BRDA:157,0,47,-
BRDA:157,0,48,-
BRDA:157,0,49,-
BRDA:157,0,50,-
BRDA:157,0,51,-
BRDA:159,0,0,-
BRDA:159,0,1,-
BRDA:160,0,0,-
BRDA:160,0,1,-
BRDA:161,0,0,-
BRDA:161,0,1,-
BRDA:162,0,0,-
BRDA:162,0,1,-
BRDA:163,0,0,-
BRDA:163,0,1,-
BRDA:168,0,0,-
BRDA:168,0,1,-
BRDA:168,0,2,-
BRDA:168,0,3,-
BRDA:168,0,4,-
BRDA:168,0,5,-
BRDA:168,0,6,-
BRDA:168,0,7,-
BRDA:168,0,8,-
BRDA:168,0,9,-
BRDA:168,0,10,-
BRDA:168,0,11,-
BRDA:168,0,12,-
BRDA:168,0,13,-
BRDA:168,0,14,-
BRDA:168,0,15,-
BRDA:168,0,16,-
BRDA:168,0,17,-
BRDA:168,0,18,-
BRDA:168,0,19,-
BRDA:169,0,0,-
BRDA:169,0,1,-
BRDA:169,0,2,-
BRDA:169,0,3,-
BRDA:169,0,4,-
BRDA:169,0,5,-
BRDA:171,0,0,-
BRDA:171,0,1,-
BRDA:171,0,2,-
BRDA:171,0,3,-
BRDA:171,0,4,-
BRDA:171,0,5,-
BRDA:171,0,6,-
BRDA:171,0,7,-
BRDA:171,0,8,-
BRDA:171,0,9,-
BRDA:171,0,10,-
BRDA:171,0,11,-
BRDA:171,0,12,-
BRDA:171,0,13,-
BRDA:171,0,14,-
BRDA:171,0,15,-
BRDA:171,0,16,-
BRDA:171,0,17,-
BRDA:171,0,18,-
BRDA:171,0,19,-
BRDA:172,0,0,-
BRDA:172,0,1,-
BRDA:172,0,2,-
BRDA:172,0,3,-
BRDA:172,0,4,-
BRDA:172,0,5,-
BRDA:174,0,0,-
BRDA:174,0,1,-
BRDA:174,0,2,-
BRDA:174,0,3,-
BRDA:174,0,4,-
BRDA:174,0,5,-
BRDA:174,0,6,-
BRDA:174,0,7,-
BRDA:174,0,8,-
BRDA:174,0,9,-
BRDA:174,0,10,-
BRDA:174,0,11,-
BRDA:174,0,12,-
BRDA:174,0,13,-
BRDA:174,0,14,-
BRDA:174,0,15,-
BRDA:174,0,16,-
BRDA:174,0,17,-
BRDA:174,0,18,-
BRDA:174,0,19,-
BRDA:175,0,0,-
BRDA:175,0,1,-
BRDA:175,0,2,-
BRDA:175,0,3,-
BRDA:175,0,4,-
BRDA:175,0,5,-
BRDA:177,0,0,-
BRDA:177,0,1,-
BRDA:177,0,2,-
BRDA:177,0,3,-
BRDA:177,0,4,-
BRDA:177,0,5,-
BRDA:177,0,6,-
BRDA:177,0,7,-
BRDA:177,0,8,-
BRDA:177,0,9,-
BRDA:177,0,10,-
BRDA:177,0,11,-
BRDA:177,0,12,-
BRDA:177,0,13,-
BRDA:177,0,14,-
BRDA:177,0,15,-
BRDA:177,0,16,-
BRDA:177,0,17,-
BRDA:177,0,18,-
BRDA:177,0,19,-
BRDA:178,0,0,-
BRDA:178,0,1,-
BRDA:178,0,2,-
BRDA:178,0,3,-
BRDA:178,0,4,-
BRDA:178,0,5,-
BRDA:180,0,0,-
BRDA:180,0,1,-
BRDA:180,0,2,-
BRDA:180,0,3,-
BRDA:180,0,4,-
BRDA:180,0,5,-
BRDA:180,0,6,-
BRDA:180,0,7,-
BRDA:180,0,8,-
BRDA:180,0,9,-
BRDA:180,0,10,-
BRDA:180,0,11,-
BRDA:180,0,12,-
BRDA:180,0,13,-
BRDA:180,0,14,-
BRDA:180,0,15,-
BRDA:180,0,16,-
BRDA:180,0,17,-
BRDA:180,0,18,-
BRDA:180,0,19,-
BRDA:181,0,0,-
BRDA:181,0,1,-
BRDA:181,0,2,-
BRDA:181,0,3,-
BRDA:181,0,4,-
BRDA:181,0,5,-
BRDA:183,0,0,-
BRDA:183,0,1,-
BRDA:183,0,2,-
BRDA:183,0,3,-
BRDA:183,0,4,-
BRDA:183,0,5,-
BRDA:183,0,6,-
BRDA:183,0,7,-
BRDA:183,0,8,-
BRDA:183,0,9,-
BRDA:183,0,10,-
BRDA:183,0,11,-
BRDA:183,0,12,-
BRDA:183,0,13,-
BRDA:183,0,14,-
BRDA:183,0,15,-
BRDA:183,0,16,-
BRDA:183,0,17,-
BRDA:183,0,18,-
BRDA:183,0,19,-
BRDA:184,0,0,-
BRDA:184,0,1,-
BRDA:184,0,2,-
BRDA:184,0,3,-
BRDA:184,0,4,-
BRDA:184,0,5,-
BRDA:189,0,0,-
BRDA:189,0,1,-
BRDA:189,0,2,-
BRDA:189,0,3,-
BRDA:189,0,4,-
BRDA:189,0,5,-
BRDA:189,0,6,-
BRDA:189,0,7,-
BRDA:189,0,8,-
BRDA:189,0,9,-
BRDA:189,0,10,-
BRDA:189,0,11,-
BRDA:189,0,12,-
BRDA:189,0,13,-
BRDA:189,0,14,-
BRDA:189,0,15,-
BRDA:189,0,16,-
BRDA:189,0,17,-
BRDA:189,0,18,-
BRDA:189,0,19,-
BRDA:189,0,20,-
BRDA:189,0,21,-
BRDA:189,0,22,-
BRDA:189,0,23,-
BRDA:189,0,24,-
BRDA:189,0,25,-
BRDA:189,0,26,-
BRDA:189,0,27,-
BRDA:191,0,0,-
BRDA:191,0,1,-
BRDA:192,0,0,-
BRDA:192,0,1,-
BRDA:197,0,0,-
BRDA:197,0,1,-
BRDA:197,0,2,-
BRDA:197,0,3,-
BRDA:197,0,4,-
BRDA:197,0,5,-
BRDA:198,0,0,-
BRDA:198,0,1,-
BRDA:198,0,2,-
BRDA:198,0,3,-
BRDA:198,0,4,-
BRDA:198,0,5,-
BRDA:200,0,0,-
BRDA:200,0,1,-
BRDA:200,0,2,-
BRDA:200,0,3,-
BRDA:200,0,4,-
BRDA:200,0,5,-
BRDA:201,0,0,-
BRDA:201,0,1,-
BRDA:201,0,2,-
BRDA:201,0,3,-
BRDA:201,0,4,-
BRDA:201,0,5,-
BRDA:203,0,0,-
BRDA:203,0,1,-
BRDA:203,0,2,-
BRDA:203,0,3,-
BRDA:203,0,4,-
BRDA:203,0,5,-
BRDA:204,0,0,-
BRDA:204,0,1,-
BRDA:204,0,2,-
BRDA:204,0,3,-
BRDA:204,0,4,-
BRDA:204,0,5,-
BRDA:209,0,0,-
BRDA:209,0,1,-
BRDA:209,0,2,-
BRDA:209,0,3,-
BRDA:209,0,4,-
BRDA:209,0,5,-
BRDA:209,0,6,-
BRDA:209,0,7,-
BRDA:209,0,8,-
BRDA:209,0,9,-
BRDA:209,0,10,-
BRDA:209,0,11,-
BRDA:209,0,12,-
BRDA:209,0,13,-
BRDA:209,0,14,-
BRDA:209,0,15,-
BRDA:209,0,16,-
BRDA:209,0,17,-
BRDA:209,0,18,-
BRDA:209,0,19,-
BRDA:209,0,20,-
BRDA:209,0,21,-
BRDA:209,0,22,-
BRDA:209,0,23,-
BRDA:209,0,24,-
BRDA:209,0,25,-
BRDA:209,0,26,-
BRDA:209,0,27,-
BRDA:209,0,28,-
BRDA:209,0,29,-
BRDA:209,0,30,-
BRDA:209,0,31,-
BRDA:209,0,32,-
BRDA:209,0,33,-
BRDA:209,0,34,-
BRDA:209,0,35,-
BRDA:211,0,0,-
BRDA:211,0,1,-
BRDA:213,0,0,-
BRDA:213,0,1,-
BRDA:215,0,0,-
BRDA:215,0,1,-
BRDA:216,0,0,-
BRDA:216,0,1,-
BRDA:218,0,0,-
BRDA:218,0,1,-
BRDA:219,0,0,-
BRDA:219,0,1,-
BRDA:224,0,0,-
BRDA:224,0,1,-
BRDA:224,0,2,-
BRDA:224,0,3,-
BRDA:224,0,4,-
BRDA:224,0,5,-
BRDA:225,0,0,-
BRDA:225,0,1,-
BRDA:225,0,2,-
BRDA:225,0,3,-
BRDA:225,0,4,-
BRDA:225,0,5,-
BRDA:227,0,0,-
BRDA:227,0,1,-
BRDA:227,0,2,-
BRDA:227,0,3,-
BRDA:227,0,4,-
BRDA:227,0,5,-
BRDA:228,0,0,-
BRDA:228,0,1,-
BRDA:228,0,2,-
BRDA:228,0,3,-
BRDA:228,0,4,-
BRDA:228,0,5,-
BRDA:230,0,0,-
BRDA:230,0,1,-
BRDA:230,0,2,-
BRDA:230,0,3,-
BRDA:230,0,4,-
BRDA:230,0,5,-
BRDA:231,0,0,-
BRDA:231,0,1,-
BRDA:231,0,2,-
BRDA:231,0,3,-
BRDA:231,0,4,-
BRDA:231,0,5,-
BRDA:233,0,0,-
BRDA:233,0,1,-
BRDA:233,0,2,-
BRDA:233,0,3,-
BRDA:233,0,4,-
BRDA:233,0,5,-
BRDA:233,0,6,-
BRDA:233,0,7,-
BRDA:233,0,8,-
BRDA:233,0,9,-
BRDA:233,0,10,-
BRDA:233,0,11,-
BRDA:233,0,12,-
BRDA:233,0,13,-
BRDA:233,0,14,-
BRDA:233,0,15,-
BRDA:233,0,16,-
BRDA:233,0,17,-
BRDA:233,0,18,-
BRDA:233,0,19,-
BRDA:234,0,0,-
BRDA:234,0,1,-
BRDA:234,0,2,-
BRDA:234,0,3,-
BRDA:234,0,4,-
BRDA:234,0,5,-
BRDA:236,0,0,-
BRDA:236,0,1,-
BRDA:236,0,2,-
BRDA:236,0,3,-
BRDA:236,0,4,-
BRDA:236,0,5,-
BRDA:237,0,0,-
BRDA:237,0,1,-
BRDA:237,0,2,-
BRDA:237,0,3,-
BRDA:237,0,4,-
BRDA:237,0,5,-
BRDA:239,0,0,-
BRDA:239,0,1,-
BRDA:239,0,2,-
BRDA:239,0,3,-
BRDA:239,0,4,-
BRDA:239,0,5,-
BRDA:239,0,6,-
BRDA:239,0,7,-
BRDA:239,0,8,-
BRDA:239,0,9,-
BRDA:239,0,10,-
BRDA:239,0,11,-
BRDA:239,0,12,-
BRDA:239,0,13,-
BRDA:239,0,14,-
BRDA:239,0,15,-
BRDA:239,0,16,-
BRDA:239,0,17,-
BRDA:239,0,18,-
BRDA:239,0,19,-
BRDA:240,0,0,-
BRDA:240,0,1,-
BRDA:240,0,2,-
BRDA:240,0,3,-
BRDA:240,0,4,-
BRDA:240,0,5,-
BRDA:245,0,0,-
BRDA:245,0,1,-
BRDA:245,0,2,-
BRDA:245,0,3,-
BRDA:245,0,4,-
BRDA:245,0,5,-
BRDA:245,0,6,-
BRDA:245,0,7,-
BRDA:245,0,8,-
BRDA:245,0,9,-
BRDA:245,0,10,-
BRDA:245,0,11,-
BRDA:245,0,12,-
BRDA:245,0,13,-
BRDA:245,0,14,-
BRDA:245,0,15,-
BRDA:245,0,16,-
BRDA:245,0,17,-
BRDA:245,0,18,-
BRDA:245,0,19,-
BRDA:245,0,20,-
BRDA:245,0,21,-
BRDA:245,0,22,-
BRDA:245,0,23,-
BRDA:245,0,24,-
BRDA:245,0,25,-
BRDA:245,0,26,-
BRDA:245,0,27,-
BRDA:245,0,28,-
BRDA:245,0,29,-
BRDA:245,0,30,-
BRDA:245,0,31,-
BRDA:245,0,32,-
BRDA:245,0,33,-
BRDA:245,0,34,-
BRDA:245,0,35,-
BRDA:245,0,36,-
BRDA:245,0,37,-
BRDA:245,0,38,-
BRDA:245,0,39,-
BRDA:245,0,40,-
BRDA:245,0,41,-
BRDA:245,0,42,-
BRDA:245,0,43,-
BRDA:245,0,44,-
BRDA:245,0,45,-
BRDA:245,0,46,-
BRDA:245,0,47,-
BRDA:245,0,48,-
BRDA:245,0,49,-
BRDA:245,0,50,-
BRDA:245,0,51,-
BRDA:247,0,0,-
BRDA:247,0,1,-
BRDA:248,0,0,-
BRDA:248,0,1,-
BRDA:249,0,0,-
BRDA:249,0,1,-
BRDA:250,0,0,-
BRDA:250,0,1,-
BRDA:251,0,0,-
BRDA:251,0,1,-
BRDA:253,0,0,-
BRDA:253,0,1,-
BRDA:254,0,0,-
BRDA:254,0,1,-
BRDA:259,0,0,-
BRDA:259,0,1,-
BRDA:259,0,2,-
BRDA:259,0,3,-
BRDA:259,0,4,-
BRDA:259,0,5,-
BRDA:260,0,0,-
BRDA:260,0,1,-
BRDA:260,0,2,-
BRDA:260,0,3,-
BRDA:260,0,4,-
BRDA:260,0,5,-
BRDA:262,0,0,-
BRDA:262,0,1,-
BRDA:262,0,2,-
BRDA:262,0,3,-
BRDA:262,0,4,-
BRDA:262,0,5,-
BRDA:263,0,0,-
BRDA:263,0,1,-
BRDA:263,0,2,-
BRDA:263,0,3,-
BRDA:263,0,4,-
BRDA:263,0,5,-
BRDA:265,0,0,-
BRDA:265,0,1,-
BRDA:265,0,2,-
BRDA:265,0,3,-
BRDA:265,0,4,-
BRDA:265,0,5,-
BRDA:266,0,0,-
BRDA:266,0,1,-
BRDA:266,0,2,-
BRDA:266,0,3,-
BRDA:266,0,4,-
BRDA:266,0,5,-
BRDA:268,0,0,-
BRDA:268,0,1,-
BRDA:268,0,2,-
BRDA:268,0,3,-
BRDA:268,0,4,-
BRDA:268,0,5,-
BRDA:269,0,0,-
BRDA:269,0,1,-
BRDA:269,0,2,-
BRDA:269,0,3,-
BRDA:269,0,4,-
BRDA:269,0,5,-
BRDA:271,0,0,-
BRDA:271,0,1,-
BRDA:271,0,2,-
BRDA:271,0,3,-
BRDA:271,0,4,-
BRDA:271,0,5,-
BRDA:272,0,0,-
BRDA:272,0,1,-
BRDA:272,0,2,-
BRDA:272,0,3,-
BRDA:272,0,4,-
BRDA:272,0,5,-
BRDA:274,0,0,-
BRDA:274,0,1,-
BRDA:274,0,2,-
BRDA:274,0,3,-
BRDA:274,0,4,-
BRDA:274,0,5,-
BRDA:274,0,6,-
BRDA:274,0,7,-
BRDA:274,0,8,-
BRDA:274,0,9,-
BRDA:274,0,10,-
BRDA:274,0,11,-
BRDA:274,0,12,-
BRDA:274,0,13,-
BRDA:274,0,14,-
BRDA:274,0,15,-
BRDA:274,0,16,-
BRDA:274,0,17,-
BRDA:274,0,18,-
BRDA:274,0,19,-
BRDA:275,0,0,-
BRDA:275,0,1,-
BRDA:275,0,2,-
BRDA:275,0,3,-
BRDA:275,0,4,-
BRDA:275,0,5,-
BRDA:277,0,0,-
BRDA:277,0,1,-
BRDA:277,0,2,-
BRDA:277,0,3,-
BRDA:277,0,4,-
BRDA:277,0,5,-
BRDA:278,0,0,-
BRDA:278,0,1,-
BRDA:278,0,2,-
BRDA:278,0,3,-
BRDA:278,0,4,-
BRDA:278,0,5,-
BRDA:283,0,0,-
BRDA:283,0,1,-
BRDA:283,0,2,-
BRDA:283,0,3,-
BRDA:283,0,4,-
BRDA:283,0,5,-
BRDA:283,0,6,-
BRDA:283,0,7,-
BRDA:283,0,8,-
BRDA:283,0,9,-
BRDA:283,0,10,-
BRDA:283,0,11,-
BRDA:283,0,12,-
BRDA:283,0,13,-
BRDA:283,0,14,-
BRDA:283,0,15,-
BRDA:283,0,16,-
BRDA:283,0,17,-
BRDA:283,0,18,-
BRDA:283,0,19,-
BRDA:283,0,20,-
BRDA:283,0,21,-
BRDA:283,0,22,-
BRDA:283,0,23,-
BRDA:283,0,24,-
BRDA:283,0,25,-
BRDA:283,0,26,-
BRDA:283,0,27,-
BRDA:283,0,28,-
BRDA:283,0,29,-
BRDA:283,0,30,-
BRDA:283,0,31,-
BRDA:283,0,32,-
BRDA:283,0,33,-
BRDA:283,0,34,-
BRDA:283,0,35,-
BRDA:283,0,36,-
BRDA:283,0,37,-
BRDA:283,0,38,-
BRDA:283,0,39,-
BRDA:283,0,40,-
BRDA:283,0,41,-
BRDA:283,0,42,-
BRDA:283,0,43,-
BRDA:286,0,0,-
BRDA:286,0,1,-
BRDA:287,0,0,-
BRDA:287,0,1,-
BRDA:288,0,0,-
BRDA:288,0,1,-
BRDA:293,0,0,-
BRDA:293,0,1,-
BRDA:293,0,2,-
BRDA:293,0,3,-
BRDA:293,0,4,-
BRDA:293,0,5,-
BRDA:294,0,0,-
BRDA:294,0,1,-
BRDA:294,0,2,-
BRDA:294,0,3,-
BRDA:294,0,4,-
BRDA:294,0,5,-
BRDA:296,0,0,-
BRDA:296,0,1,-
BRDA:296,0,2,-
BRDA:296,0,3,-
BRDA:296,0,4,-
BRDA:296,0,5,-
BRDA:297,0,0,-
BRDA:297,0,1,-
BRDA:297,0,2,-
BRDA:297,0,3,-
BRDA:297,0,4,-
BRDA:297,0,5,-
BRDA:299,0,0,-
BRDA:299,0,1,-
BRDA:299,0,2,-
BRDA:299,0,3,-
BRDA:299,0,4,-
BRDA:299,0,5,-
BRDA:300,0,0,-
BRDA:300,0,1,-
BRDA:300,0,2,-
BRDA:300,0,3,-
BRDA:300,0,4,-
BRDA:300,0,5,-
BRDA:302,0,0,-
BRDA:302,0,1,-
BRDA:302,0,2,-
BRDA:302,0,3,-
BRDA:302,0,4,-
BRDA:302,0,5,-
BRDA:303,0,0,-
BRDA:303,0,1,-
BRDA:303,0,2,-
BRDA:303,0,3,-
BRDA:303,0,4,-
BRDA:303,0,5,-
BRDA:305,0,0,-
BRDA:305,0,1,-
BRDA:305,0,2,-
BRDA:305,0,3,-
BRDA:305,0,4,-
BRDA:305,0,5,-
BRDA:306,0,0,-
BRDA:306,0,1,-
BRDA:306,0,2,-
BRDA:306,0,3,-
BRDA:306,0,4,-
BRDA:306,0,5,-
BRDA:311,0,0,-
BRDA:311,0,1,-
BRDA:311,0,2,-
BRDA:311,0,3,-
BRDA:311,0,4,-
BRDA:311,0,5,-
BRDA:311,0,6,-
BRDA:311,0,7,-
BRDA:311,0,8,-
BRDA:311,0,9,-
BRDA:311,0,10,-
BRDA:311,0,11,-
BRDA:311,0,12,-
BRDA:311,0,13,-
BRDA:311,0,14,-
BRDA:311,0,15,-
BRDA:311,0,16,-
BRDA:311,0,17,-
BRDA:311,0,18,-
BRDA:311,0,19,-
BRDA:311,0,20,-
BRDA:311,0,21,-
BRDA:311,0,22,-
BRDA:311,0,23,-
BRDA:311,0,24,-
BRDA:311,0,25,-
BRDA:311,0,26,-
BRDA:311,0,27,-
BRDA:311,0,28,-
BRDA:311,0,29,-
BRDA:311,0,30,-
BRDA:311,0,31,-
BRDA:311,0,32,-
BRDA:311,0,33,-
BRDA:311,0,34,-
BRDA:311,0,35,-
BRDA:311,0,36,-
BRDA:311,0,37,-
BRDA:311,0,38,-
BRDA:311,0,39,-
BRDA:311,0,40,-
BRDA:311,0,41,-
BRDA:311,0,42,-
BRDA:311,0,43,-
BRDA:311,0,44,-
BRDA:311,0,45,-
BRDA:311,0,46,-
BRDA:311,0,47,-
BRDA:311,0,48,-
BRDA:311,0,49,-
BRDA:311,0,50,-
BRDA:311,0,51,-
BRDA:311,0,52,-
BRDA:311,0,53,-
BRDA:311,0,54,-
BRDA:311,0,55,-
BRDA:311,0,56,-
BRDA:311,0,57,-
BRDA:311,0,58,-
BRDA:311,0,59,-
BRDA:311,0,60,-
BRDA:311,0,61,-
BRDA:311,0,62,-
BRDA:311,0,63,-
BRDA:311,0,64,-
BRDA:311,0,65,-
BRDA:311,0,66,-
BRDA:311,0,67,-
BRDA:311,0,68,-
BRDA:311,0,69,-
BRDA:311,0,70,-
BRDA:311,0,71,-
BRDA:311,0,72,-
BRDA:311,0,73,-
BRDA:311,0,74,-
BRDA:311,0,75,-
BRDA:313,0,0,-
BRDA:313,0,1,-
BRDA:314,0,0,-
BRDA:314,0,1,-
BRDA:315,0,0,-
BRDA:315,0,1,-
BRDA:316,0,0,-
BRDA:316,0,1,-
BRDA:317,0,0,-
BRDA:317,0,1,-
BRDA:325,0,0,-
BRDA:325,0,1,-
BRDA:325,0,2,-
BRDA:325,0,3,-
BRDA:325,0,4,-
BRDA:325,0,5,-
BRDA:326,0,0,-
BRDA:326,0,1,-
BRDA:326,0,2,-
BRDA:326,0,3,-
BRDA:326,0,4,-
BRDA:326,0,5,-
BRDA:328,0,0,-
BRDA:328,0,1,-
BRDA:328,0,2,-
BRDA:328,0,3,-
BRDA:328,0,4,-
BRDA:328,0,5,-
BRDA:329,0,0,-
BRDA:329,0,1,-
BRDA:329,0,2,-
BRDA:329,0,3,-
BRDA:329,0,4,-
BRDA:329,0,5,-
BRDA:331,0,0,-
BRDA:331,0,1,-
BRDA:331,0,2,-
BRDA:331,0,3,-
BRDA:331,0,4,-
BRDA:331,0,5,-
BRDA:332,0,0,-
BRDA:332,0,1,-
BRDA:332,0,2,-
BRDA:332,0,3,-
BRDA:332,0,4,-
BRDA:332,0,5,-
BRDA:334,0,0,-
BRDA:334,0,1,-
BRDA:334,0,2,-
BRDA:334,0,3,-
BRDA:334,0,4,-
BRDA:334,0,5,-
BRDA:335,0,0,-
BRDA:335,0,1,-
BRDA:335,0,2,-
BRDA:335,0,3,-
BRDA:335,0,4,-
BRDA:335,0,5,-
BRDA:337,0,0,-
BRDA:337,0,1,-
BRDA:337,0,2,-
BRDA:337,0,3,-
BRDA:337,0,4,-
BRDA:337,0,5,-
BRDA:338,0,0,-
BRDA:338,0,1,-
BRDA:338,0,2,-
BRDA:338,0,3,-
BRDA:338,0,4,-
BRDA:338,0,5,-
BRDA:340,0,0,-
BRDA:340,0,1,-
BRDA:340,0,2,-
BRDA:340,0,3,-
BRDA:340,0,4,-
BRDA:340,0,5,-
BRDA:341,0,0,-
BRDA:341,0,1,-
BRDA:341,0,2,-
BRDA:341,0,3,-
BRDA:341,0,4,-
BRDA:341,0,5,-
BRDA:343,0,0,-
BRDA:343,0,1,-
BRDA:343,0,2,-
BRDA:343,0,3,-
BRDA:343,0,4,-
BRDA:343,0,5,-
BRDA:344,0,0,-
BRDA:344,0,1,-
BRDA:344,0,2,-
BRDA:344,0,3,-
BRDA:344,0,4,-
BRDA:344,0,5,-
BRDA:346,0,0,-
BRDA:346,0,1,-
BRDA:346,0,2,-
BRDA:346,0,3,-
BRDA:346,0,4,-
BRDA:346,0,5,-
BRDA:347,0,0,-
BRDA:347,0,1,-
BRDA:347,0,2,-
BRDA:347,0,3,-
BRDA:347,0,4,-
BRDA:347,0,5,-
BRDA:349,0,0,-
BRDA:349,0,1,-
BRDA:349,0,2,-
BRDA:349,0,3,-
BRDA:349,0,4,-
BRDA:349,0,5,-
BRDA:350,0,0,-
BRDA:350,0,1,-
BRDA:350,0,2,-
BRDA:350,0,3,-
BRDA:350,0,4,-
BRDA:350,0,5,-
BRDA:355,0,0,-
BRDA:355,0,1,-
BRDA:355,0,2,-
BRDA:355,0,3,-
BRDA:355,0,4,-
BRDA:355,0,5,-
BRDA:355,0,6,-
BRDA:355,0,7,-
BRDA:355,0,8,-
BRDA:355,0,9,-
BRDA:355,0,10,-
BRDA:355,0,11,-
BRDA:355,0,12,-
BRDA:355,0,13,-
BRDA:355,0,14,-
BRDA:355,0,15,-
BRDA:355,0,16,-
BRDA:355,0,17,-
BRDA:355,0,18,-
BRDA:355,0,19,-
BRDA:355,0,20,-
BRDA:355,0,21,-
BRDA:355,0,22,-
BRDA:355,0,23,-
BRDA:355,0,24,-
BRDA:355,0,25,-
BRDA:355,0,26,-
BRDA:355,0,27,-
BRDA:355,0,28,-
BRDA:355,0,29,-
BRDA:355,0,30,-
BRDA:355,0,31,-
BRDA:355,0,32,-
BRDA:355,0,33,-
BRDA:355,0,34,-
BRDA:355,0,35,-
BRDA:355,0,36,-
BRDA:355,0,37,-
BRDA:355,0,38,-
BRDA:355,0,39,-
BRDA:355,0,40,-
BRDA:355,0,41,-
BRDA:355,0,42,-
BRDA:355,0,43,-
BRDA:355,0,44,-
BRDA:355,0,45,-
BRDA:355,0,46,-
BRDA:355,0,47,-
BRDA:355,0,48,-
BRDA:355,0,49,-
BRDA:355,0,50,-
BRDA:355,0,51,-
BRDA:355,0,52,-
BRDA:355,0,53,-
BRDA:355,0,54,-
BRDA:355,0,55,-
BRDA:355,0,56,-
BRDA:355,0,57,-
BRDA:355,0,58,-
BRDA:355,0,59,-
BRDA:355,0,60,-
BRDA:355,0,61,-
BRDA:355,0,62,-
BRDA:355,0,63,-
BRDA:355,0,64,-
BRDA:355,0,65,-
BRDA:355,0,66,-
BRDA:355,0,67,-
BRDA:355,0,68,-
BRDA:355,0,69,-
BRDA:355,0,70,-
BRDA:355,0,71,-
BRDA:355,0,72,-
BRDA:355,0,73,-
BRDA:355,0,74,-
BRDA:355,0,75,-
BRDA:369,0,0,-
BRDA:369,0,1,-
BRDA:369,0,2,-
BRDA:369,0,3,-
BRDA:369,0,4,-
BRDA:369,0,5,-
BRDA:370,0,0,-
BRDA:370,0,1,-
BRDA:370,0,2,-
BRDA:370,0,3,-
BRDA:370,0,4,-
BRDA:370,0,5,-
BRDA:372,0,0,-
BRDA:372,0,1,-
BRDA:372,0,2,-
BRDA:372,0,3,-
BRDA:372,0,4,-
BRDA:372,0,5,-
BRDA:373,0,0,-
BRDA:373,0,1,-
BRDA:373,0,2,-
BRDA:373,0,3,-
BRDA:373,0,4,-
BRDA:373,0,5,-
BRDA:375,0,0,-
BRDA:375,0,1,-
BRDA:375,0,2,-
BRDA:375,0,3,-
BRDA:375,0,4,-
BRDA:375,0,5,-
BRDA:376,0,0,-
BRDA:376,0,1,-
BRDA:376,0,2,-
BRDA:376,0,3,-
BRDA:376,0,4,-
BRDA:376,0,5,-
BRDA:378,0,0,-
BRDA:378,0,1,-
BRDA:378,0,2,-
BRDA:378,0,3,-
BRDA:378,0,4,-
BRDA:378,0,5,-
BRDA:379,0,0,-
BRDA:379,0,1,-
BRDA:379,0,2,-
BRDA:379,0,3,-
BRDA:379,0,4,-
BRDA:379,0,5,-
BRDA:381,0,0,-
BRDA:381,0,1,-
BRDA:381,0,2,-
BRDA:381,0,3,-
BRDA:381,0,4,-
BRDA:381,0,5,-
BRDA:382,0,0,-
BRDA:382,0,1,-
BRDA:382,0,2,-
BRDA:382,0,3,-
BRDA:382,0,4,-
BRDA:382,0,5,-
BRDA:384,0,0,-
BRDA:384,0,1,-
BRDA:384,0,2,-
BRDA:384,0,3,-
BRDA:384,0,4,-
BRDA:384,0,5,-
BRDA:385,0,0,-
BRDA:385,0,1,-
BRDA:385,0,2,-
BRDA:385,0,3,-
BRDA:385,0,4,-
BRDA:385,0,5,-
BRDA:387,0,0,-
BRDA:387,0,1,-
BRDA:387,0,2,-
BRDA:387,0,3,-
BRDA:387,0,4,-
BRDA:387,0,5,-
BRDA:388,0,0,-
BRDA:388,0,1,-
BRDA:388,0,2,-
BRDA:388,0,3,-
BRDA:388,0,4,-
BRDA:388,0,5,-
BRDA:390,0,0,-
BRDA:390,0,1,-
BRDA:390,0,2,-
BRDA:390,0,3,-
BRDA:390,0,4,-
BRDA:390,0,5,-
BRDA:391,0,0,-
BRDA:391,0,1,-
BRDA:391,0,2,-
BRDA:391,0,3,-
BRDA:391,0,4,-
BRDA:391,0,5,-
BRDA:393,0,0,-
BRDA:393,0,1,-
BRDA:393,0,2,-
BRDA:393,0,3,-
BRDA:393,0,4,-
BRDA:393,0,5,-
BRDA:394,0,0,-
BRDA:394,0,1,-
BRDA:394,0,2,-
BRDA:394,0,3,-
BRDA:394,0,4,-
BRDA:394,0,5,-
BRDA:399,0,0,-
BRDA:399,0,1,-
BRDA:399,0,2,-
BRDA:399,0,3,-
BRDA:399,0,4,-
BRDA:399,0,5,-
BRDA:399,0,6,-
BRDA:399,0,7,-
BRDA:399,0,8,-
BRDA:399,0,9,-
BRDA:399,0,10,-
BRDA:399,0,11,-
BRDA:399,0,12,-
BRDA:399,0,13,-
BRDA:399,0,14,-
BRDA:399,0,15,-
BRDA:399,0,16,-
BRDA:399,0,17,-
BRDA:399,0,18,-
BRDA:399,0,19,-
BRDA:399,0,20,-
BRDA:399,0,21,-
BRDA:399,0,22,-
BRDA:399,0,23,-
BRDA:399,0,24,-
BRDA:399,0,25,-
BRDA:399,0,26,-
BRDA:399,0,27,-
BRDA:399,0,28,-
BRDA:399,0,29,-
BRDA:399,0,30,-
BRDA:399,0,31,-
BRDA:399,0,32,-
BRDA:399,0,33,-
BRDA:399,0,34,-
BRDA:399,0,35,-
BRDA:399,0,36,-
BRDA:399,0,37,-
BRDA:399,0,38,-
BRDA:399,0,39,-
BRDA:399,0,40,-
BRDA:399,0,41,-
BRDA:399,0,42,-
BRDA:399,0,43,-
BRDA:399,0,44,-
BRDA:399,0,45,-
BRDA:399,0,46,-
BRDA:399,0,47,-
BRDA:399,0,48,-
BRDA:399,0,49,-
BRDA:399,0,50,-
BRDA:399,0,51,-
BRDA:399,0,52,-
BRDA:399,0,53,-
BRDA:399,0,54,-
BRDA:399,0,55,-
BRDA:399,0,56,-
BRDA:399,0,57,-
BRDA:399,0,58,-
BRDA:399,0,59,-
BRDA:399,0,60,-
BRDA:399,0,61,-
BRDA:399,0,62,-
BRDA:399,0,63,-
BRDA:399,0,64,-
BRDA:399,0,65,-
BRDA:399,0,66,-
BRDA:399,0,67,-
BRDA:399,0,68,-
BRDA:399,0,69,-
BRDA:399,0,70,-
BRDA:399,0,71,-
BRDA:399,0,72,-
BRDA:399,0,73,-
BRDA:399,0,74,-
BRDA:399,0,75,-
BRDA:399,0,76,-
BRDA:399,0,77,-
BRDA:399,0,78,-
BRDA:399,0,79,-
BRDA:399,0,80,-
BRDA:399,0,81,-
BRDA:399,0,82,-
BRDA:399,0,83,-
BRDA:401,0,0,-
BRDA:401,0,1,-
BRDA:414,0,0,-
BRDA:414,0,1,-
BRDA:414,0,2,-
BRDA:414,0,3,-
BRDA:414,0,4,-
BRDA:414,0,5,-
BRDA:415,0,0,-
BRDA:415,0,1,-
BRDA:415,0,2,-
BRDA:415,0,3,-
BRDA:415,0,4,-
BRDA:415,0,5,-
BRDA:417,0,0,-
BRDA:417,0,1,-
BRDA:417,0,2,-
BRDA:417,0,3,-
BRDA:417,0,4,-
BRDA:417,0,5,-
BRDA:418,0,0,-
BRDA:418,0,1,-
BRDA:418,0,2,-
BRDA:418,0,3,-
BRDA:418,0,4,-
BRDA:418,0,5,-
BRDA:420,0,0,-
BRDA:420,0,1,-
BRDA:420,0,2,-
BRDA:420,0,3,-
BRDA:420,0,4,-
BRDA:420,0,5,-
BRDA:421,0,0,-
BRDA:421,0,1,-
BRDA:421,0,2,-
BRDA:421,0,3,-
BRDA:421,0,4,-
BRDA:421,0,5,-
BRDA:423,0,0,-
BRDA:423,0,1,-
BRDA:423,0,2,-
BRDA:423,0,3,-
BRDA:423,0,4,-
BRDA:423,0,5,-
BRDA:424,0,0,-
BRDA:424,0,1,-
BRDA:424,0,2,-
BRDA:424,0,3,-
BRDA:424,0,4,-
BRDA:424,0,5,-
BRDA:426,0,0,-
BRDA:426,0,1,-
BRDA:426,0,2,-
BRDA:426,0,3,-
BRDA:426,0,4,-
BRDA:426,0,5,-
BRDA:427,0,0,-
BRDA:427,0,1,-
BRDA:427,0,2,-
BRDA:427,0,3,-
BRDA:427,0,4,-
BRDA:427,0,5,-
BRDA:429,0,0,-
BRDA:429,0,1,-
BRDA:429,0,2,-
BRDA:429,0,3,-
BRDA:429,0,4,-
BRDA:429,0,5,-
BRDA:430,0,0,-
BRDA:430,0,1,-
BRDA:430,0,2,-
BRDA:430,0,3,-
BRDA:430,0,4,-
BRDA:430,0,5,-
BRDA:432,0,0,-
BRDA:432,0,1,-
BRDA:432,0,2,-
BRDA:432,0,3,-
BRDA:432,0,4,-
BRDA:432,0,5,-
BRDA:433,0,0,-
BRDA:433,0,1,-
BRDA:433,0,2,-
BRDA:433,0,3,-
BRDA:433,0,4,-
BRDA:433,0,5,-
BRDA:435,0,0,-
BRDA:435,0,1,-
BRDA:435,0,2,-
BRDA:435,0,3,-
BRDA:435,0,4,-
BRDA:435,0,5,-
BRDA:436,0,0,-
BRDA:436,0,1,-
BRDA:436,0,2,-
BRDA:436,0,3,-
BRDA:436,0,4,-
BRDA:436,0,5,-
BRDA:438,0,0,-
BRDA:438,0,1,-
BRDA:438,0,2,-
BRDA:438,0,3,-
BRDA:438,0,4,-
BRDA:438,0,5,-
BRDA:439,0,0,-
BRDA:439,0,1,-
BRDA:439,0,2,-
BRDA:439,0,3,-
BRDA:439,0,4,-
BRDA:439,0,5,-
BRDA:444,0,0,-
BRDA:444,0,1,-
BRDA:444,0,2,-
BRDA:444,0,3,-
BRDA:444,0,4,-
BRDA:444,0,5,-
BRDA:444,0,6,-
BRDA:444,0,7,-
BRDA:444,0,8,-
BRDA:444,0,9,-
BRDA:444,0,10,-
BRDA:444,0,11,-
BRDA:444,0,12,-
BRDA:444,0,13,-
BRDA:444,0,14,-
BRDA:444,0,15,-
BRDA:444,0,16,-
BRDA:444,0,17,-
BRDA:444,0,18,-
BRDA:444,0,19,-
BRDA:444,0,20,-
BRDA:444,0,21,-
BRDA:444,0,22,-
BRDA:444,0,23,-
BRDA:444,0,24,-
BRDA:444,0,25,-
BRDA:444,0,26,-
BRDA:444,0,27,-
BRDA:447,0,0,-
BRDA:447,0,1,-
BRDA:452,0,0,-
BRDA:452,0,1,-
BRDA:452,0,2,-
BRDA:452,0,3,-
BRDA:452,0,4,-
BRDA:452,0,5,-
BRDA:453,0,0,-
BRDA:453,0,1,-
BRDA:453,0,2,-
BRDA:453,0,3,-
BRDA:453,0,4,-
BRDA:453,0,5,-
BRDA:455,0,0,-
BRDA:455,0,1,-
BRDA:455,0,2,-
BRDA:455,0,3,-
BRDA:455,0,4,-
BRDA:455,0,5,-
BRDA:456,0,0,-
BRDA:456,0,1,-
BRDA:456,0,2,-
BRDA:456,0,3,-
BRDA:456,0,4,-
BRDA:456,0,5,-
BRDA:458,0,0,-
BRDA:458,0,1,-
BRDA:458,0,2,-
BRDA:458,0,3,-
BRDA:458,0,4,-
BRDA:458,0,5,-
BRDA:459,0,0,-
BRDA:459,0,1,-
BRDA:459,0,2,-
BRDA:459,0,3,-
BRDA:459,0,4,-
BRDA:459,0,5,-
BRDA:464,0,0,-
BRDA:464,0,1,-
BRDA:464,0,2,-
BRDA:464,0,3,-
BRDA:464,0,4,-
BRDA:464,0,5,-
BRDA:464,0,6,-
BRDA:464,0,7,-
BRDA:464,0,8,-
BRDA:464,0,9,-
BRDA:464,0,10,-
BRDA:464,0,11,-
BRDA:464,0,12,-
BRDA:464,0,13,-
BRDA:464,0,14,-
BRDA:464,0,15,-
BRDA:464,0,16,-
BRDA:464,0,17,-
BRDA:464,0,18,-
BRDA:464,0,19,-
BRDA:464,0,20,-
BRDA:464,0,21,-
BRDA:464,0,22,-
BRDA:464,0,23,-
BRDA:464,0,24,-
BRDA:464,0,25,-
BRDA:464,0,26,-
BRDA:464,0,27,-
BRDA:464,0,28,-
BRDA:464,0,29,-
BRDA:464,0,30,-
BRDA:464,0,31,-
BRDA:464,0,32,-
BRDA:464,0,33,-
BRDA:464,0,34,-
BRDA:464,0,35,-
BRDA:464,0,36,-
BRDA:464,0,37,-
BRDA:464,0,38,-
BRDA:464,0,39,-
BRDA:464,0,40,-
BRDA:464,0,41,-
BRDA:464,0,42,-
BRDA:464,0,43,-
BRDA:464,0,44,-
BRDA:464,0,45,-
BRDA:464,0,46,-
BRDA:464,0,47,-
BRDA:464,0,48,-
BRDA:464,0,49,-
BRDA:464,0,50,-
BRDA:464,0,51,-
BRDA:464,0,52,-
BRDA:464,0,53,-
BRDA:464,0,54,-
BRDA:464,0,55,-
BRDA:464,0,56,-
BRDA:464,0,57,-
BRDA:464,0,58,-
BRDA:464,0,59,-
BRDA:464,0,60,-
BRDA:464,0,61,-
BRDA:464,0,62,-
BRDA:464,0,63,-
BRDA:464,0,64,-
BRDA:464,0,65,-
BRDA:464,0,66,-
BRDA:464,0,67,-
BRDA:464,0,68,-
BRDA:464,0,69,-
BRDA:464,0,70,-
BRDA:464,0,71,-
BRDA:464,0,72,-
BRDA:464,0,73,-
BRDA:464,0,74,-
BRDA:464,0,75,-
BRDA:464,0,76,-
BRDA:464,0,77,-
BRDA:464,0,78,-
BRDA:464,0,79,-
BRDA:464,0,80,-
BRDA:464,0,81,-
BRDA:464,0,82,-
BRDA:464,0,83,-
BRDA:464,0,84,-
BRDA:464,0,85,-
BRDA:464,0,86,-
BRDA:464,0,87,-
BRDA:464,0,88,-
BRDA:464,0,89,-
BRDA:464,0,90,-
BRDA:464,0,91,-
BRDA:464,0,92,-
BRDA:464,0,93,-
BRDA:464,0,94,-
BRDA:464,0,95,-
BRDA:464,0,96,-
BRDA:464,0,97,-
BRDA:464,0,98,-
BRDA:464,0,99,-
BRDA:464,0,100,-
BRDA:464,0,101,-
BRDA:464,0,102,-
BRDA:464,0,103,-
BRDA:464,0,104,-
BRDA:464,0,105,-
BRDA:464,0,106,-
BRDA:464,0,107,-
BRDA:464,0,108,-
BRDA:464,0,109,-
BRDA:464,0,110,-
BRDA:464,0,111,-
BRDA:464,0,112,-
BRDA:464,0,113,-
BRDA:464,0,114,-
BRDA:464,0,115,-
BRDA:464,0,116,-
BRDA:464,0,117,-
BRDA:464,0,118,-
BRDA:464,0,119,-
BRDA:464,0,120,-
BRDA:464,0,121,-
BRDA:464,0,122,-
BRDA:464,0,123,-
BRDA:464,0,124,-
BRDA:464,0,125,-
BRDA:464,0,126,-
BRDA:464,0,127,-
BRDA:464,0,128,-
BRDA:464,0,129,-
BRDA:464,0,130,-
BRDA:464,0,131,-
BRDA:464,0,132,-
BRDA:464,0,133,-
BRDA:464,0,134,-
BRDA:464,0,135,-
BRDA:464,0,136,-
BRDA:464,0,137,-
BRDA:464,0,138,-
BRDA:464,0,139,-
BRDA:464,0,140,-
BRDA:464,0,141,-
BRDA:464,0,142,-
BRDA:464,0,143,-
BRDA:464,0,144,-
BRDA:464,0,145,-
BRDA:464,0,146,-
BRDA:464,0,147,-
BRDA:464,0,148,-
BRDA:464,0,149,-
BRDA:464,0,150,-
BRDA:464,0,151,-
BRDA:464,0,152,-
BRDA:464,0,153,-
BRDA:464,0,154,-
BRDA:464,0,155,-
BRDA:464,0,156,-
BRDA:464,0,157,-
BRDA:464,0,158,-
BRDA:464,0,159,-
BRDA:464,0,160,-
BRDA:464,0,161,-
BRDA:464,0,162,-
BRDA:464,0,163,-
BRDA:464,0,164,-
BRDA:464,0,165,-
BRDA:464,0,166,-
BRDA:464,0,167,-
BRDA:464,0,168,-
BRDA:464,0,169,-
BRDA:464,0,170,-
BRDA:464,0,171,-
BRDA:464,0,172,-
BRDA:464,0,173,-
BRDA:464,0,174,-
BRDA:464,0,175,-
BRDA:464,0,176,-
BRDA:464,0,177,-
BRDA:464,0,178,-
BRDA:464,0,179,-
BRDA:464,0,180,-
BRDA:464,0,181,-
BRDA:464,0,182,-
BRDA:464,0,183,-
BRDA:464,0,184,-
BRDA:464,0,185,-
BRDA:464,0,186,-
BRDA:464,0,187,-
BRDA:464,0,188,-
BRDA:464,0,189,-
BRDA:464,0,190,-
BRDA:464,0,191,-
BRDA:464,0,192,-
BRDA:464,0,193,-
BRDA:464,0,194,-
BRDA:464,0,195,-
BRDA:464,0,196,-
BRDA:464,0,197,-
BRDA:464,0,198,-
BRDA:464,0,199,-
BRDA:464,0,200,-
BRDA:464,0,201,-
BRDA:464,0,202,-
BRDA:464,0,203,-
BRDA:464,0,204,-
BRDA:464,0,205,-
BRDA:464,0,206,-
BRDA:464,0,207,-
BRDA:464,0,208,-
BRDA:464,0,209,-
BRDA:464,0,210,-
BRDA:464,0,211,-
BRDA:464,0,212,-
BRDA:464,0,213,-
BRDA:464,0,214,-
BRDA:464,0,215,-
BRDA:464,0,216,-
BRDA:464,0,217,-
BRDA:464,0,218,-
BRDA:464,0,219,-
BRDA:464,0,220,-
BRDA:464,0,221,-
BRDA:464,0,222,-
BRDA:464,0,223,-
BRDA:466,0,0,-
BRDA:466,0,1,-
BRDA:467,0,0,-
BRDA:467,0,1,-
BRDA:469,0,0,-
BRDA:469,0,1,-
BRDA:471,0,0,-
BRDA:471,0,1,-
BRDA:472,0,0,-
BRDA:472,0,1,-
BRDA:475,0,0,-
BRDA:475,0,1,-
BRDA:478,0,0,-
BRDA:478,0,1,-
BRDA:479,0,0,-
BRDA:479,0,1,-
BRDA:495,0,0,-
BRDA:495,0,1,-
BRDA:495,0,2,-
BRDA:495,0,3,-
BRDA:495,0,4,-
BRDA:495,0,5,-
BRDA:496,0,0,-
BRDA:496,0,1,-
BRDA:496,0,2,-
BRDA:496,0,3,-
BRDA:496,0,4,-
BRDA:496,0,5,-
BRDA:498,0,0,-
BRDA:498,0,1,-
BRDA:498,0,2,-
BRDA:498,0,3,-
BRDA:498,0,4,-
BRDA:498,0,5,-
BRDA:499,0,0,-
BRDA:499,0,1,-
BRDA:499,0,2,-
BRDA:499,0,3,-
BRDA:499,0,4,-
BRDA:499,0,5,-
BRDA:501,0,0,-
BRDA:501,0,1,-
BRDA:501,0,2,-
BRDA:501,0,3,-
BRDA:501,0,4,-
BRDA:501,0,5,-
BRDA:502,0,0,-
BRDA:502,0,1,-
BRDA:502,0,2,-
BRDA:502,0,3,-
BRDA:502,0,4,-
BRDA:502,0,5,-
BRDA:504,0,0,-
BRDA:504,0,1,-
BRDA:504,0,2,-
BRDA:504,0,3,-
BRDA:504,0,4,-
BRDA:504,0,5,-
BRDA:505,0,0,-
BRDA:505,0,1,-
BRDA:505,0,2,-
BRDA:505,0,3,-
BRDA:505,0,4,-
BRDA:505,0,5,-
BRDA:507,0,0,-
BRDA:507,0,1,-
BRDA:507,0,2,-
BRDA:507,0,3,-
BRDA:507,0,4,-
BRDA:507,0,5,-
BRDA:508,0,0,-
BRDA:508,0,1,-
BRDA:508,0,2,-
BRDA:508,0,3,-
BRDA:508,0,4,-
BRDA:508,0,5,-
BRDA:510,0,0,-
BRDA:510,0,1,-
BRDA:510,0,2,-
BRDA:510,0,3,-
BRDA:510,0,4,-
BRDA:510,0,5,-
BRDA:511,0,0,-
BRDA:511,0,1,-
BRDA:511,0,2,-
BRDA:511,0,3,-
BRDA:511,0,4,-
BRDA:511,0,5,-
BRDA:513,0,0,-
BRDA:513,0,1,-
BRDA:513,0,2,-
BRDA:513,0,3,-
BRDA:513,0,4,-
BRDA:513,0,5,-
BRDA:514,0,0,-
BRDA:514,0,1,-
BRDA:514,0,2,-
BRDA:514,0,3,-
BRDA:514,0,4,-
BRDA:514,0,5,-
BRDA:516,0,0,-
BRDA:516,0,1,-
BRDA:516,0,2,-
BRDA:516,0,3,-
BRDA:516,0,4,-
BRDA:516,0,5,-
BRDA:517,0,0,-
BRDA:517,0,1,-
BRDA:517,0,2,-
BRDA:517,0,3,-
BRDA:517,0,4,-
BRDA:517,0,5,-
BRDA:519,0,0,-
BRDA:519,0,1,-
BRDA:519,0,2,-
BRDA:519,0,3,-
BRDA:519,0,4,-
BRDA:519,0,5,-
BRDA:520,0,0,-
BRDA:520,0,1,-
BRDA:520,0,2,-
BRDA:520,0,3,-
BRDA:520,0,4,-
BRDA:520,0,5,-
BRDA:522,0,0,-
BRDA:522,0,1,-
BRDA:522,0,2,-
BRDA:522,0,3,-
BRDA:522,0,4,-
BRDA:522,0,5,-
BRDA:523,0,0,-
BRDA:523,0,1,-
BRDA:523,0,2,-
BRDA:523,0,3,-
BRDA:523,0,4,-
BRDA:523,0,5,-
BRDA:525,0,0,-
BRDA:525,0,1,-
BRDA:525,0,2,-
BRDA:525,0,3,-
BRDA:525,0,4,-
BRDA:525,0,5,-
BRDA:526,0,0,-
BRDA:526,0,1,-
BRDA:526,0,2,-
BRDA:526,0,3,-
BRDA:526,0,4,-
BRDA:526,0,5,-
BRF:2178
BRH:0
DA:9,0
DA:10,0
DA:11,0
DA:13,0
DA:14,0
DA:15,0
DA:17,0
DA:18,0
DA:19,0
DA:21,0
DA:22,0
DA:23,0
DA:25,0
DA:26,0
DA:27,0
DA:28,0
DA:29,0
DA:30,0
DA:31,0
DA:32,0
DA:34,0
DA:35,0
DA:36,0
DA:38,0
DA:39,0
DA:41,0
DA:42,0
DA:44,0
DA:45,0
DA:47,0
DA:49,0
DA:50,0
DA:51,0
DA:52,0
DA:53,0
DA:54,0
DA:55,0
DA:57,0
DA:58,0
DA:59,0
DA:61,0
DA:62,0
DA:64,0
DA:65,0
DA:67,0
DA:69,0
DA:70,0
DA:71,0
DA:72,0
DA:73,0
DA:74,0
DA:76,0
DA:77,0
DA:78,0
DA:80,0
DA:81,0
DA:83,0
DA:85,0
DA:86,0
DA:87,0
DA:88,0
DA:89,0
DA:90,0
DA:91,0
DA:92,0
DA:93,0
DA:94,0
DA:96,0
DA:97,0
DA:99,0
DA:100,0
DA:102,0
DA:104,0
DA:105,0
DA:106,0
DA:107,0
DA:108,0
DA:109,0
DA:111,0
DA:112,0
DA:113,0
DA:115,0
DA:116,0
DA:118,0
DA:120,0
DA:121,0
DA:122,0
DA:123,0
DA:124,0
DA:125,0
DA:127,0
DA:128,0
DA:129,0
DA:131,0
DA:132,0
DA:134,0
DA:136,0
DA:137,0
DA:138,0
DA:139,0
DA:140,0
DA:141,0
DA:142,0
DA:144,0
DA:145,0
DA:146,0
DA:148,0
DA:149,0
DA:151,0
DA:152,0
DA:154,0
DA:156,0
DA:157,0
DA:158,0
DA:159,0
DA:160,0
DA:161,0
DA:162,0
DA:163,0
DA:164,0
DA:165,0
DA:167,0
DA:168,0
DA:169,0
DA:171,0
DA:172,0
DA:174,0
DA:175,0
DA:177,0
DA:178,0
DA:180,0
DA:181,0
DA:183,0
DA:184,0
DA:186,0
DA:188,0
DA:189,0
DA:190,0
DA:191,0
DA:192,0
DA:193,0
DA:194,0
DA:196,0
DA:197,0
DA:198,0
DA:200,0
DA:201,0
DA:203,0
DA:204,0
DA:206,0
DA:208,0
DA:209,0
DA:210,0
DA:211,0
DA:212,0
DA:213,0
DA:214,0
DA:215,0
DA:216,0
DA:218,0
DA:219,0
DA:221,0
DA:223,0
DA:224,0
DA:225,0
DA:227,0
DA:228,0
DA:230,0
DA:231,0
DA:233,0
DA:234,0
DA:236,0
DA:237,0
DA:239,0
DA:240,0
DA:242,0
DA:244,0
DA:245,0
DA:246,0
DA:247,0
DA:248,0
DA:249,0
DA:250,0
DA:251,0
DA:252,0
DA:253,0
DA:254,0
DA:256,0
DA:258,0
DA:259,0
DA:260,0
DA:262,0
DA:263,0
DA:265,0
DA:266,0
DA:268,0
DA:269,0
DA:271,0
DA:272,0
DA:274,0
DA:275,0
DA:277,0
DA:278,0
DA:280,0
DA:282,0
DA:283,0
DA:284,0
DA:285,0
DA:286,0
DA:287,0
DA:288,0
DA:289,0
DA:290,0
DA:292,0
DA:293,0
DA:294,0
DA:296,0
DA:297,0
DA:299,0
DA:300,0
DA:302,0
DA:303,0
DA:305,0
DA:306,0
DA:308,0
DA:310,0
DA:311,0
DA:312,0
DA:313,0
DA:314,0
DA:315,0
DA:316,0
DA:317,0
DA:318,0
DA:319,0
DA:320,0
DA:321,0
DA:322,0
DA:324,0
DA:325,0
DA:326,0
DA:328,0
DA:329,0
DA:331,0
DA:332,0
DA:334,0
DA:335,0
DA:337,0
DA:338,0
DA:340,0
DA:341,0
DA:343,0
DA:344,0
DA:346,0
DA:347,0
DA:349,0
DA:350,0
DA:352,0
DA:354,0
DA:355,0
DA:356,0
DA:357,0
DA:358,0
DA:359,0
DA:360,0
DA:361,0
DA:362,0
DA:363,0
DA:364,0
DA:365,0
DA:366,0
DA:368,0
DA:369,0
DA:370,0
DA:372,0
DA:373,0
DA:375,0
DA:376,0
DA:378,0
DA:379,0
DA:381,0
DA:382,0
DA:384,0
DA:385,0
DA:387,0
DA:388,0
DA:390,0
DA:391,0
DA:393,0
DA:394,0
DA:396,0
DA:398,0
DA:399,0
DA:400,0
DA:401,0
DA:402,0
DA:403,0
DA:404,0
DA:405,0
DA:406,0
DA:407,0
DA:408,0
DA:409,0
DA:410,0
DA:411,0
DA:413,0
DA:414,0
DA:415,0
DA:417,0
DA:418,0
DA:420,0
DA:421,0
DA:423,0
DA:424,0
DA:426,0
DA:427,0
DA:429,0
DA:430,0
DA:432,0
DA:433,0
DA:435,0
DA:436,0
DA:438,0
DA:439,0
DA:441,0
DA:443,0
DA:444,0
DA:445,0
DA:446,0
DA:447,0
DA:448,0
DA:449,0
DA:451,0
DA:452,0
DA:453,0
DA:455,0
DA:456,0
DA:458,0
DA:459,0
DA:461,0
DA:463,0
DA:464,0
DA:465,0
DA:466,0
DA:467,0
DA:468,0
DA:469,0
DA:470,0
DA:471,0
DA:472,0
DA:473,0
DA:475,0
DA:476,0
DA:477,0
DA:478,0
DA:479,0
DA:482,0
DA:485,0
DA:486,0
DA:487,0
DA:489,0
DA:490,0
DA:491,0
DA:492,0
DA:494,0
DA:495,0
DA:496,0
DA:498,0
DA:499,0
DA:501,0
DA:502,0
DA:504,0
DA:505,0
DA:507,0
DA:508,0
DA:510,0
DA:511,0
DA:513,0
DA:514,0
DA:516,0
DA:517,0
DA:519,0
DA:520,0
DA:522,0
DA:523,0
DA:525,0
DA:526,0
DA:528,0
LF:388
LH:0
end_of_record
TN:
SF:/home/xucong/caicAD/01datainfra/Aurora/aurora-edge-runtime/src/data_collection/common/data.h
FN:312,_ZN6aurora9collector15response_parserINS0_13UploadUrlRespEEEbRKNSt7__cxx1112basic_stringIcSt11char_traitsIcESaIcEEERT_
FN:312,_ZN6aurora9collector15response_parserINS0_18CompleteUploadRespEEEbRKNSt7__cxx1112basic_stringIcSt11char_traitsIcESaIcEEERT_
FN:312,_ZN6aurora9collector15response_parserINS0_16UploadStatusRespEEEbRKNSt7__cxx1112basic_stringIcSt11char_traitsIcESaIcEEERT_
FN:312,_ZN6aurora9collector15response_parserINS0_13QueryTaskRespEEEbRKNSt7__cxx1112basic_stringIcSt11char_traitsIcESaIcEEERT_
FN:323,_ZN6aurora9collector14GetLogTaskInfoERKNS0_13QueryTaskResp6ObjectENS0_10UploadTypeE
FNDA:0,_ZN6aurora9collector15response_parserINS0_13QueryTaskRespEEEbRKNSt7__cxx1112basic_stringIcSt11char_traitsIcESaIcEEERT_
FNDA:0,_ZN6aurora9collector14GetLogTaskInfoERKNS0_13QueryTaskResp6ObjectENS0_10UploadTypeE
FNDA:0,_ZN6aurora9collector15response_parserINS0_13UploadUrlRespEEEbRKNSt7__cxx1112basic_stringIcSt11char_traitsIcESaIcEEERT_
FNDA:0,_ZN6aurora9collector15response_parserINS0_16UploadStatusRespEEEbRKNSt7__cxx1112basic_stringIcSt11char_traitsIcESaIcEEERT_
FNDA:0,_ZN6aurora9collector15response_parserINS0_18CompleteUploadRespEEEbRKNSt7__cxx1112basic_stringIcSt11char_traitsIcESaIcEEERT_
FNF:5
FNH:0
BRDA:314,0,0,-
BRDA:314,0,1,-
BRDA:314,0,2,-
BRDA:314,0,3,-
BRDA:315,0,0,-
BRDA:315,0,1,-
BRDA:325,0,0,-
BRDA:325,0,1,-
BRDA:326,0,0,-
BRDA:326,0,1,-
BRDA:327,0,0,-
BRDA:327,0,1,-
BRDA:328,0,0,-
BRDA:328,0,1,-
BRDA:329,0,0,-
BRDA:329,0,1,-
BRF:16
BRH:0
DA:312,0
DA:314,0
DA:315,0
DA:316,0
DA:317,0
DA:319,0
DA:323,0
DA:324,0
DA:325,0
DA:326,0
DA:327,0
DA:328,0
DA:329,0
DA:330,0
DA:331,0
DA:332,0
LF:16
LH:0
end_of_record
TN:
SF:/home/xucong/caicAD/01datainfra/Aurora/aurora-edge-runtime/src/data_collection/common/log_config.cpp
FN:15,_ZN6aurora9collector9LogConfig11GetInstanceEv
FN:20,_ZN6aurora9collector9LogConfig4InitERKNSt7__cxx1112basic_stringIcSt11char_traitsIcESaIcEEE
FN:73,_ZNK6aurora9collector9LogConfig9GetConfigEv
FN:77,_ZN6aurora9collector9LogConfig10CheckValidERKNSt7__cxx1112basic_stringIcSt11char_traitsIcESaIcEEE
FN:87,_ZNK6aurora9collector9LogConfig15CheckFileExistsERKNSt7__cxx1112basic_stringIcSt11char_traitsIcESaIcEEE
FN:91,_ZNK6aurora9collector9LogConfig15CheckJsonFormatERKN8nlohmann10basic_jsonISt3mapSt6vectorNSt7__cxx1112basic_stringIcSt11char_traitsIcESaIcEEEblmdSaNS2_14adl_serializerEEE
FNDA:0,_ZNK6aurora9collector9LogConfig15CheckFileExistsERKNSt7__cxx1112basic_stringIcSt11char_traitsIcESaIcEEE
FNDA:0,_ZN6aurora9collector9LogConfig11GetInstanceEv
FNDA:0,_ZNK6aurora9collector9LogConfig15CheckJsonFormatERKN8nlohmann10basic_jsonISt3mapSt6vectorNSt7__cxx1112basic_stringIcSt11char_traitsIcESaIcEEEblmdSaNS2_14adl_serializerEEE
FNDA:0,_ZN6aurora9collector9LogConfig4InitERKNSt7__cxx1112basic_stringIcSt11char_traitsIcESaIcEEE
FNDA:0,_ZNK6aurora9collector9LogConfig9GetConfigEv
FNDA:0,_ZN6aurora9collector9LogConfig10CheckValidERKNSt7__cxx1112basic_stringIcSt11char_traitsIcESaIcEEE
FNF:6
FNH:0
BRDA:16,0,0,-
BRDA:16,0,1,-
BRDA:16,0,2,-
BRDA:16,0,3,-
BRDA:21,0,0,-
BRDA:21,0,1,-
BRDA:21,0,2,-
BRDA:21,0,3,-
BRDA:22,0,0,-
BRDA:22,0,1,-
BRDA:22,0,2,-
BRDA:22,0,3,-
BRDA:26,0,0,-
BRDA:26,0,1,-
BRDA:27,0,0,-
BRDA:27,0,1,-
BRDA:27,0,2,-
BRDA:27,0,3,-
BRDA:28,0,0,-
BRDA:28,0,1,-
BRDA:28,0,2,-
BRDA:28,0,3,-
BRDA:32,0,0,-
BRDA:32,0,1,-
BRDA:33,0,0,-
BRDA:33,0,1,-
BRDA:35,0,0,-
BRDA:35,0,1,-
BRDA:35,0,2,-
BRDA:35,0,3,-
BRDA:36,0,0,-
BRDA:36,0,1,-
BRDA:36,0,2,-
BRDA:36,0,3,-
BRDA:40,0,0,-
BRDA:40,0,1,-
BRDA:40,0,2,-
BRDA:40,0,3,-
BRDA:42,0,0,-
BRDA:42,0,1,-
BRDA:42,0,2,-
BRDA:42,0,3,-
BRDA:43,0,0,-
BRDA:43,0,1,-
BRDA:43,0,2,-
BRDA:43,0,3,-
BRDA:43,0,4,-
BRDA:43,0,5,-
BRDA:43,0,6,-
BRDA:43,0,7,-
BRDA:43,0,8,-
BRDA:43,0,9,-
BRDA:44,0,0,-
BRDA:44,0,1,-
BRDA:44,0,2,-
BRDA:44,0,3,-
BRDA:44,0,4,-
BRDA:44,0,5,-
BRDA:44,0,6,-
BRDA:44,0,7,-
BRDA:44,0,8,-
BRDA:44,0,9,-
BRDA:45,0,0,-
BRDA:45,0,1,-
BRDA:45,0,2,-
BRDA:45,0,3,-
BRDA:45,0,4,-
BRDA:45,0,5,-
BRDA:45,0,6,-
BRDA:45,0,7,-
BRDA:45,0,8,-
BRDA:45,0,9,-
BRDA:45,0,10,-
BRDA:45,0,11,-
BRDA:45,0,12,-
BRDA:45,0,13,-
BRDA:45,0,14,-
BRDA:45,0,15,-
BRDA:45,0,16,-
BRDA:45,0,17,-
BRDA:46,0,0,-
BRDA:46,0,1,-
BRDA:48,0,0,-
BRDA:48,0,1,-
BRDA:48,0,2,-
BRDA:48,0,3,-
BRDA:48,0,4,-
BRDA:48,0,5,-
BRDA:48,0,6,-
BRDA:48,0,7,-
BRDA:48,0,8,-
BRDA:48,0,9,-
BRDA:48,0,10,-
BRDA:48,0,11,-
BRDA:50,0,0,-
BRDA:50,0,1,-
BRDA:50,0,2,-
BRDA:50,0,3,-
BRDA:50,0,4,-
BRDA:50,0,5,-
BRDA:51,0,0,-
BRDA:51,0,1,-
BRDA:51,0,2,-
BRDA:51,0,3,-
BRDA:51,0,4,-
BRDA:51,0,5,-
BRDA:52,0,0,-
BRDA:52,0,1,-
BRDA:52,0,2,-
BRDA:52,0,3,-
BRDA:52,0,4,-
BRDA:52,0,5,-
BRDA:52,0,6,-
BRDA:52,0,7,-
BRDA:52,0,8,-
BRDA:52,0,9,-
BRDA:52,0,10,-
BRDA:52,0,11,-
BRDA:54,0,0,-
BRDA:54,0,1,-
BRDA:54,0,2,-
BRDA:54,0,3,-
BRDA:54,0,4,-
BRDA:54,0,5,-
BRDA:55,0,0,-
BRDA:55,0,1,-
BRDA:55,0,2,-
BRDA:55,0,3,-
BRDA:55,0,4,-
BRDA:55,0,5,-
BRDA:56,0,0,-
BRDA:56,0,1,-
BRDA:56,0,2,-
BRDA:56,0,3,-
BRDA:56,0,4,-
BRDA:56,0,5,-
BRDA:56,0,6,-
BRDA:56,0,7,-
BRDA:57,0,0,-
BRDA:57,0,1,-
BRDA:57,0,2,-
BRDA:57,0,3,-
BRDA:57,0,4,-
BRDA:57,0,5,-
BRDA:58,0,0,-
BRDA:58,0,1,-
BRDA:59,0,0,-
BRDA:59,0,1,-
BRDA:59,0,2,-
BRDA:59,0,3,-
BRDA:59,0,4,-
BRDA:59,0,5,-
BRDA:62,0,0,-
BRDA:62,0,1,-
BRDA:64,0,0,-
BRDA:64,0,1,-
BRDA:64,0,2,-
BRDA:64,0,3,-
BRDA:66,0,0,-
BRDA:66,0,1,-
BRDA:66,0,2,-
BRDA:66,0,3,-
BRDA:66,0,4,-
BRDA:66,0,5,-
BRDA:66,0,6,-
BRDA:66,0,7,-
BRDA:67,0,0,-
BRDA:67,0,1,-
BRDA:67,0,2,-
BRDA:67,0,3,-
BRDA:67,0,4,-
BRDA:67,0,5,-
BRDA:67,0,6,-
BRDA:67,0,7,-
BRDA:67,0,8,-
BRDA:67,0,9,-
BRDA:79,0,0,-
BRDA:79,0,1,-
BRDA:79,0,2,-
BRDA:79,0,3,-
BRDA:80,0,0,-
BRDA:80,0,1,-
BRDA:81,0,0,-
BRDA:81,0,1,-
BRDA:82,0,0,0
BRDA:82,0,1,0
BRDA:82,0,2,0
BRDA:82,0,3,0
BRDA:82,0,4,0
BRDA:82,0,5,0
BRDA:88,0,0,-
BRDA:88,0,1,-
BRDA:92,0,0,-
BRDA:92,0,1,-
BRDA:92,0,2,-
BRDA:92,0,3,-
BRDA:92,0,4,-
BRDA:92,0,5,-
BRDA:92,0,6,-
BRDA:92,0,7,-
BRDA:95,0,0,-
BRDA:95,0,1,-
BRDA:95,0,2,-
BRDA:95,0,3,-
BRDA:95,0,4,-
BRDA:95,0,5,-
BRDA:96,0,0,-
BRDA:96,0,1,-
BRDA:99,0,0,-
BRDA:99,0,1,-
BRDA:99,0,2,-
BRDA:99,0,3,-
BRDA:99,0,4,-
BRDA:99,0,5,-
BRDA:99,0,6,-
BRDA:99,0,7,-
BRDA:99,0,8,-
BRDA:99,0,9,-
BRDA:100,0,0,-
BRDA:100,0,1,-
BRDA:100,0,2,-
BRDA:100,0,3,-
BRDA:100,0,4,-
BRDA:100,0,5,-
BRDA:100,0,6,-
BRDA:100,0,7,-
BRDA:100,0,8,-
BRDA:100,0,9,-
BRDA:100,0,10,-
BRDA:100,0,11,-
BRDA:100,0,12,-
BRDA:100,0,13,-
BRDA:103,0,0,-
BRDA:103,0,1,-
BRDA:103,0,2,-
BRDA:103,0,3,-
BRDA:103,0,4,-
BRDA:103,0,5,-
BRDA:103,0,6,-
BRDA:103,0,7,-
BRDA:103,0,8,-
BRDA:103,0,9,-
BRDA:104,0,0,-
BRDA:104,0,1,-
BRDA:104,0,2,-
BRDA:104,0,3,-
BRDA:104,0,4,-
BRDA:104,0,5,-
BRDA:104,0,6,-
BRDA:104,0,7,-
BRDA:104,0,8,-
BRDA:104,0,9,-
BRDA:104,0,10,-
BRDA:104,0,11,-
BRDA:104,0,12,-
BRDA:104,0,13,-
BRF:256
BRH:0
DA:15,0
DA:16,0
DA:17,0
DA:20,0
DA:21,0
DA:22,0
DA:23,0
DA:26,0
DA:27,0
DA:28,0
DA:29,0
DA:32,0
DA:33,0
DA:35,0
DA:36,0
DA:37,0
DA:40,0
DA:42,0
DA:43,0
DA:44,0
DA:45,0
DA:46,0
DA:48,0
DA:49,0
DA:50,0
DA:51,0
DA:52,0
DA:53,0
DA:54,0
DA:55,0
DA:56,0
DA:57,0
DA:58,0
DA:59,0
DA:62,0
DA:63,0
DA:64,0
DA:65,0
DA:66,0
DA:67,0
DA:68,0
DA:70,0
DA:71,0
DA:73,0
DA:74,0
DA:77,0
DA:79,0
DA:80,0
DA:81,0
DA:82,0
DA:83,0
DA:84,0
DA:87,0
DA:88,0
DA:91,0
DA:92,0
DA:93,0
DA:95,0
DA:96,0
DA:97,0
DA:99,0
DA:100,0
DA:101,0
DA:103,0
DA:104,0
DA:105,0
DA:110,0
LF:67
LH:0
end_of_record
TN:
SF:/home/xucong/caicAD/01datainfra/Aurora/aurora-edge-runtime/src/data_collection/common/log_config.h
FN:44,_ZN6aurora9collector9LogConfigC2Ev
FNDA:0,_ZN6aurora9collector9LogConfigC2Ev
FNF:1
FNH:0
DA:44,0
LF:1
LH:0
end_of_record
TN:
SF:/home/xucong/caicAD/01datainfra/Aurora/aurora-edge-runtime/src/data_collection/common/log_task_queue.hpp
FN:22,_ZN6aurora9collector17TaskPriorityQueueINS0_13LogUploadTaskEiSt4lessIiENS0_8TaskHashENS0_9TaskEqualEE11GetInstanceEv
FN:27,_ZN6aurora9collector17TaskPriorityQueueINS0_13LogUploadTaskEiSt4lessIiENS0_8TaskHashENS0_9TaskEqualEE4PushEiRKS2_
FN:57,_ZN6aurora9collector17TaskPriorityQueueINS0_13LogUploadTaskEiSt4lessIiENS0_8TaskHashENS0_9TaskEqualEEC2Ev
FN:63,_ZNK6aurora9collector17TaskPriorityQueueINS0_13LogUploadTaskEiSt4lessIiENS0_8TaskHashENS0_9TaskEqualEE19PriorityPairCompareclERKSt4pairIiS2_ESC_
FN:73,_ZN6aurora9collectorL10serializerERKNS0_13LogUploadTaskE
FN:84,_ZNK6aurora9collector9TaskEqualclERKNS0_13LogUploadTaskES4_
FN:88,_ZNK6aurora9collector8TaskHashclERKNS0_13LogUploadTaskE
FNDA:0,_ZNK6aurora9collector17TaskPriorityQueueINS0_13LogUploadTaskEiSt4lessIiENS0_8TaskHashENS0_9TaskEqualEE19PriorityPairCompareclERKSt4pairIiS2_ESC_
FNDA:0,_ZN6aurora9collector17TaskPriorityQueueINS0_13LogUploadTaskEiSt4lessIiENS0_8TaskHashENS0_9TaskEqualEE11GetInstanceEv
FNDA:0,_ZNK6aurora9collector9TaskEqualclERKNS0_13LogUploadTaskES4_
FNDA:0,_ZN6aurora9collector17TaskPriorityQueueINS0_13LogUploadTaskEiSt4lessIiENS0_8TaskHashENS0_9TaskEqualEE4PushEiRKS2_
FNDA:0,_ZNK6aurora9collector8TaskHashclERKNS0_13LogUploadTaskE
FNDA:0,_ZN6aurora9collectorL10serializerERKNS0_13LogUploadTaskE
FNDA:0,_ZN6aurora9collector17TaskPriorityQueueINS0_13LogUploadTaskEiSt4lessIiENS0_8TaskHashENS0_9TaskEqualEEC2Ev
FNF:7
FNH:0
BRDA:23,0,0,-
BRDA:23,0,1,-
BRDA:23,0,2,-
BRDA:23,0,3,-
BRDA:23,0,4,-
BRDA:23,0,5,-
BRDA:23,0,6,-
BRDA:23,0,7,-
BRDA:28,0,0,-
BRDA:28,0,1,-
BRDA:29,0,0,-
BRDA:29,0,1,-
BRDA:29,0,2,-
BRDA:29,0,3,-
BRDA:30,0,0,-
BRDA:30,0,1,-
BRDA:30,0,2,-
BRDA:30,0,3,-
BRDA:31,0,0,-
BRDA:31,0,1,-
BRDA:75,0,0,-
BRDA:75,0,1,-
BRDA:75,0,2,-
BRDA:75,0,3,-
BRDA:76,0,0,-
BRDA:76,0,1,-
BRDA:77,0,0,-
BRDA:77,0,1,-
BRDA:77,0,2,-
BRDA:77,0,3,-
BRDA:77,0,4,-
BRDA:77,0,5,-
BRDA:79,0,0,-
BRDA:79,0,1,-
BRDA:79,0,2,-
BRDA:79,0,3,-
BRDA:79,0,4,-
BRDA:79,0,5,-
BRDA:79,0,6,-
BRDA:79,0,7,-
BRDA:79,0,8,-
BRDA:79,0,9,-
BRDA:84,0,0,-
BRDA:84,0,1,-
BRDA:88,0,0,-
BRDA:88,0,1,-
BRF:46
BRH:0
DA:22,0
DA:23,0
DA:24,0
DA:27,0
DA:28,0
DA:29,0
DA:30,0
DA:31,0
DA:33,0
DA:57,0
DA:63,0
DA:64,0
DA:73,0
DA:74,0
DA:75,0
DA:76,0
DA:77,0
DA:79,0
DA:80,0
DA:81,0
DA:84,0
DA:88,0
LF:22
LH:0
end_of_record
TN:
SF:/home/xucong/caicAD/01datainfra/Aurora/aurora-edge-runtime/src/data_collection/common/ringBuffer.h
FN:20,_ZN6aurora9collector10RingBufferINS0_15Ros2BagRecorder15TimestampedDataEEC2Em
FN:26,_ZN6aurora9collector10RingBufferINS0_15Ros2BagRecorder15TimestampedDataEE9push_backERKS3_
FN:34,_ZN6aurora9collector10RingBufferINS0_15Ros2BagRecorder15TimestampedDataEE5frontEv
FN:40,_ZN6aurora9collector10RingBufferINS0_15Ros2BagRecorder15TimestampedDataEE9pop_frontEv
FN:92,_ZN6aurora9collector10RingBufferINS0_15Ros2BagRecorder15TimestampedDataEE5emptyEv
FN:101,_ZN6aurora9collector10RingBufferINS0_15Ros2BagRecorder15TimestampedDataEE5beginEv
FN:106,_ZN6aurora9collector10RingBufferINS0_15Ros2BagRecorder15TimestampedDataEE3endEv
FNDA:0,_ZN6aurora9collector10RingBufferINS0_15Ros2BagRecorder15TimestampedDataEE3endEv
FNDA:0,_ZN6aurora9collector10RingBufferINS0_15Ros2BagRecorder15TimestampedDataEEC2Em
FNDA:0,_ZN6aurora9collector10RingBufferINS0_15Ros2BagRecorder15TimestampedDataEE5emptyEv
FNDA:0,_ZN6aurora9collector10RingBufferINS0_15Ros2BagRecorder15TimestampedDataEE9pop_frontEv
FNDA:0,_ZN6aurora9collector10RingBufferINS0_15Ros2BagRecorder15TimestampedDataEE5beginEv
FNDA:0,_ZN6aurora9collector10RingBufferINS0_15Ros2BagRecorder15TimestampedDataEE5frontEv
FNDA:0,_ZN6aurora9collector10RingBufferINS0_15Ros2BagRecorder15TimestampedDataEE9push_backERKS3_
FNF:7
FNH:0
BRDA:21,0,0,-
BRDA:21,0,1,-
BRDA:22,0,0,-
BRDA:22,0,1,-
BRDA:27,0,0,-
BRDA:27,0,1,-
BRDA:28,0,0,-
BRDA:28,0,1,-
BRDA:31,0,0,-
BRDA:31,0,1,-
BRDA:35,0,0,-
BRDA:35,0,1,-
BRDA:36,0,0,-
BRDA:36,0,1,-
BRDA:38,0,0,-
BRDA:38,0,1,-
BRDA:42,0,0,-
BRDA:42,0,1,-
BRDA:43,0,0,-
BRDA:43,0,1,-
BRDA:93,0,0,-
BRDA:93,0,1,-
BRDA:102,0,0,-
BRDA:102,0,1,-
BRDA:107,0,0,-
BRDA:107,0,1,-
BRF:26
BRH:0
DA:20,0
DA:21,0
DA:22,0
DA:24,0
DA:26,0
DA:27,0
DA:28,0
DA:29,0
DA:31,0
DA:32,0
DA:34,0
DA:35,0
DA:36,0
DA:37,0
DA:38,0
DA:40,0
DA:42,0
DA:43,0
DA:45,0
DA:46,0
DA:49,0
DA:50,0
DA:92,0
DA:93,0
DA:94,0
DA:95,0
DA:101,0
DA:102,0
DA:103,0
DA:104,0
DA:106,0
DA:107,0
DA:108,0
DA:109,0
LF:34
LH:0
end_of_record
TN:
SF:/home/xucong/caicAD/01datainfra/Aurora/aurora-edge-runtime/src/data_collection/common/types.h
FN:25,_ZN6aurora9collector9DataPointC2ERK5PointRKNSt7__cxx1112basic_stringIcSt11char_traitsIcESaIcEEEd
FN:39,_ZN6aurora9collector11MissionAreaC2ERK5Pointd
FNDA:0,_ZN6aurora9collector11MissionAreaC2ERK5Pointd
FNDA:0,_ZN6aurora9collector9DataPointC2ERK5PointRKNSt7__cxx1112basic_stringIcSt11char_traitsIcESaIcEEEd
FNF:2
FNH:0
DA:25,0
DA:27,0
DA:39,0
DA:40,0
LF:4
LH:0
end_of_record
TN:
SF:/home/xucong/caicAD/01datainfra/Aurora/aurora-edge-runtime/src/data_collection/common/upload_queue.hpp
FN:21,_ZN6aurora9collector10UploadItemC2ERKNSt7__cxx1112basic_stringIcSt11char_traitsIcESaIcEEENS0_10UploadTypeE
FN:30,_ZN6aurora9collector11UploadQueue11GetInstanceEv
FN:35,_ZN6aurora9collector11UploadQueue4PushERKNS0_10UploadItemE
FN:40,_ZNK6aurora9collector11UploadQueue5FrontEv
FN:48,_ZN6aurora9collector11UploadQueue3PopEv
FN:58,_ZNK6aurora9collector11UploadQueue5EmptyEv
FN:63,_ZNK6aurora9collector11UploadQueue4SizeEv
FN:69,_ZN6aurora9collector11UploadQueueC2Ev
FN:70,_ZN6aurora9collector11UploadQueueD2Ev
FNDA:0,_ZN6aurora9collector10UploadItemC2ERKNSt7__cxx1112basic_stringIcSt11char_traitsIcESaIcEEENS0_10UploadTypeE
FNDA:0,_ZN6aurora9collector11UploadQueueC2Ev
FNDA:0,_ZNK6aurora9collector11UploadQueue5FrontEv
FNDA:0,_ZN6aurora9collector11UploadQueue11GetInstanceEv
FNDA:0,_ZN6aurora9collector11UploadQueue4PushERKNS0_10UploadItemE
FNDA:0,_ZNK6aurora9collector11UploadQueue5EmptyEv
FNDA:0,_ZN6aurora9collector11UploadQueueD2Ev
FNDA:0,_ZNK6aurora9collector11UploadQueue4SizeEv
FNDA:0,_ZN6aurora9collector11UploadQueue3PopEv
FNF:9
FNH:0
BRDA:31,0,0,-
BRDA:31,0,1,-
BRDA:31,0,2,-
BRDA:31,0,3,-
BRDA:31,0,4,-
BRDA:31,0,5,-
BRDA:31,0,6,-
BRDA:31,0,7,-
BRDA:36,0,0,-
BRDA:36,0,1,-
BRDA:37,0,0,-
BRDA:37,0,1,-
BRDA:41,0,0,-
BRDA:41,0,1,-
BRDA:42,0,0,-
BRDA:42,0,1,-
BRDA:45,0,0,-
BRDA:45,0,1,-
BRDA:49,0,0,-
BRDA:49,0,1,-
BRDA:50,0,0,-
BRDA:50,0,1,-
BRDA:53,0,0,-
BRDA:53,0,1,-
BRDA:59,0,0,-
BRDA:59,0,1,-
BRDA:64,0,0,-
BRDA:64,0,1,-
BRF:28
BRH:0
DA:21,0
DA:30,0
DA:31,0
DA:32,0
DA:35,0
DA:36,0
DA:37,0
DA:38,0
DA:40,0
DA:41,0
DA:42,0
DA:43,0
DA:45,0
DA:46,0
DA:48,0
DA:49,0
DA:50,0
DA:51,0
DA:53,0
DA:54,0
DA:55,0
DA:56,0
DA:58,0
DA:59,0
DA:60,0
DA:61,0
DA:63,0
DA:64,0
DA:65,0
DA:66,0
DA:69,0
DA:70,0
LF:32
LH:0
end_of_record
TN:
SF:/home/xucong/caicAD/01datainfra/Aurora/aurora-edge-runtime/src/data_collection/data_collection_executor.cpp
FN:21,_ZN6aurora9collector22DataCollectionExecutorC2ESt10shared_ptrIN6rclcpp4NodeEE
FN:63,_ZZN6aurora9collector22DataCollectionExecutorC4ESt10shared_ptrIN6rclcpp4NodeEEENKUlS2_IN19aurora_edge_runtime3srv25TriggerRecording_Request_ISaIvEEEES2_INS7_26TriggerRecording_Response_IS9_EEEE_clESB_SE_
FN:79,_ZN6aurora9collector22DataCollectionExecutorD2Ev
FN:92,_ZN6aurora9collector22DataCollectionExecutor10initializeERKNSt7__cxx1112basic_stringIcSt11char_traitsIcESaIcEEE
FN:125,_ZN6aurora9collector22DataCollectionExecutor10initializeERKNS0_14StrategyConfigE
FN:199,_ZN6aurora9collector22DataCollectionExecutor16executeAlongPathERKSt6vectorI5PointSaIS3_EERKNSt7__cxx1112basic_stringIcSt11char_traitsIcESaIcEEE
FN:282,_ZN6aurora9collector22DataCollectionExecutor14startRecordingERKNSt7__cxx1112basic_stringIcSt11char_traitsIcESaIcEEE
FN:302,_ZN6aurora9collector22DataCollectionExecutor13stopRecordingEv
FN:325,_ZN6aurora9collector22DataCollectionExecutor15shouldCollectAtERK5Point
FN:334,_ZN6aurora9collector22DataCollectionExecutor14executeAtPointERK5Point
FN:360,_ZNK6aurora9collector22DataCollectionExecutor22getRecordingStatisticsEv
FN:367,_ZN6aurora9collector22DataCollectionExecutor19generateBagFilenameERKNSt7__cxx1112basic_stringIcSt11char_traitsIcESaIcEEES9_
FN:385,_ZN6aurora9collector22DataCollectionExecutor15triggerCallbackERKSt6vectorINS0_9DataPointESaIS3_EE
FN:393,_ZN6aurora9collector22DataCollectionExecutor8compressERKNSt7__cxx1112basic_stringIcSt11char_traitsIcESaIcEEE
FN:429,_ZNK6aurora9collector22DataCollectionExecutor7runningEv
FN:435,_ZNK6aurora9collector22DataCollectionExecutor14checkDiskSpaceEv
FN:453,_ZNK6aurora9collector22DataCollectionExecutor12isInCooldownEv
FN:475,_ZN6aurora9collector22DataCollectionExecutor12reloadConfigERKNSt7__cxx1112basic_stringIcSt11char_traitsIcESaIcEEE
FN:489,_ZN6aurora9collector22DataCollectionExecutor12reloadConfigERKNS0_14StrategyConfigE
FN:609,_ZN6aurora9collector22DataCollectionExecutor20handleTriggerServiceESt10shared_ptrIN19aurora_edge_runtime3srv25TriggerRecording_Request_ISaIvEEEES2_INS4_26TriggerRecording_Response_IS6_EEE
FN:663,_ZN6aurora9collector22DataCollectionExecutor16recordWorkerLoopEv
FN:668,_ZZN6aurora9collector22DataCollectionExecutor16recordWorkerLoopEvENKUlvE_clEv
FNDA:0,_ZN6aurora9collector22DataCollectionExecutor15shouldCollectAtERK5Point
FNDA:0,_ZN6aurora9collector22DataCollectionExecutor16recordWorkerLoopEv
FNDA:0,_ZZN6aurora9collector22DataCollectionExecutorC4ESt10shared_ptrIN6rclcpp4NodeEEENKUlS2_IN19aurora_edge_runtime3srv25TriggerRecording_Request_ISaIvEEEES2_INS7_26TriggerRecording_Response_IS9_EEEE_clESB_SE_
FNDA:0,_ZN6aurora9collector22DataCollectionExecutor12reloadConfigERKNSt7__cxx1112basic_stringIcSt11char_traitsIcESaIcEEE
FNDA:0,_ZN6aurora9collector22DataCollectionExecutor14startRecordingERKNSt7__cxx1112basic_stringIcSt11char_traitsIcESaIcEEE
FNDA:0,_ZN6aurora9collector22DataCollectionExecutor19generateBagFilenameERKNSt7__cxx1112basic_stringIcSt11char_traitsIcESaIcEEES9_
FNDA:0,_ZZN6aurora9collector22DataCollectionExecutor16recordWorkerLoopEvENKUlvE_clEv
FNDA:0,_ZN6aurora9collector22DataCollectionExecutorC2ESt10shared_ptrIN6rclcpp4NodeEE
FNDA:0,_ZNK6aurora9collector22DataCollectionExecutor7runningEv
FNDA:0,_ZNK6aurora9collector22DataCollectionExecutor14checkDiskSpaceEv
FNDA:0,_ZNK6aurora9collector22DataCollectionExecutor12isInCooldownEv
FNDA:0,_ZN6aurora9collector22DataCollectionExecutor20handleTriggerServiceESt10shared_ptrIN19aurora_edge_runtime3srv25TriggerRecording_Request_ISaIvEEEES2_INS4_26TriggerRecording_Response_IS6_EEE
FNDA:0,_ZN6aurora9collector22DataCollectionExecutor15triggerCallbackERKSt6vectorINS0_9DataPointESaIS3_EE
FNDA:0,_ZN6aurora9collector22DataCollectionExecutor12reloadConfigERKNS0_14StrategyConfigE
FNDA:0,_ZN6aurora9collector22DataCollectionExecutor10initializeERKNSt7__cxx1112basic_stringIcSt11char_traitsIcESaIcEEE
FNDA:0,_ZN6aurora9collector22DataCollectionExecutor13stopRecordingEv
FNDA:0,_ZN6aurora9collector22DataCollectionExecutor8compressERKNSt7__cxx1112basic_stringIcSt11char_traitsIcESaIcEEE
FNDA:0,_ZN6aurora9collector22DataCollectionExecutor14executeAtPointERK5Point
FNDA:0,_ZN6aurora9collector22DataCollectionExecutor16executeAlongPathERKSt6vectorI5PointSaIS3_EERKNSt7__cxx1112basic_stringIcSt11char_traitsIcESaIcEEE
FNDA:0,_ZN6aurora9collector22DataCollectionExecutorD2Ev
FNDA:0,_ZN6aurora9collector22DataCollectionExecutor10initializeERKNS0_14StrategyConfigE
FNDA:0,_ZNK6aurora9collector22DataCollectionExecutor22getRecordingStatisticsEv
FNF:22
FNH:0
BRDA:21,0,0,-
BRDA:21,0,1,-
BRDA:22,0,0,-
BRDA:22,0,1,-
BRDA:22,0,2,-
BRDA:22,0,3,-
BRDA:22,0,4,-
BRDA:22,0,5,-
BRDA:25,0,0,-
BRDA:25,0,1,-
BRDA:25,0,2,-
BRDA:25,0,3,-
BRDA:26,0,0,-
BRDA:26,0,1,-
BRDA:27,0,0,-
BRDA:27,0,1,-
BRDA:27,0,2,-
BRDA:27,0,3,-
BRDA:31,0,0,-
BRDA:31,0,1,-
BRDA:32,0,0,-
BRDA:32,0,1,-
BRDA:33,0,0,-
BRDA:33,0,1,-
BRDA:33,0,2,-
BRDA:33,0,3,-
BRDA:35,0,0,-
BRDA:35,0,1,-
BRDA:39,0,0,-
BRDA:39,0,1,-
BRDA:39,0,2,-
BRDA:39,0,3,-
BRDA:40,0,0,-
BRDA:40,0,1,-
BRDA:40,0,2,-
BRDA:40,0,3,-
BRDA:41,0,0,-
BRDA:41,0,1,-
BRDA:42,0,0,-
BRDA:42,0,1,-
BRDA:44,0,0,-
BRDA:44,0,1,-
BRDA:44,0,2,-
BRDA:44,0,3,-
BRDA:44,0,4,-
BRDA:44,0,5,-
BRDA:44,0,6,-
BRDA:44,0,7,-
BRDA:44,0,8,-
BRDA:44,0,9,-
BRDA:47,0,0,-
BRDA:47,0,1,-
BRDA:47,0,2,-
BRDA:47,0,3,-
BRDA:47,0,4,-
BRDA:47,0,5,-
BRDA:48,0,0,-
BRDA:48,0,1,-
BRDA:48,0,2,-
BRDA:48,0,3,-
BRDA:48,0,4,-
BRDA:48,0,5,-
BRDA:49,0,0,-
BRDA:49,0,1,-
BRDA:49,0,2,-
BRDA:49,0,3,-
BRDA:53,0,0,-
BRDA:53,0,1,-
BRDA:57,0,0,-
BRDA:57,0,1,-
BRDA:61,0,0,-
BRDA:61,0,1,-
BRDA:61,0,2,-
BRDA:61,0,3,-
BRDA:65,0,0,-
BRDA:65,0,1,-
BRDA:73,0,0,-
BRDA:73,0,1,-
BRDA:75,0,0,-
BRDA:75,0,1,-
BRDA:75,0,2,-
BRDA:75,0,3,-
BRDA:76,0,0,-
BRDA:76,0,1,-
BRDA:76,0,2,-
BRDA:76,0,3,-
BRDA:83,0,0,-
BRDA:83,0,1,-
BRDA:87,0,0,-
BRDA:87,0,1,-
BRDA:93,0,0,-
BRDA:93,0,1,-
BRDA:93,0,2,-
BRDA:93,0,3,-
BRDA:96,0,0,-
BRDA:96,0,1,-
BRDA:97,0,0,-
BRDA:97,0,1,-
BRDA:97,0,2,-
BRDA:97,0,3,-
BRDA:98,0,0,-
BRDA:98,0,1,-
BRDA:98,0,2,-
BRDA:98,0,3,-
BRDA:101,0,0,-
BRDA:101,0,1,-
BRDA:101,0,2,-
BRDA:101,0,3,-
BRDA:102,0,0,-
BRDA:102,0,1,-
BRDA:102,0,2,-
BRDA:102,0,3,-
BRDA:102,0,4,-
BRDA:102,0,5,-
BRDA:103,0,0,-
BRDA:103,0,1,-
BRDA:103,0,2,-
BRDA:103,0,3,-
BRDA:103,0,4,-
BRDA:103,0,5,-
BRDA:106,0,0,-
BRDA:106,0,1,-
BRDA:107,0,0,-
BRDA:107,0,1,-
BRDA:108,0,0,-
BRDA:108,0,1,-
BRDA:108,0,2,-
BRDA:108,0,3,-
BRDA:108,0,4,-
BRDA:108,0,5,-
BRDA:109,0,0,-
BRDA:109,0,1,-
BRDA:109,0,2,-
BRDA:109,0,3,-
BRDA:109,0,4,-
BRDA:109,0,5,-
BRDA:110,0,0,-
BRDA:110,0,1,-
BRDA:111,0,0,-
BRDA:111,0,1,-
BRDA:111,0,2,-
BRDA:111,0,3,-
BRDA:111,0,4,-
BRDA:111,0,5,-
BRDA:111,0,6,-
BRDA:111,0,7,-
BRDA:111,0,8,-
BRDA:111,0,9,-
BRDA:112,0,0,-
BRDA:112,0,1,-
BRDA:112,0,2,-
BRDA:112,0,3,-
BRDA:112,0,4,-
BRDA:112,0,5,-
BRDA:112,0,6,-
BRDA:112,0,7,-
BRDA:114,0,0,-
BRDA:114,0,1,-
BRDA:116,0,0,-
BRDA:116,0,1,-
BRDA:116,0,2,-
BRDA:116,0,3,-
BRDA:116,0,4,-
BRDA:116,0,5,-
BRDA:116,0,6,-
BRDA:116,0,7,-
BRDA:116,0,8,-
BRDA:116,0,9,-
BRDA:116,0,10,-
BRDA:116,0,11,-
BRDA:116,0,12,-
BRDA:116,0,13,-
BRDA:116,0,14,-
BRDA:116,0,15,-
BRDA:122,0,0,-
BRDA:122,0,1,-
BRDA:126,0,0,-
BRDA:126,0,1,-
BRDA:129,0,0,-
BRDA:129,0,1,-
BRDA:130,0,0,-
BRDA:130,0,1,-
BRDA:131,0,0,-
BRDA:131,0,1,-
BRDA:136,0,0,-
BRDA:136,0,1,-
BRDA:137,0,0,-
BRDA:137,0,1,-
BRDA:137,0,2,-
BRDA:137,0,3,-
BRDA:142,0,0,-
BRDA:142,0,1,-
BRDA:143,0,0,-
BRDA:143,0,1,-
BRDA:145,0,0,-
BRDA:145,0,1,-
BRDA:145,0,2,-
BRDA:145,0,3,-
BRDA:150,0,0,-
BRDA:150,0,1,-
BRDA:150,0,2,-
BRDA:150,0,3,-
BRDA:151,0,0,-
BRDA:151,0,1,-
BRDA:151,0,2,-
BRDA:151,0,3,-
BRDA:155,0,0,-
BRDA:155,0,1,-
BRDA:156,0,0,-
BRDA:156,0,1,-
BRDA:156,0,2,-
BRDA:156,0,3,-
BRDA:157,0,0,-
BRDA:157,0,1,-
BRDA:157,0,2,-
BRDA:157,0,3,-
BRDA:166,0,0,-
BRDA:166,0,1,-
BRDA:166,0,2,-
BRDA:166,0,3,-
BRDA:167,0,0,-
BRDA:167,0,1,-
BRDA:167,0,2,-
BRDA:167,0,3,-
BRDA:175,0,0,-
BRDA:175,0,1,-
BRDA:176,0,0,-
BRDA:176,0,1,-
BRDA:176,0,2,-
BRDA:176,0,3,-
BRDA:177,0,0,-
BRDA:177,0,1,-
BRDA:177,0,2,-
BRDA:177,0,3,-
BRDA:183,0,0,-
BRDA:183,0,1,-
BRDA:184,0,0,-
BRDA:184,0,1,-
BRDA:185,0,0,-
BRDA:185,0,1,-
BRDA:187,0,0,-
BRDA:187,0,1,-
BRDA:187,0,2,-
BRDA:187,0,3,-
BRDA:194,0,0,-
BRDA:194,0,1,-
BRDA:203,0,0,-
BRDA:203,0,1,-
BRDA:204,0,0,-
BRDA:204,0,1,-
BRDA:204,0,2,-
BRDA:204,0,3,-
BRDA:209,0,0,-
BRDA:209,0,1,-
BRDA:210,0,0,-
BRDA:210,0,1,-
BRDA:210,0,2,-
BRDA:210,0,3,-
BRDA:213,0,0,-
BRDA:213,0,1,-
BRDA:214,0,0,-
BRDA:214,0,1,-
BRDA:214,0,2,-
BRDA:214,0,3,-
BRDA:217,0,0,-
BRDA:217,0,1,-
BRDA:217,0,2,-
BRDA:217,0,3,-
BRDA:220,0,0,-
BRDA:220,0,1,-
BRDA:221,0,0,-
BRDA:221,0,1,-
BRDA:221,0,2,-
BRDA:221,0,3,-
BRDA:228,0,0,-
BRDA:228,0,1,-
BRDA:229,0,0,-
BRDA:229,0,1,-
BRDA:229,0,2,-
BRDA:229,0,3,-
BRDA:234,0,0,-
BRDA:234,0,1,-
BRDA:234,0,2,-
BRDA:234,0,3,-
BRDA:235,0,0,-
BRDA:235,0,1,-
BRDA:235,0,2,-
BRDA:235,0,3,-
BRDA:242,0,0,-
BRDA:242,0,1,-
BRDA:246,0,0,-
BRDA:246,0,1,-
BRDA:247,0,0,-
BRDA:247,0,1,-
BRDA:247,0,2,-
BRDA:247,0,3,-
BRDA:247,0,4,-
BRDA:247,0,5,-
BRDA:247,0,6,-
BRDA:247,0,7,-
BRDA:247,0,8,-
BRDA:247,0,9,-
BRDA:248,0,0,-
BRDA:248,0,1,-
BRDA:248,0,2,-
BRDA:248,0,3,-
BRDA:248,0,4,-
BRDA:248,0,5,-
BRDA:248,0,6,-
BRDA:248,0,7,-
BRDA:249,0,0,-
BRDA:249,0,1,-
BRDA:249,0,2,-
BRDA:249,0,3,-
BRDA:249,0,4,-
BRDA:249,0,5,-
BRDA:249,0,6,-
BRDA:249,0,7,-
BRDA:249,0,8,-
BRDA:249,0,9,-
BRDA:250,0,0,-
BRDA:250,0,1,-
BRDA:250,0,2,-
BRDA:250,0,3,-
BRDA:250,0,4,-
BRDA:250,0,5,-
BRDA:252,0,0,-
BRDA:252,0,1,-
BRDA:252,0,2,-
BRDA:252,0,3,-
BRDA:255,0,0,-
BRDA:255,0,1,-
BRDA:258,0,0,-
BRDA:258,0,1,-
BRDA:259,0,0,-
BRDA:259,0,1,-
BRDA:259,0,2,-
BRDA:259,0,3,-
BRDA:259,0,4,-
BRDA:259,0,5,-
BRDA:262,0,0,-
BRDA:262,0,1,-
BRDA:263,0,0,-
BRDA:263,0,1,-
BRDA:263,0,2,-
BRDA:263,0,3,-
BRDA:267,0,0,-
BRDA:267,0,1,-
BRDA:271,0,0,-
BRDA:271,0,1,-
BRDA:272,0,0,-
BRDA:272,0,1,-
BRDA:275,0,0,-
BRDA:275,0,1,-
BRDA:275,0,2,-
BRDA:275,0,3,-
BRDA:283,0,0,-
BRDA:283,0,1,-
BRDA:284,0,0,-
BRDA:284,0,1,-
BRDA:288,0,0,-
BRDA:288,0,1,-
BRDA:290,0,0,-
BRDA:290,0,1,-
BRDA:291,0,0,-
BRDA:291,0,1,-
BRDA:303,0,0,-
BRDA:303,0,1,-
BRDA:304,0,0,-
BRDA:304,0,1,-
BRDA:304,0,2,-
BRDA:304,0,3,-
BRDA:308,0,0,-
BRDA:308,0,1,-
BRDA:308,0,2,-
BRDA:308,0,3,-
BRDA:309,0,0,-
BRDA:309,0,1,-
BRDA:312,0,0,-
BRDA:312,0,1,-
BRDA:313,0,0,-
BRDA:313,0,1,-
BRDA:313,0,2,-
BRDA:313,0,3,-
BRDA:317,0,0,-
BRDA:317,0,1,-
BRDA:318,0,0,-
BRDA:318,0,1,-
BRDA:326,0,0,-
BRDA:326,0,1,-
BRDA:331,0,0,-
BRDA:331,0,1,-
BRDA:335,0,0,-
BRDA:335,0,1,-
BRDA:335,0,2,-
BRDA:335,0,3,-
BRDA:339,0,0,-
BRDA:339,0,1,-
BRDA:340,0,0,-
BRDA:340,0,1,-
BRDA:340,0,2,-
BRDA:340,0,3,-
BRDA:345,0,0,-
BRDA:345,0,1,-
BRDA:345,0,2,-
BRDA:345,0,3,-
BRDA:345,0,4,-
BRDA:345,0,5,-
BRDA:345,0,6,-
BRDA:345,0,7,-
BRDA:345,0,8,-
BRDA:345,0,9,-
BRDA:346,0,0,-
BRDA:346,0,1,-
BRDA:346,0,2,-
BRDA:346,0,3,-
BRDA:346,0,4,-
BRDA:346,0,5,-
BRDA:346,0,6,-
BRDA:346,0,7,-
BRDA:348,0,0,-
BRDA:348,0,1,-
BRDA:349,0,0,-
BRDA:349,0,1,-
BRDA:349,0,2,-
BRDA:349,0,3,-
BRDA:355,0,0,-
BRDA:355,0,1,-
BRDA:361,0,0,-
BRDA:361,0,1,-
BRDA:369,0,0,-
BRDA:369,0,1,-
BRDA:371,0,0,-
BRDA:371,0,1,-
BRDA:373,0,0,-
BRDA:373,0,1,-
BRDA:373,0,2,-
BRDA:373,0,3,-
BRDA:376,0,0,-
BRDA:376,0,1,-
BRDA:376,0,2,-
BRDA:376,0,3,-
BRDA:376,0,4,-
BRDA:376,0,5,-
BRDA:376,0,6,-
BRDA:376,0,7,-
BRDA:376,0,8,-
BRDA:376,0,9,-
BRDA:377,0,0,-
BRDA:377,0,1,-
BRDA:377,0,2,-
BRDA:377,0,3,-
BRDA:377,0,4,-
BRDA:377,0,5,-
BRDA:377,0,6,-
BRDA:377,0,7,-
BRDA:377,0,8,-
BRDA:377,0,9,-
BRDA:379,0,0,-
BRDA:379,0,1,-
BRDA:381,0,0,-
BRDA:381,0,1,-
BRDA:381,0,2,-
BRDA:381,0,3,-
BRDA:381,0,4,-
BRDA:381,0,5,-
BRDA:381,0,6,-
BRDA:381,0,7,-
BRDA:381,0,8,-
BRDA:381,0,9,-
BRDA:381,0,10,-
BRDA:381,0,11,-
BRDA:381,0,12,-
BRDA:381,0,13,-
BRDA:382,0,0,-
BRDA:382,0,1,-
BRDA:386,0,0,-
BRDA:386,0,1,-
BRDA:387,0,0,-
BRDA:387,0,1,-
BRDA:395,0,0,-
BRDA:395,0,1,-
BRDA:395,0,2,-
BRDA:395,0,3,-
BRDA:395,0,4,-
BRDA:395,0,5,-
BRDA:396,0,0,-
BRDA:396,0,1,-
BRDA:396,0,2,-
BRDA:396,0,3,-
BRDA:401,0,0,-
BRDA:401,0,1,-
BRDA:407,0,0,-
BRDA:407,0,1,-
BRDA:407,0,2,-
BRDA:407,0,3,-
BRDA:415,0,0,-
BRDA:415,0,1,-
BRDA:415,0,2,-
BRDA:415,0,3,-
BRDA:416,0,0,-
BRDA:416,0,1,-
BRDA:418,0,0,-
BRDA:418,0,1,-
BRDA:424,0,0,-
BRDA:424,0,1,-
BRDA:424,0,2,-
BRDA:424,0,3,-
BRDA:431,0,0,-
BRDA:431,0,1,-
BRDA:431,0,2,-
BRDA:431,0,3,-
BRDA:431,0,4,-
BRDA:431,0,5,-
BRDA:431,0,6,-
BRDA:431,0,7,-
BRDA:431,0,8,-
BRDA:431,0,9,-
BRDA:436,0,0,-
BRDA:436,0,1,-
BRDA:437,0,0,-
BRDA:437,0,1,-
BRDA:437,0,2,-
BRDA:437,0,3,-
BRDA:441,0,0,-
BRDA:441,0,1,-
BRDA:441,0,2,-
BRDA:441,0,3,-
BRDA:443,0,0,-
BRDA:443,0,1,-
BRDA:444,0,0,-
BRDA:444,0,1,-
BRDA:444,0,2,-
BRDA:444,0,3,-
BRDA:454,0,0,-
BRDA:454,0,1,-
BRDA:459,0,0,-
BRDA:459,0,1,-
BRDA:466,0,0,-
BRDA:466,0,1,-
BRDA:476,0,0,-
BRDA:476,0,1,-
BRDA:476,0,2,-
BRDA:476,0,3,-
BRDA:479,0,0,-
BRDA:479,0,1,-
BRDA:481,0,0,-
BRDA:481,0,1,-
BRDA:481,0,2,-
BRDA:481,0,3,-
BRDA:482,0,0,-
BRDA:482,0,1,-
BRDA:482,0,2,-
BRDA:482,0,3,-
BRDA:486,0,0,-
BRDA:486,0,1,-
BRDA:491,0,0,-
BRDA:491,0,1,-
BRDA:492,0,0,-
BRDA:492,0,1,-
BRDA:492,0,2,-
BRDA:492,0,3,-
BRDA:496,0,0,-
BRDA:496,0,1,-
BRDA:498,0,0,-
BRDA:498,0,1,-
BRDA:498,0,2,-
BRDA:498,0,3,-
BRDA:499,0,0,-
BRDA:499,0,1,-
BRDA:499,0,2,-
BRDA:499,0,3,-
BRDA:500,0,0,-
BRDA:500,0,1,-
BRDA:500,0,2,-
BRDA:500,0,3,-
BRDA:504,0,0,-
BRDA:504,0,1,-
BRDA:505,0,0,-
BRDA:505,0,1,-
BRDA:505,0,2,-
BRDA:505,0,3,-
BRDA:507,0,0,-
BRDA:507,0,1,-
BRDA:507,0,2,-
BRDA:507,0,3,-
BRDA:507,0,4,-
BRDA:507,0,5,-
BRDA:508,0,0,-
BRDA:508,0,1,-
BRDA:511,0,0,-
BRDA:511,0,1,-
BRDA:512,0,0,-
BRDA:512,0,1,-
BRDA:512,0,2,-
BRDA:512,0,3,-
BRDA:520,0,0,-
BRDA:520,0,1,-
BRDA:521,0,0,-
BRDA:521,0,1,-
BRDA:522,0,0,-
BRDA:522,0,1,-
BRDA:527,0,0,-
BRDA:527,0,1,-
BRDA:528,0,0,-
BRDA:528,0,1,-
BRDA:528,0,2,-
BRDA:528,0,3,-
BRDA:535,0,0,-
BRDA:535,0,1,-
BRDA:536,0,0,-
BRDA:536,0,1,-
BRDA:537,0,0,-
BRDA:537,0,1,-
BRDA:539,0,0,-
BRDA:539,0,1,-
BRDA:539,0,2,-
BRDA:539,0,3,-
BRDA:540,0,0,-
BRDA:540,0,1,-
BRDA:541,0,0,-
BRDA:541,0,1,-
BRDA:547,0,0,-
BRDA:547,0,1,-
BRDA:551,0,0,-
BRDA:551,0,1,-
BRDA:552,0,0,-
BRDA:552,0,1,-
BRDA:552,0,2,-
BRDA:552,0,3,-
BRDA:553,0,0,-
BRDA:553,0,1,-
BRDA:553,0,2,-
BRDA:553,0,3,-
BRDA:558,0,0,-
BRDA:558,0,1,-
BRDA:563,0,0,-
BRDA:563,0,1,-
BRDA:563,0,2,-
BRDA:563,0,3,-
BRDA:564,0,0,-
BRDA:564,0,1,-
BRDA:564,0,2,-
BRDA:564,0,3,-
BRDA:565,0,0,-
BRDA:565,0,1,-
BRDA:565,0,2,-
BRDA:565,0,3,-
BRDA:570,0,0,-
BRDA:570,0,1,-
BRDA:570,0,2,-
BRDA:570,0,3,-
BRDA:575,0,0,-
BRDA:575,0,1,-
BRDA:576,0,0,-
BRDA:576,0,1,-
BRDA:576,0,2,-
BRDA:576,0,3,-
BRDA:577,0,0,-
BRDA:577,0,1,-
BRDA:577,0,2,-
BRDA:577,0,3,-
BRDA:584,0,0,-
BRDA:584,0,1,-
BRDA:585,0,0,-
BRDA:585,0,1,-
BRDA:587,0,0,-
BRDA:587,0,1,-
BRDA:587,0,2,-
BRDA:587,0,3,-
BRDA:588,0,0,-
BRDA:588,0,1,-
BRDA:589,0,0,-
BRDA:589,0,1,-
BRDA:590,0,0,-
BRDA:590,0,1,-
BRDA:590,0,2,-
BRDA:590,0,3,-
BRDA:593,0,0,-
BRDA:593,0,1,-
BRDA:593,0,2,-
BRDA:593,0,3,-
BRDA:594,0,0,-
BRDA:594,0,1,-
BRDA:594,0,2,-
BRDA:594,0,3,-
BRDA:595,0,0,-
BRDA:595,0,1,-
BRDA:595,0,2,-
BRDA:595,0,3,-
BRDA:602,0,0,-
BRDA:602,0,1,-
BRDA:603,0,0,0
BRDA:603,0,1,0
BRDA:603,0,2,0
BRDA:603,0,3,0
BRDA:613,0,0,-
BRDA:613,0,1,-
BRDA:613,0,2,-
BRDA:613,0,3,-
BRDA:617,0,0,-
BRDA:617,0,1,-
BRDA:617,0,2,-
BRDA:617,0,3,-
BRDA:619,0,0,-
BRDA:619,0,1,-
BRDA:620,0,0,-
BRDA:620,0,1,-
BRDA:622,0,0,-
BRDA:622,0,1,-
BRDA:622,0,2,-
BRDA:622,0,3,-
BRDA:627,0,0,-
BRDA:627,0,1,-
BRDA:627,0,2,-
BRDA:627,0,3,-
BRDA:629,0,0,-
BRDA:629,0,1,-
BRDA:630,0,0,-
BRDA:630,0,1,-
BRDA:632,0,0,-
BRDA:632,0,1,-
BRDA:632,0,2,-
BRDA:632,0,3,-
BRDA:637,0,0,-
BRDA:637,0,1,-
BRDA:638,0,0,-
BRDA:638,0,1,-
BRDA:640,0,0,-
BRDA:640,0,1,-
BRDA:643,0,0,-
BRDA:643,0,1,-
BRDA:649,0,0,-
BRDA:649,0,1,-
BRDA:650,0,0,-
BRDA:650,0,1,-
BRDA:650,0,2,-
BRDA:650,0,3,-
BRDA:656,0,0,-
BRDA:656,0,1,-
BRDA:657,0,0,-
BRDA:657,0,1,-
BRDA:660,0,0,-
BRDA:660,0,1,-
BRDA:660,0,2,-
BRDA:660,0,3,-
BRDA:664,0,0,-
BRDA:664,0,1,-
BRDA:667,0,0,-
BRDA:667,0,1,-
BRDA:668,0,0,-
BRDA:668,0,1,-
BRDA:669,0,0,-
BRDA:669,0,1,-
BRDA:669,0,2,-
BRDA:669,0,3,-
BRDA:671,0,0,-
BRDA:671,0,1,-
BRDA:671,0,2,-
BRDA:671,0,3,-
BRDA:671,0,4,-
BRDA:671,0,5,-
BRDA:672,0,0,-
BRDA:672,0,1,-
BRDA:675,0,0,-
BRDA:675,0,1,-
BRDA:675,0,2,-
BRDA:677,0,0,-
BRDA:677,0,1,-
BRDA:679,0,0,-
BRDA:679,0,1,-
BRDA:679,0,2,-
BRDA:679,0,3,-
BRDA:680,0,0,-
BRDA:680,0,1,-
BRDA:683,0,0,-
BRDA:683,0,1,-
BRDA:683,0,2,-
BRDA:683,0,3,-
BRDA:684,0,0,-
BRDA:684,0,1,-
BRDA:684,0,2,-
BRDA:684,0,3,-
BRDA:685,0,0,-
BRDA:685,0,1,-
BRDA:685,0,2,-
BRDA:685,0,3,-
BRDA:688,0,0,-
BRDA:688,0,1,-
BRDA:688,0,2,-
BRDA:691,0,0,-
BRDA:691,0,1,-
BRDA:692,0,0,-
BRDA:692,0,1,-
BRDA:695,0,0,-
BRDA:695,0,1,-
BRDA:696,0,0,-
BRDA:696,0,1,-
BRDA:697,0,0,-
BRDA:697,0,1,-
BRF:800
BRH:0
DA:21,0
DA:22,0
DA:25,0
DA:26,0
DA:27,0
DA:31,0
DA:32,0
DA:33,0
DA:35,0
DA:39,0
DA:40,0
DA:41,0
DA:42,0
DA:44,0
DA:47,0
DA:48,0
DA:49,0
DA:53,0
DA:57,0
DA:58,0
DA:61,0
DA:63,0
DA:64,0
DA:65,0
DA:66,0
DA:68,0
DA:69,0
DA:72,0
DA:73,0
DA:75,0
DA:76,0
DA:77,0
DA:79,0
DA:81,0
DA:82,0
DA:83,0
DA:84,0
DA:87,0
DA:88,0
DA:90,0
DA:92,0
DA:93,0
DA:96,0
DA:97,0
DA:98,0
DA:99,0
DA:101,0
DA:102,0
DA:103,0
DA:106,0
DA:107,0
DA:108,0
DA:109,0
DA:110,0
DA:111,0
DA:112,0
DA:114,0
DA:115,0
DA:116,0
DA:122,0
DA:123,0
DA:125,0
DA:126,0
DA:129,0
DA:130,0
DA:131,0
DA:132,0
DA:136,0
DA:137,0
DA:138,0
DA:142,0
DA:143,0
DA:145,0
DA:146,0
DA:150,0
DA:151,0
DA:155,0
DA:156,0
DA:157,0
DA:158,0
DA:162,0
DA:163,0
DA:166,0
DA:167,0
DA:168,0
DA:175,0
DA:176,0
DA:177,0
DA:178,0
DA:183,0
DA:184,0
DA:185,0
DA:187,0
DA:193,0
DA:194,0
DA:196,0
DA:197,0
DA:199,0
DA:203,0
DA:204,0
DA:205,0
DA:209,0
DA:210,0
DA:211,0
DA:213,0
DA:214,0
DA:217,0
DA:220,0
DA:221,0
DA:222,0
DA:225,0
DA:228,0
DA:229,0
DA:231,0
DA:234,0
DA:235,0
DA:237,0
DA:241,0
DA:242,0
DA:246,0
DA:247,0
DA:248,0
DA:249,0
DA:250,0
DA:252,0
DA:255,0
DA:256,0
DA:258,0
DA:259,0
DA:262,0
DA:263,0
DA:267,0
DA:268,0
DA:271,0
DA:272,0
DA:275,0
DA:278,0
DA:279,0
DA:280,0
DA:282,0
DA:283,0
DA:284,0
DA:285,0
DA:288,0
DA:290,0
DA:291,0
DA:292,0
DA:295,0
DA:296,0
DA:299,0
DA:302,0
DA:303,0
DA:304,0
DA:305,0
DA:308,0
DA:309,0
DA:310,0
DA:312,0
DA:313,0
DA:317,0
DA:318,0
DA:319,0
DA:322,0
DA:323,0
DA:325,0
DA:326,0
DA:327,0
DA:330,0
DA:331,0
DA:334,0
DA:335,0
DA:339,0
DA:340,0
DA:345,0
DA:346,0
DA:348,0
DA:349,0
DA:351,0
DA:355,0
DA:357,0
DA:358,0
DA:360,0
DA:361,0
DA:362,0
DA:364,0
DA:367,0
DA:369,0
DA:371,0
DA:373,0
DA:376,0
DA:377,0
DA:379,0
DA:381,0
DA:382,0
DA:383,0
DA:385,0
DA:386,0
DA:387,0
DA:389,0
DA:391,0
DA:393,0
DA:395,0
DA:396,0
DA:397,0
DA:401,0
DA:407,0
DA:415,0
DA:416,0
DA:418,0
DA:422,0
DA:424,0
DA:425,0
DA:427,0
DA:429,0
DA:431,0
DA:435,0
DA:436,0
DA:437,0
DA:438,0
DA:441,0
DA:443,0
DA:444,0
DA:445,0
DA:447,0
DA:448,0
DA:449,0
DA:453,0
DA:454,0
DA:455,0
DA:458,0
DA:459,0
DA:460,0
DA:463,0
DA:464,0
DA:466,0
DA:467,0
DA:470,0
DA:475,0
DA:476,0
DA:479,0
DA:480,0
DA:481,0
DA:482,0
DA:483,0
DA:486,0
DA:487,0
DA:489,0
DA:491,0
DA:492,0
DA:493,0
DA:496,0
DA:498,0
DA:499,0
DA:500,0
DA:504,0
DA:505,0
DA:506,0
DA:507,0
DA:508,0
DA:509,0
DA:511,0
DA:512,0
DA:513,0
DA:514,0
DA:519,0
DA:520,0
DA:521,0
DA:522,0
DA:523,0
DA:527,0
DA:528,0
DA:529,0
DA:530,0
DA:535,0
DA:536,0
DA:537,0
DA:539,0
DA:540,0
DA:541,0
DA:543,0
DA:544,0
DA:547,0
DA:548,0
DA:551,0
DA:552,0
DA:553,0
DA:558,0
DA:559,0
DA:560,0
DA:563,0
DA:564,0
DA:565,0
DA:566,0
DA:567,0
DA:570,0
DA:575,0
DA:576,0
DA:577,0
DA:578,0
DA:579,0
DA:580,0
DA:584,0
DA:585,0
DA:587,0
DA:588,0
DA:589,0
DA:590,0
DA:593,0
DA:594,0
DA:595,0
DA:599,0
DA:600,0
DA:602,0
DA:603,0
DA:604,0
DA:605,0
DA:606,0
DA:607,0
DA:609,0
DA:613,0
DA:617,0
DA:618,0
DA:619,0
DA:620,0
DA:621,0
DA:622,0
DA:623,0
DA:627,0
DA:628,0
DA:629,0
DA:630,0
DA:631,0
DA:632,0
DA:633,0
DA:637,0
DA:638,0
DA:639,0
DA:640,0
DA:643,0
DA:644,0
DA:649,0
DA:650,0
DA:651,0
DA:652,0
DA:655,0
DA:656,0
DA:657,0
DA:658,0
DA:660,0
DA:661,0
DA:663,0
DA:664,0
DA:665,0
DA:667,0
DA:668,0
DA:669,0
DA:671,0
DA:672,0
DA:673,0
DA:674,0
DA:675,0
DA:677,0
DA:679,0
DA:680,0
DA:683,0
DA:684,0
DA:685,0
DA:688,0
DA:691,0
DA:692,0
DA:693,0
DA:694,0
DA:695,0
DA:696,0
DA:697,0
DA:699,0
DA:700,0
LF:377
LH:0
end_of_record
TN:
SF:/home/xucong/caicAD/01datainfra/Aurora/aurora-edge-runtime/src/data_collection/data_collection_executor.h
FN:129,_ZN6aurora9collector22DataCollectionExecutor15setDataCallbackESt8functionIFvRKSt6vectorINS0_9DataPointESaIS4_EEEE
FN:172,_ZNK6aurora9collector22DataCollectionExecutor16getCurrentConfigEv
FN:188,_ZNK6aurora9collector22DataCollectionExecutor17getTriggerManagerEv
FNDA:0,_ZNK6aurora9collector22DataCollectionExecutor17getTriggerManagerEv
FNDA:0,_ZNK6aurora9collector22DataCollectionExecutor16getCurrentConfigEv
FNDA:0,_ZN6aurora9collector22DataCollectionExecutor15setDataCallbackESt8functionIFvRKSt6vectorINS0_9DataPointESaIS4_EEEE
FNF:3
FNH:0
DA:129,0
DA:172,0
DA:188,0
LF:3
LH:0
end_of_record
TN:
SF:/home/xucong/caicAD/01datainfra/Aurora/aurora-edge-runtime/src/data_collection/data_manager.cpp
FN:10,_ZN6aurora9collector11DataManagerC2Eiid
FN:23,_ZN6aurora9collector11DataManager12addDataPointERKNS0_9DataPointE
FN:31,_ZN6aurora9collector11DataManager13addDataPointsERKSt6vectorINS0_9DataPointESaIS3_EE
FN:47,_ZN6aurora9collector11DataManager5clearEv
FN:56,_ZN6aurora9collector11DataManager27updateCostmapWithStatisticsERNS_7planner7CostMapE
FN:73,_ZN6aurora9collector11DataManager21updateCoverageMetricsERKNS_7planner7CostMapE
FN:99,_ZNK6aurora9collector11DataManager17getCoverageReportB5cxx11Ev
FNDA:0,_ZN6aurora9collector11DataManager13addDataPointsERKSt6vectorINS0_9DataPointESaIS3_EE
FNDA:0,_ZNK6aurora9collector11DataManager17getCoverageReportB5cxx11Ev
FNDA:0,_ZN6aurora9collector11DataManager12addDataPointERKNS0_9DataPointE
FNDA:0,_ZN6aurora9collector11DataManager21updateCoverageMetricsERKNS_7planner7CostMapE
FNDA:0,_ZN6aurora9collector11DataManager27updateCostmapWithStatisticsERNS_7planner7CostMapE
FNDA:0,_ZN6aurora9collector11DataManagerC2Eiid
FNDA:0,_ZN6aurora9collector11DataManager5clearEv
FNF:7
FNH:0
BRDA:14,0,0,-
BRDA:14,0,1,-
BRDA:14,0,2,-
BRDA:14,0,3,-
BRDA:18,0,0,-
BRDA:18,0,1,-
BRDA:20,0,0,-
BRDA:20,0,1,-
BRDA:20,0,2,-
BRDA:20,0,3,-
BRDA:27,0,0,-
BRDA:27,0,1,-
BRDA:32,0,0,-
BRDA:32,0,1,-
BRDA:33,0,0,-
BRDA:33,0,1,-
BRDA:38,0,0,-
BRDA:38,0,1,-
BRDA:39,0,0,-
BRDA:39,0,1,-
BRDA:40,0,0,-
BRDA:40,0,1,-
BRDA:43,0,0,-
BRDA:43,0,1,-
BRDA:53,0,0,-
BRDA:53,0,1,-
BRDA:57,0,0,-
BRDA:57,0,1,-
BRDA:59,0,0,-
BRDA:59,0,1,-
BRDA:60,0,0,-
BRDA:60,0,1,-
BRDA:70,0,0,-
BRDA:70,0,1,-
BRDA:74,0,0,-
BRDA:74,0,1,-
BRDA:74,0,2,-
BRDA:74,0,3,-
BRDA:76,0,0,-
BRDA:76,0,1,-
BRDA:77,0,0,-
BRDA:77,0,1,-
BRDA:77,0,2,-
BRDA:77,0,3,-
BRDA:83,0,0,-
BRDA:83,0,1,-
BRDA:84,0,0,-
BRDA:84,0,1,-
BRDA:85,0,0,-
BRDA:85,0,1,-
BRDA:89,0,0,-
BRDA:89,0,1,-
BRDA:91,0,0,-
BRDA:91,0,1,-
BRDA:91,0,2,-
BRDA:91,0,3,-
BRDA:91,0,4,-
BRDA:91,0,5,-
BRDA:100,0,0,-
BRDA:100,0,1,-
BRDA:102,0,0,-
BRDA:102,0,1,-
BRDA:102,0,2,-
BRDA:102,0,3,-
BRDA:103,0,0,-
BRDA:103,0,1,-
BRDA:103,0,2,-
BRDA:103,0,3,-
BRDA:103,0,4,-
BRDA:103,0,5,-
BRDA:104,0,0,-
BRDA:104,0,1,-
BRDA:104,0,2,-
BRDA:104,0,3,-
BRDA:104,0,4,-
BRDA:104,0,5,-
BRDA:105,0,0,-
BRDA:105,0,1,-
BRDA:105,0,2,-
BRDA:105,0,3,-
BRDA:105,0,4,-
BRDA:105,0,5,-
BRDA:106,0,0,-
BRDA:106,0,1,-
BRDA:106,0,2,-
BRDA:106,0,3,-
BRDA:106,0,4,-
BRDA:106,0,5,-
BRDA:106,0,6,-
BRDA:106,0,7,-
BRDA:106,0,8,-
BRDA:106,0,9,-
BRDA:107,0,0,-
BRDA:107,0,1,-
BRDA:107,0,2,-
BRDA:107,0,3,-
BRDA:107,0,4,-
BRDA:107,0,5,-
BRDA:107,0,6,-
BRDA:107,0,7,-
BRDA:107,0,8,-
BRDA:107,0,9,-
BRDA:108,0,0,-
BRDA:108,0,1,-
BRDA:108,0,2,-
BRDA:108,0,3,-
BRDA:110,0,0,-
BRDA:110,0,1,-
BRF:108
BRH:0
DA:10,0
DA:11,0
DA:12,0
DA:13,0
DA:14,0
DA:18,0
DA:20,0
DA:21,0
DA:23,0
DA:24,0
DA:25,0
DA:27,0
DA:29,0
DA:31,0
DA:32,0
DA:33,0
DA:34,0
DA:38,0
DA:39,0
DA:40,0
DA:43,0
DA:47,0
DA:48,0
DA:49,0
DA:50,0
DA:51,0
DA:53,0
DA:54,0
DA:56,0
DA:57,0
DA:59,0
DA:60,0
DA:61,0
DA:65,0
DA:68,0
DA:70,0
DA:73,0
DA:74,0
DA:76,0
DA:77,0
DA:78,0
DA:82,0
DA:83,0
DA:84,0
DA:85,0
DA:89,0
DA:91,0
DA:97,0
DA:99,0
DA:100,0
DA:102,0
DA:103,0
DA:104,0
DA:105,0
DA:106,0
DA:107,0
DA:108,0
DA:110,0
DA:111,0
LF:59
LH:0
end_of_record
TN:
SF:/home/xucong/caicAD/01datainfra/Aurora/aurora-edge-runtime/src/data_collection/data_manager.h
FN:53,_ZN6aurora9collector11DataManagerD2Ev
FN:112,_ZNK6aurora9collector11DataManager18getCoverageMetricsEv
FNDA:0,_ZNK6aurora9collector11DataManager18getCoverageMetricsEv
FNDA:0,_ZN6aurora9collector11DataManagerD2Ev
FNF:2
FNH:0
DA:53,0
DA:112,0
LF:2
LH:0
end_of_record
TN:
SF:/home/xucong/caicAD/01datainfra/Aurora/aurora-edge-runtime/src/data_collection/recorder/diskspace_checker.hpp
FN:10,_ZN16DiskSpaceCheckerC2Ed
FN:16,_ZN16DiskSpaceChecker12setThresholdEd
FN:58,_ZNK16DiskSpaceChecker12getDiskSpaceERKNSt7__cxx1112basic_stringIcSt11char_traitsIcESaIcEEERyS8_
FNDA:0,_ZN16DiskSpaceCheckerC2Ed
FNDA:0,_ZN16DiskSpaceChecker12setThresholdEd
FNDA:0,_ZNK16DiskSpaceChecker12getDiskSpaceERKNSt7__cxx1112basic_stringIcSt11char_traitsIcESaIcEEERyS8_
FNF:3
FNH:0
BRDA:11,0,0,-
BRDA:11,0,1,-
BRDA:11,0,2,-
BRDA:11,0,3,-
BRDA:12,0,0,-
BRDA:12,0,1,-
BRDA:17,0,0,-
BRDA:17,0,1,-
BRDA:17,0,2,-
BRDA:17,0,3,-
BRDA:18,0,0,-
BRDA:18,0,1,-
BRDA:60,0,0,-
BRDA:60,0,1,-
BRF:14
BRH:0
DA:10,0
DA:11,0
DA:12,0
DA:14,0
DA:16,0
DA:17,0
DA:18,0
DA:20,0
DA:21,0
DA:58,0
DA:60,0
DA:61,0
DA:63,0
DA:64,0
DA:65,0
LF:15
LH:0
end_of_record
TN:
SF:/home/xucong/caicAD/01datainfra/Aurora/aurora-edge-runtime/src/data_collection/recorder/file_compress.cpp
FN:14,_ZN6aurora9collector12FileCompress13CompressFilesERKSt6vectorINSt7__cxx1112basic_stringIcSt11char_traitsIcESaIcEEESaIS8_EERKS8_
FN:123,_ZN6aurora9collector12FileCompress23CompressSingleFileToLz4ERKNSt7__cxx1112basic_stringIcSt11char_traitsIcESaIcEEES9_
FN:154,_ZN6aurora9collector12FileCompress12CompressDataERKSt6vectorIcSaIcEERS4_
FN:191,_ZN6aurora9collector12FileCompress19GetFilesInDirectoryERKNSt7__cxx1112basic_stringIcSt11char_traitsIcESaIcEEERSt6vectorIS7_SaIS7_EE
FNDA:0,_ZN6aurora9collector12FileCompress19GetFilesInDirectoryERKNSt7__cxx1112basic_stringIcSt11char_traitsIcESaIcEEERSt6vectorIS7_SaIS7_EE
FNDA:10,_ZN6aurora9collector12FileCompress23CompressSingleFileToLz4ERKNSt7__cxx1112basic_stringIcSt11char_traitsIcESaIcEEES9_
FNDA:10,_ZN6aurora9collector12FileCompress12CompressDataERKSt6vectorIcSaIcEERS4_
FNDA:4,_ZN6aurora9collector12FileCompress13CompressFilesERKSt6vectorINSt7__cxx1112basic_stringIcSt11char_traitsIcESaIcEEESaIS8_EERKS8_
FNF:4
FNH:3
BRDA:19,0,0,7
BRDA:19,0,1,3
BRDA:20,0,0,7
BRDA:20,0,1,0
BRDA:20,0,2,7
BRDA:20,0,3,0
BRDA:20,0,4,6
BRDA:20,0,5,1
BRDA:21,0,0,6
BRDA:21,0,1,0
BRDA:22,0,0,1
BRDA:22,0,1,0
BRDA:22,0,2,1
BRDA:22,0,3,0
BRDA:22,0,4,0
BRDA:22,0,5,1
BRDA:25,0,0,-
BRDA:25,0,1,-
BRDA:26,0,0,-
BRDA:26,0,1,-
BRDA:27,0,0,-
BRDA:27,0,1,-
BRDA:27,0,2,-
BRDA:27,0,3,-
BRDA:27,0,4,-
BRDA:27,0,5,-
BRDA:32,0,0,-
BRDA:32,0,1,-
BRDA:33,0,0,-
BRDA:33,0,1,-
BRDA:35,0,0,-
BRDA:35,0,1,-
BRDA:36,0,0,1
BRDA:36,0,1,0
BRDA:36,0,2,1
BRDA:36,0,3,0
BRDA:36,0,4,1
BRDA:36,0,5,0
BRDA:41,0,0,3
BRDA:41,0,1,0
BRDA:44,0,0,3
BRDA:44,0,1,0
BRDA:44,0,2,0
BRDA:44,0,3,3
BRDA:45,0,0,-
BRDA:45,0,1,-
BRDA:45,0,2,-
BRDA:45,0,3,-
BRDA:49,0,0,6
BRDA:49,0,1,3
BRDA:50,0,0,6
BRDA:50,0,1,0
BRDA:51,0,0,6
BRDA:51,0,1,0
BRDA:51,0,2,0
BRDA:51,0,3,6
BRDA:52,0,0,-
BRDA:52,0,1,-
BRDA:52,0,2,-
BRDA:52,0,3,-
BRDA:52,0,4,-
BRDA:52,0,5,-
BRDA:53,0,0,-
BRDA:53,0,1,-
BRDA:57,0,0,6
BRDA:57,0,1,0
BRDA:58,0,0,6
BRDA:58,0,1,0
BRDA:60,0,0,6
BRDA:60,0,1,0
BRDA:61,0,0,6
BRDA:61,0,1,0
BRDA:62,0,0,6
BRDA:62,0,1,0
BRDA:64,0,0,6
BRDA:64,0,1,0
BRDA:65,0,0,18
BRDA:65,0,1,6
BRDA:66,0,0,18
BRDA:66,0,1,0
BRDA:66,0,2,18
BRDA:66,0,3,0
BRDA:66,0,4,0
BRDA:66,0,5,18
BRDA:66,0,6,0
BRDA:66,0,7,0
BRDA:66,0,8,0
BRDA:66,0,9,0
BRDA:66,0,10,0
BRDA:66,0,11,0
BRDA:66,0,12,0
BRDA:66,0,13,18
BRDA:66,0,14,0
BRDA:66,0,15,18
BRDA:66,0,16,18
BRDA:66,0,17,0
BRDA:66,0,18,0
BRDA:66,0,19,18
BRDA:66,0,20,0
BRDA:66,0,21,0
BRDA:66,0,22,0
BRDA:66,0,23,0
BRDA:66,0,24,0
BRDA:66,0,25,0
BRDA:67,0,0,-
BRDA:67,0,1,-
BRDA:73,0,0,6
BRDA:73,0,1,0
BRDA:74,0,0,6
BRDA:74,0,1,0
BRDA:77,0,0,6
BRDA:77,0,1,0
BRDA:77,0,2,0
BRDA:77,0,3,6
BRDA:78,0,0,-
BRDA:78,0,1,-
BRDA:78,0,2,-
BRDA:78,0,3,-
BRDA:78,0,4,-
BRDA:78,0,5,-
BRDA:79,0,0,-
BRDA:79,0,1,-
BRDA:82,0,0,6
BRDA:82,0,1,0
BRDA:82,0,2,0
BRDA:82,0,3,6
BRDA:83,0,0,-
BRDA:83,0,1,-
BRDA:83,0,2,-
BRDA:83,0,3,-
BRDA:83,0,4,-
BRDA:83,0,5,-
BRDA:84,0,0,-
BRDA:84,0,1,-
BRDA:87,0,0,6
BRDA:87,0,1,0
BRDA:87,0,2,6
BRDA:87,0,3,0
BRDA:87,0,4,6
BRDA:87,0,5,0
BRDA:89,0,0,3
BRDA:89,0,1,0
BRDA:90,0,0,3
BRDA:90,0,1,0
BRDA:92,0,0,3
BRDA:92,0,1,0
BRDA:93,0,0,3
BRDA:93,0,1,0
BRDA:93,0,2,0
BRDA:93,0,3,3
BRDA:94,0,0,-
BRDA:94,0,1,-
BRDA:94,0,2,-
BRDA:94,0,3,-
BRDA:94,0,4,-
BRDA:94,0,5,-
BRDA:98,0,0,3
BRDA:98,0,1,0
BRDA:99,0,0,3
BRDA:99,0,1,0
BRDA:102,0,0,3
BRDA:102,0,1,0
BRDA:103,0,0,0
BRDA:103,0,1,3
BRDA:104,0,0,-
BRDA:104,0,1,-
BRDA:104,0,2,-
BRDA:104,0,3,-
BRDA:109,0,0,3
BRDA:109,0,1,0
BRDA:110,0,0,3
BRDA:110,0,1,0
BRDA:110,0,2,0
BRDA:110,0,3,3
BRDA:111,0,0,-
BRDA:111,0,1,-
BRDA:111,0,2,-
BRDA:111,0,3,-
BRDA:111,0,4,-
BRDA:111,0,5,-
BRDA:115,0,0,3
BRDA:115,0,1,0
BRDA:116,0,0,3
BRDA:116,0,1,0
BRDA:125,0,0,10
BRDA:125,0,1,0
BRDA:125,0,2,10
BRDA:125,0,3,0
BRDA:125,0,4,2
BRDA:125,0,5,8
BRDA:126,0,0,2
BRDA:126,0,1,0
BRDA:126,0,2,2
BRDA:126,0,3,0
BRDA:126,0,4,2
BRDA:126,0,5,0
BRDA:126,0,6,2
BRDA:126,0,7,0
BRDA:129,0,0,8
BRDA:129,0,1,0
BRDA:130,0,0,8
BRDA:130,0,1,0
BRDA:130,0,2,1
BRDA:130,0,3,7
BRDA:131,0,0,1
BRDA:131,0,1,0
BRDA:131,0,2,1
BRDA:131,0,3,0
BRDA:131,0,4,1
BRDA:131,0,5,0
BRDA:134,0,0,7
BRDA:134,0,1,0
BRDA:135,0,0,7
BRDA:135,0,1,0
BRDA:135,0,2,0
BRDA:135,0,3,7
BRDA:136,0,0,-
BRDA:136,0,1,-
BRDA:136,0,2,-
BRDA:136,0,3,-
BRDA:136,0,4,-
BRDA:136,0,5,-
BRDA:142,0,0,7
BRDA:142,0,1,0
BRDA:145,0,0,7
BRDA:145,0,1,0
BRDA:146,0,0,0
BRDA:146,0,1,7
BRDA:149,0,0,7
BRDA:149,0,1,0
BRDA:158,0,0,10
BRDA:158,0,1,0
BRDA:159,0,0,10
BRDA:159,0,1,0
BRDA:159,0,2,0
BRDA:159,0,3,10
BRDA:160,0,0,-
BRDA:160,0,1,-
BRDA:160,0,2,-
BRDA:160,0,3,-
BRDA:160,0,4,-
BRDA:160,0,5,-
BRDA:160,0,6,-
BRDA:160,0,7,-
BRDA:169,0,0,10
BRDA:169,0,1,0
BRDA:170,0,0,10
BRDA:170,0,1,0
BRDA:172,0,0,10
BRDA:172,0,1,0
BRDA:178,0,0,10
BRDA:178,0,1,0
BRDA:178,0,2,0
BRDA:178,0,3,10
BRDA:179,0,0,-
BRDA:179,0,1,-
BRDA:179,0,2,-
BRDA:179,0,3,-
BRDA:179,0,4,-
BRDA:179,0,5,-
BRDA:179,0,6,-
BRDA:179,0,7,-
BRDA:180,0,0,-
BRDA:180,0,1,-
BRDA:184,0,0,10
BRDA:184,0,1,0
BRDA:185,0,0,10
BRDA:185,0,1,0
BRDA:193,0,0,-
BRDA:193,0,1,-
BRDA:193,0,2,-
BRDA:193,0,3,-
BRDA:193,0,4,-
BRDA:193,0,5,-
BRDA:193,0,6,-
BRDA:193,0,7,-
BRDA:194,0,0,-
BRDA:194,0,1,-
BRDA:194,0,2,-
BRDA:194,0,3,-
BRDA:195,0,0,-
BRDA:195,0,1,-
BRDA:195,0,2,-
BRDA:195,0,3,-
BRDA:198,0,0,0
BRDA:198,0,1,0
BRDA:199,0,0,0
BRDA:199,0,1,0
BRDA:199,0,2,0
BRDA:199,0,3,0
BRDA:199,0,4,0
BRDA:199,0,5,0
BRDA:199,0,6,0
BRDA:199,0,7,0
BRDA:199,0,8,0
BRDA:199,0,9,0
BRF:296
BRH:91
DA:14,4
DA:17,4
DA:19,10
DA:20,7
DA:21,6
DA:22,1
DA:24,0
DA:25,0
DA:26,0
DA:27,0
DA:28,0
DA:32,0
DA:33,0
DA:35,0
DA:36,1
DA:37,1
DA:41,3
DA:44,3
DA:45,0
DA:46,0
DA:49,9
DA:50,6
DA:51,6
DA:52,0
DA:53,0
DA:54,0
DA:57,6
DA:58,6
DA:60,6
DA:61,6
DA:62,6
DA:64,6
DA:65,24
DA:66,18
DA:67,0
DA:68,0
DA:72,6
DA:73,6
DA:74,6
DA:77,6
DA:78,0
DA:79,0
DA:80,0
DA:82,6
DA:83,0
DA:84,0
DA:85,0
DA:87,6
DA:89,3
DA:90,3
DA:92,3
DA:93,3
DA:94,0
DA:95,0
DA:96,0
DA:98,3
DA:99,3
DA:101,3
DA:102,3
DA:103,3
DA:104,0
DA:105,0
DA:106,0
DA:109,3
DA:110,3
DA:111,0
DA:112,0
DA:113,0
DA:115,3
DA:116,3
DA:118,3
DA:120,3
DA:121,4
DA:123,10
DA:125,10
DA:126,2
DA:127,2
DA:129,8
DA:130,8
DA:131,1
DA:132,1
DA:134,7
DA:135,7
DA:136,0
DA:137,0
DA:142,7
DA:144,7
DA:145,7
DA:146,7
DA:147,0
DA:149,7
DA:150,7
DA:151,8
DA:154,10
DA:155,10
DA:158,10
DA:159,10
DA:160,0
DA:161,0
DA:164,10
DA:165,10
DA:166,10
DA:167,10
DA:169,10
DA:170,10
DA:172,10
DA:173,10
DA:174,10
DA:178,10
DA:179,0
DA:180,0
DA:181,0
DA:184,10
DA:185,10
DA:186,10
DA:191,0
DA:193,0
DA:194,0
DA:195,0
DA:197,0
DA:198,0
DA:199,0
DA:200,0
DA:201,0
DA:202,0
LF:125
LH:77
end_of_record
TN:
SF:/home/xucong/caicAD/01datainfra/Aurora/aurora-edge-runtime/src/data_collection/recorder/file_compress.h
FN:20,_ZN6aurora9collector12FileCompressD0Ev
FN:20,_ZN6aurora9collector12FileCompressD2Ev
FNDA:10,_ZN6aurora9collector12FileCompressD2Ev
FNDA:0,_ZN6aurora9collector12FileCompressD0Ev
FNF:2
FNH:1
DA:20,10
LF:1
LH:1
end_of_record
TN:
SF:/home/xucong/caicAD/01datainfra/Aurora/aurora-edge-runtime/src/data_collection/recorder/file_roller.cpp
FN:16,_ZN6aurora9collector10FileRollerC2Ev
FN:32,_ZNK6aurora9collector10FileRoller24getSortedCompressedFilesB5cxx11Ev
FN:52,_ZZNK6aurora9collector10FileRoller24getSortedCompressedFilesB5cxx11EvENKUlRKNSt7__cxx1112basic_stringIcSt11char_traitsIcESaIcEEES9_E_clES9_S9_
FN:62,_ZN6aurora9collector10FileRoller9rollFilesEv
FNDA:0,_ZN6aurora9collector10FileRoller9rollFilesEv
FNDA:0,_ZN6aurora9collector10FileRollerC2Ev
FNDA:0,_ZNK6aurora9collector10FileRoller24getSortedCompressedFilesB5cxx11Ev
FNDA:0,_ZZNK6aurora9collector10FileRoller24getSortedCompressedFilesB5cxx11EvENKUlRKNSt7__cxx1112basic_stringIcSt11char_traitsIcESaIcEEES9_E_clES9_S9_
FNF:4
FNH:0
BRDA:17,0,0,-
BRDA:17,0,1,-
BRDA:17,0,2,-
BRDA:17,0,3,-
BRDA:18,0,0,-
BRDA:18,0,1,-
BRDA:18,0,2,-
BRDA:18,0,3,-
BRDA:19,0,0,-
BRDA:19,0,1,-
BRDA:20,0,0,-
BRDA:20,0,1,-
BRDA:22,0,0,-
BRDA:22,0,1,-
BRDA:22,0,2,-
BRDA:22,0,3,-
BRDA:22,0,4,-
BRDA:22,0,5,-
BRDA:22,0,6,-
BRDA:22,0,7,-
BRDA:22,0,8,-
BRDA:22,0,9,-
BRDA:24,0,0,-
BRDA:24,0,1,-
BRDA:24,0,2,-
BRDA:24,0,3,-
BRDA:25,0,0,-
BRDA:25,0,1,-
BRDA:25,0,2,-
BRDA:25,0,3,-
BRDA:25,0,4,-
BRDA:25,0,5,-
BRDA:28,0,0,-
BRDA:28,0,1,-
BRDA:28,0,2,-
BRDA:28,0,3,-
BRDA:28,0,4,-
BRDA:28,0,5,-
BRDA:33,0,0,-
BRDA:33,0,1,-
BRDA:33,0,2,-
BRDA:33,0,3,-
BRDA:37,0,0,-
BRDA:37,0,1,-
BRDA:37,0,2,-
BRDA:37,0,3,-
BRDA:37,0,4,-
BRDA:37,0,5,-
BRDA:37,0,6,-
BRDA:37,0,7,-
BRDA:37,0,8,-
BRDA:37,0,9,-
BRDA:37,0,10,-
BRDA:37,0,11,-
BRDA:37,0,12,-
BRDA:37,0,13,-
BRDA:37,0,14,-
BRDA:37,0,15,-
BRDA:37,0,16,-
BRDA:37,0,17,-
BRDA:37,0,18,-
BRDA:37,0,19,-
BRDA:37,0,20,-
BRDA:37,0,21,-
BRDA:38,0,0,-
BRDA:38,0,1,-
BRDA:38,0,2,-
BRDA:38,0,3,-
BRDA:38,0,4,-
BRDA:38,0,5,-
BRDA:42,0,0,-
BRDA:42,0,1,-
BRDA:43,0,0,-
BRDA:43,0,1,-
BRDA:43,0,2,-
BRDA:43,0,3,-
BRDA:43,0,4,-
BRDA:43,0,5,-
BRDA:43,0,6,-
BRDA:43,0,7,-
BRDA:44,0,0,-
BRDA:44,0,1,-
BRDA:44,0,2,-
BRDA:44,0,3,-
BRDA:45,0,0,-
BRDA:45,0,1,-
BRDA:45,0,2,-
BRDA:45,0,3,-
BRDA:46,0,0,-
BRDA:46,0,1,-
BRDA:46,0,2,-
BRDA:46,0,3,-
BRDA:47,0,0,-
BRDA:47,0,1,-
BRDA:47,0,2,-
BRDA:47,0,3,-
BRDA:52,0,0,-
BRDA:52,0,1,-
BRDA:53,0,0,-
BRDA:53,0,1,-
BRDA:53,0,2,-
BRDA:53,0,3,-
BRDA:53,0,4,-
BRDA:53,0,5,-
BRDA:53,0,6,-
BRDA:53,0,7,-
BRDA:55,0,0,-
BRDA:55,0,1,-
BRDA:56,0,0,0
BRDA:56,0,1,0
BRDA:56,0,2,0
BRDA:56,0,3,0
BRDA:56,0,4,0
BRDA:56,0,5,0
BRDA:57,0,0,0
BRDA:57,0,1,0
BRDA:63,0,0,-
BRDA:63,0,1,-
BRDA:63,0,2,-
BRDA:63,0,3,-
BRDA:64,0,0,-
BRDA:64,0,1,-
BRDA:67,0,0,-
BRDA:67,0,1,-
BRDA:67,0,2,-
BRDA:67,0,3,-
BRDA:67,0,4,-
BRDA:67,0,5,-
BRDA:70,0,0,-
BRDA:70,0,1,-
BRDA:73,0,0,-
BRDA:73,0,1,-
BRDA:73,0,2,-
BRDA:73,0,3,-
BRDA:73,0,4,-
BRDA:73,0,5,-
BRDA:74,0,0,-
BRDA:74,0,1,-
BRDA:74,0,2,-
BRDA:74,0,3,-
BRDA:74,0,4,-
BRDA:74,0,5,-
BRDA:75,0,0,-
BRDA:75,0,1,-
BRDA:76,0,0,-
BRDA:76,0,1,-
BRDA:76,0,2,-
BRDA:76,0,3,-
BRDA:76,0,4,-
BRDA:76,0,5,-
BRDA:76,0,6,-
BRDA:76,0,7,-
BRDA:76,0,8,-
BRDA:76,0,9,-
BRDA:76,0,10,-
BRDA:76,0,11,-
BRDA:76,0,12,-
BRDA:76,0,13,-
BRDA:77,0,0,-
BRDA:77,0,1,-
BRDA:77,0,2,-
BRDA:77,0,3,-
BRDA:77,0,4,-
BRDA:77,0,5,-
BRDA:78,0,0,-
BRDA:78,0,1,-
BRDA:78,0,2,-
BRDA:78,0,3,-
BRDA:78,0,4,-
BRDA:78,0,5,-
BRDA:79,0,0,-
BRDA:79,0,1,-
BRDA:79,0,2,-
BRDA:79,0,3,-
BRDA:83,0,0,-
BRDA:83,0,1,-
BRDA:83,0,2,-
BRDA:83,0,3,-
BRDA:83,0,4,-
BRDA:83,0,5,-
BRDA:85,0,0,-
BRDA:85,0,1,-
BRDA:86,0,0,0
BRDA:86,0,1,0
BRDA:87,0,0,0
BRDA:87,0,1,0
BRDA:87,0,2,0
BRDA:87,0,3,0
BRDA:87,0,4,0
BRDA:87,0,5,0
BRDA:89,0,0,0
BRDA:89,0,1,0
BRF:192
BRH:0
DA:16,0
DA:17,0
DA:18,0
DA:19,0
DA:20,0
DA:22,0
DA:24,0
DA:25,0
DA:28,0
DA:30,0
DA:32,0
DA:33,0
DA:34,0
DA:37,0
DA:38,0
DA:39,0
DA:42,0
DA:43,0
DA:44,0
DA:45,0
DA:46,0
DA:47,0
DA:49,0
DA:50,0
DA:52,0
DA:53,0
DA:55,0
DA:56,0
DA:57,0
DA:59,0
DA:60,0
DA:62,0
DA:63,0
DA:64,0
DA:65,0
DA:67,0
DA:70,0
DA:72,0
DA:73,0
DA:74,0
DA:75,0
DA:76,0
DA:77,0
DA:78,0
DA:79,0
DA:81,0
DA:82,0
DA:83,0
DA:85,0
DA:86,0
DA:87,0
DA:88,0
DA:89,0
DA:92,0
DA:93,0
LF:55
LH:0
end_of_record
TN:
SF:/home/xucong/caicAD/01datainfra/Aurora/aurora-edge-runtime/src/data_collection/recorder/ros2bag_recorder.cpp
FN:22,_ZN6aurora9collector15Ros2BagRecorderC2ESt10shared_ptrIN6rclcpp4NodeEE
FN:34,_ZN6aurora9collector15Ros2BagRecorderD2Ev
FN:34,_ZN6aurora9collector15Ros2BagRecorderD0Ev
FN:40,_ZN6aurora9collector15Ros2BagRecorder4InitEv
FN:53,_ZN6aurora9collector15Ros2BagRecorder15InitRingBuffersEv
FN:89,_ZN6aurora9collector15Ros2BagRecorder4OpenENS0_7OptModeERKNSt7__cxx1112basic_stringIcSt11char_traitsIcESaIcEEE
FN:197,_ZNK6aurora9collector15Ros2BagRecorder8IsOpenedEv
FN:199,_ZN6aurora9collector15Ros2BagRecorder5WriteERKNSt7__cxx1112basic_stringIcSt11char_traitsIcESaIcEEEmPKvm
FN:225,_ZZN6aurora9collector15Ros2BagRecorder5WriteERKNSt7__cxx1112basic_stringIcSt11char_traitsIcESaIcEEEmPKvmENKUlP21rcutils_uint8_array_sE_clESD_
FN:278,_ZNK6aurora9collector15Ros2BagRecorder10GetBagInfoEv
FN:284,_ZN6aurora9collector15Ros2BagRecorder13ReadNextFrameEPNS0_13ReadedMessageE
FN:300,_ZN6aurora9collector15Ros2BagRecorder5CloseEv
FN:331,_ZNK6aurora9collector15Ros2BagRecorder14HasDataWrittenEv
FN:333,_ZN6aurora9collector15Ros2BagRecorder13TriggerRecordEmRKNSt7__cxx1112basic_stringIcSt11char_traitsIcESaIcEEE
FN:372,_ZZN6aurora9collector15Ros2BagRecorder13TriggerRecordEmRKNSt7__cxx1112basic_stringIcSt11char_traitsIcESaIcEEEENKUlvE_clEv
FN:392,_ZN6aurora9collector15Ros2BagRecorder14BreakOffRecordEv
FN:406,_ZN6aurora9collector15Ros2BagRecorder16write_ringbufferERKNSt7__cxx1112basic_stringIcSt11char_traitsIcESaIcEEE
FN:521,_ZN6aurora9collector15Ros2BagRecorder13SetMaxBagSizeEm
FN:530,_ZNK6aurora9collector15Ros2BagRecorder13GetStatisticsEv
FN:534,_ZN6aurora9collector15Ros2BagRecorder17OnMessageReceivedERKNSt7__cxx1112basic_stringIcSt11char_traitsIcESaIcEEERKN6rclcpp17SerializedMessageE
FN:574,_ZN6aurora9collector15Ros2BagRecorder17update_statisticsERKNSt7__cxx1112basic_stringIcSt11char_traitsIcESaIcEEEmm
FN:606,_ZN6aurora9collector15Ros2BagRecorder14log_statisticsEv
FN:625,_ZN6aurora9collector15Ros2BagRecorder17SetContinuousModeEb
FN:632,_ZNK6aurora9collector15Ros2BagRecorder16IsContinuousModeEv
FNDA:0,_ZN6aurora9collector15Ros2BagRecorderC2ESt10shared_ptrIN6rclcpp4NodeEE
FNDA:0,_ZN6aurora9collector15Ros2BagRecorderD0Ev
FNDA:0,_ZN6aurora9collector15Ros2BagRecorder13ReadNextFrameEPNS0_13ReadedMessageE
FNDA:0,_ZN6aurora9collector15Ros2BagRecorder17SetContinuousModeEb
FNDA:0,_ZZN6aurora9collector15Ros2BagRecorder13TriggerRecordEmRKNSt7__cxx1112basic_stringIcSt11char_traitsIcESaIcEEEENKUlvE_clEv
FNDA:0,_ZZN6aurora9collector15Ros2BagRecorder5WriteERKNSt7__cxx1112basic_stringIcSt11char_traitsIcESaIcEEEmPKvmENKUlP21rcutils_uint8_array_sE_clESD_
FNDA:0,_ZN6aurora9collector15Ros2BagRecorder13TriggerRecordEmRKNSt7__cxx1112basic_stringIcSt11char_traitsIcESaIcEEE
FNDA:0,_ZN6aurora9collector15Ros2BagRecorder5WriteERKNSt7__cxx1112basic_stringIcSt11char_traitsIcESaIcEEEmPKvm
FNDA:0,_ZNK6aurora9collector15Ros2BagRecorder14HasDataWrittenEv
FNDA:0,_ZN6aurora9collector15Ros2BagRecorder4OpenENS0_7OptModeERKNSt7__cxx1112basic_stringIcSt11char_traitsIcESaIcEEE
FNDA:0,_ZNK6aurora9collector15Ros2BagRecorder10GetBagInfoEv
FNDA:0,_ZNK6aurora9collector15Ros2BagRecorder16IsContinuousModeEv
FNDA:0,_ZN6aurora9collector15Ros2BagRecorder14BreakOffRecordEv
FNDA:0,_ZN6aurora9collector15Ros2BagRecorder16write_ringbufferERKNSt7__cxx1112basic_stringIcSt11char_traitsIcESaIcEEE
FNDA:0,_ZN6aurora9collector15Ros2BagRecorder17update_statisticsERKNSt7__cxx1112basic_stringIcSt11char_traitsIcESaIcEEEmm
FNDA:0,_ZN6aurora9collector15Ros2BagRecorder13SetMaxBagSizeEm
FNDA:0,_ZN6aurora9collector15Ros2BagRecorder15InitRingBuffersEv
FNDA:0,_ZN6aurora9collector15Ros2BagRecorder5CloseEv
FNDA:0,_ZN6aurora9collector15Ros2BagRecorder14log_statisticsEv
FNDA:0,_ZN6aurora9collector15Ros2BagRecorder4InitEv
FNDA:0,_ZN6aurora9collector15Ros2BagRecorderD2Ev
FNDA:0,_ZNK6aurora9collector15Ros2BagRecorder8IsOpenedEv
FNDA:0,_ZNK6aurora9collector15Ros2BagRecorder13GetStatisticsEv
FNDA:0,_ZN6aurora9collector15Ros2BagRecorder17OnMessageReceivedERKNSt7__cxx1112basic_stringIcSt11char_traitsIcESaIcEEERKN6rclcpp17SerializedMessageE
FNF:24
FNH:0
BRDA:29,0,0,-
BRDA:29,0,1,-
BRDA:35,0,0,-
BRDA:35,0,1,-
BRDA:41,0,0,-
BRDA:41,0,1,-
BRDA:42,0,0,-
BRDA:42,0,1,-
BRDA:42,0,2,-
BRDA:42,0,3,-
BRDA:42,0,4,-
BRDA:42,0,5,-
BRDA:42,0,6,-
BRDA:42,0,7,-
BRDA:42,0,8,-
BRDA:42,0,9,-
BRDA:42,0,10,-
BRDA:42,0,11,-
BRDA:42,0,12,-
BRDA:42,0,13,-
BRDA:47,0,0,-
BRDA:47,0,1,-
BRDA:47,0,2,-
BRDA:47,0,3,-
BRDA:47,0,4,-
BRDA:47,0,5,-
BRDA:47,0,6,-
BRDA:47,0,7,-
BRDA:47,0,8,-
BRDA:47,0,9,-
BRDA:47,0,10,-
BRDA:47,0,11,-
BRDA:47,0,12,-
BRDA:47,0,13,-
BRDA:60,0,0,-
BRDA:60,0,1,-
BRDA:62,0,0,-
BRDA:62,0,1,-
BRDA:62,0,2,-
BRDA:62,0,3,-
BRDA:70,0,0,-
BRDA:70,0,1,-
BRDA:71,0,0,-
BRDA:71,0,1,-
BRDA:72,0,0,-
BRDA:72,0,1,-
BRDA:72,0,2,-
BRDA:72,0,3,-
BRDA:72,0,4,-
BRDA:72,0,5,-
BRDA:72,0,6,-
BRDA:72,0,7,-
BRDA:72,0,8,-
BRDA:72,0,9,-
BRDA:72,0,10,-
BRDA:72,0,11,-
BRDA:72,0,12,-
BRDA:72,0,13,-
BRDA:72,0,14,-
BRDA:72,0,15,-
BRDA:72,0,16,-
BRDA:72,0,17,-
BRDA:72,0,18,-
BRDA:72,0,19,-
BRDA:72,0,20,-
BRDA:72,0,21,-
BRDA:72,0,22,-
BRDA:72,0,23,-
BRDA:72,0,24,-
BRDA:72,0,25,-
BRDA:72,0,26,-
BRDA:72,0,27,-
BRDA:76,0,0,-
BRDA:76,0,1,-
BRDA:77,0,0,-
BRDA:77,0,1,-
BRDA:78,0,0,-
BRDA:78,0,1,-
BRDA:78,0,2,-
BRDA:78,0,3,-
BRDA:78,0,4,-
BRDA:78,0,5,-
BRDA:78,0,6,-
BRDA:78,0,7,-
BRDA:78,0,8,-
BRDA:78,0,9,-
BRDA:78,0,10,-
BRDA:78,0,11,-
BRDA:78,0,12,-
BRDA:78,0,13,-
BRDA:78,0,14,-
BRDA:78,0,15,-
BRDA:78,0,16,-
BRDA:78,0,17,-
BRDA:78,0,18,-
BRDA:78,0,19,-
BRDA:78,0,20,-
BRDA:78,0,21,-
BRDA:78,0,22,-
BRDA:78,0,23,-
BRDA:78,0,24,-
BRDA:78,0,25,-
BRDA:78,0,26,-
BRDA:78,0,27,-
BRDA:82,0,0,-
BRDA:82,0,1,-
BRDA:83,0,0,-
BRDA:83,0,1,-
BRDA:85,0,0,-
BRDA:85,0,1,-
BRDA:85,0,2,-
BRDA:85,0,3,-
BRDA:90,0,0,-
BRDA:90,0,1,-
BRDA:91,0,0,-
BRDA:91,0,1,-
BRDA:91,0,2,-
BRDA:91,0,3,-
BRDA:91,0,4,-
BRDA:91,0,5,-
BRDA:91,0,6,-
BRDA:91,0,7,-
BRDA:91,0,8,-
BRDA:91,0,9,-
BRDA:91,0,10,-
BRDA:91,0,11,-
BRDA:91,0,12,-
BRDA:91,0,13,-
BRDA:96,0,0,-
BRDA:96,0,1,-
BRDA:97,0,0,-
BRDA:97,0,1,-
BRDA:97,0,2,-
BRDA:97,0,3,-
BRDA:97,0,4,-
BRDA:97,0,5,-
BRDA:97,0,6,-
BRDA:97,0,7,-
BRDA:97,0,8,-
BRDA:97,0,9,-
BRDA:97,0,10,-
BRDA:97,0,11,-
BRDA:97,0,12,-
BRDA:97,0,13,-
BRDA:98,0,0,-
BRDA:98,0,1,-
BRDA:99,0,0,-
BRDA:99,0,1,-
BRDA:99,0,2,-
BRDA:99,0,3,-
BRDA:99,0,4,-
BRDA:99,0,5,-
BRDA:99,0,6,-
BRDA:99,0,7,-
BRDA:99,0,8,-
BRDA:99,0,9,-
BRDA:99,0,10,-
BRDA:99,0,11,-
BRDA:99,0,12,-
BRDA:99,0,13,-
BRDA:106,0,0,-
BRDA:106,0,1,-
BRDA:108,0,0,-
BRDA:108,0,1,-
BRDA:110,0,0,-
BRDA:110,0,1,-
BRDA:111,0,0,-
BRDA:111,0,1,-
BRDA:111,0,2,-
BRDA:111,0,3,-
BRDA:112,0,0,-
BRDA:112,0,1,-
BRDA:112,0,2,-
BRDA:112,0,3,-
BRDA:112,0,4,-
BRDA:112,0,5,-
BRDA:112,0,6,-
BRDA:112,0,7,-
BRDA:112,0,8,-
BRDA:112,0,9,-
BRDA:112,0,10,-
BRDA:112,0,11,-
BRDA:112,0,12,-
BRDA:112,0,13,-
BRDA:112,0,14,-
BRDA:112,0,15,-
BRDA:112,0,16,-
BRDA:112,0,17,-
BRDA:112,0,18,-
BRDA:112,0,19,-
BRDA:112,0,20,-
BRDA:112,0,21,-
BRDA:112,0,22,-
BRDA:112,0,23,-
BRDA:112,0,24,-
BRDA:112,0,25,-
BRDA:112,0,26,-
BRDA:112,0,27,-
BRDA:113,0,0,-
BRDA:113,0,1,-
BRDA:117,0,0,-
BRDA:117,0,1,-
BRDA:118,0,0,-
BRDA:118,0,1,-
BRDA:118,0,2,-
BRDA:118,0,3,-
BRDA:118,0,4,-
BRDA:118,0,5,-
BRDA:118,0,6,-
BRDA:118,0,7,-
BRDA:120,0,0,-
BRDA:120,0,1,-
BRDA:121,0,0,-
BRDA:121,0,1,-
BRDA:122,0,0,-
BRDA:122,0,1,-
BRDA:122,0,2,-
BRDA:122,0,3,-
BRDA:122,0,4,-
BRDA:122,0,5,-
BRDA:122,0,6,-
BRDA:122,0,7,-
BRDA:122,0,8,-
BRDA:122,0,9,-
BRDA:122,0,10,-
BRDA:122,0,11,-
BRDA:122,0,12,-
BRDA:122,0,13,-
BRDA:122,0,14,-
BRDA:122,0,15,-
BRDA:122,0,16,-
BRDA:122,0,17,-
BRDA:122,0,18,-
BRDA:122,0,19,-
BRDA:122,0,20,-
BRDA:122,0,21,-
BRDA:122,0,22,-
BRDA:122,0,23,-
BRDA:122,0,24,-
BRDA:122,0,25,-
BRDA:122,0,26,-
BRDA:122,0,27,-
BRDA:122,0,28,-
BRDA:122,0,29,-
BRDA:132,0,0,-
BRDA:132,0,1,-
BRDA:132,0,2,-
BRDA:132,0,3,-
BRDA:132,0,4,-
BRDA:132,0,5,-
BRDA:133,0,0,-
BRDA:133,0,1,-
BRDA:133,0,2,-
BRDA:133,0,3,-
BRDA:133,0,4,-
BRDA:133,0,5,-
BRDA:133,0,6,-
BRDA:133,0,7,-
BRDA:133,0,8,-
BRDA:133,0,9,-
BRDA:133,0,10,-
BRDA:133,0,11,-
BRDA:133,0,12,-
BRDA:133,0,13,-
BRDA:133,0,14,-
BRDA:133,0,15,-
BRDA:133,0,16,-
BRDA:133,0,17,-
BRDA:133,0,18,-
BRDA:133,0,19,-
BRDA:133,0,20,-
BRDA:133,0,21,-
BRDA:133,0,22,-
BRDA:133,0,23,-
BRDA:133,0,24,-
BRDA:133,0,25,-
BRDA:133,0,26,-
BRDA:133,0,27,-
BRDA:140,0,0,-
BRDA:140,0,1,-
BRDA:141,0,0,-
BRDA:141,0,1,-
BRDA:142,0,0,-
BRDA:142,0,1,-
BRDA:143,0,0,-
BRDA:143,0,1,-
BRDA:149,0,0,-
BRDA:149,0,1,-
BRDA:149,0,2,-
BRDA:149,0,3,-
BRDA:151,0,0,-
BRDA:151,0,1,-
BRDA:151,0,2,-
BRDA:151,0,3,-
BRDA:153,0,0,-
BRDA:153,0,1,-
BRDA:153,0,2,-
BRDA:153,0,3,-
BRDA:154,0,0,-
BRDA:154,0,1,-
BRDA:157,0,0,-
BRDA:157,0,1,-
BRDA:158,0,0,-
BRDA:158,0,1,-
BRDA:160,0,0,-
BRDA:160,0,1,-
BRDA:161,0,0,-
BRDA:161,0,1,-
BRDA:162,0,0,-
BRDA:162,0,1,-
BRDA:162,0,2,-
BRDA:162,0,3,-
BRDA:163,0,0,-
BRDA:163,0,1,-
BRDA:164,0,0,-
BRDA:164,0,1,-
BRDA:164,0,2,-
BRDA:164,0,3,-
BRDA:164,0,4,-
BRDA:164,0,5,-
BRDA:164,0,6,-
BRDA:164,0,7,-
BRDA:164,0,8,-
BRDA:164,0,9,-
BRDA:164,0,10,-
BRDA:164,0,11,-
BRDA:164,0,12,-
BRDA:164,0,13,-
BRDA:164,0,14,-
BRDA:164,0,15,-
BRDA:164,0,16,-
BRDA:164,0,17,-
BRDA:164,0,18,-
BRDA:164,0,19,-
BRDA:164,0,20,-
BRDA:164,0,21,-
BRDA:164,0,22,-
BRDA:164,0,23,-
BRDA:164,0,24,-
BRDA:164,0,25,-
BRDA:164,0,26,-
BRDA:164,0,27,-
BRDA:170,0,0,-
BRDA:170,0,1,-
BRDA:171,0,0,-
BRDA:171,0,1,-
BRDA:175,0,0,-
BRDA:175,0,1,-
BRDA:175,0,2,-
BRDA:175,0,3,-
BRDA:177,0,0,-
BRDA:177,0,1,-
BRDA:177,0,2,-
BRDA:177,0,3,-
BRDA:177,0,4,-
BRDA:177,0,5,-
BRDA:177,0,6,-
BRDA:177,0,7,-
BRDA:177,0,8,-
BRDA:177,0,9,-
BRDA:177,0,10,-
BRDA:177,0,11,-
BRDA:177,0,12,-
BRDA:177,0,13,-
BRDA:177,0,14,-
BRDA:177,0,15,-
BRDA:177,0,16,-
BRDA:177,0,17,-
BRDA:177,0,18,-
BRDA:177,0,19,-
BRDA:177,0,20,-
BRDA:177,0,21,-
BRDA:177,0,22,-
BRDA:177,0,23,-
BRDA:177,0,24,-
BRDA:177,0,25,-
BRDA:177,0,26,-
BRDA:177,0,27,-
BRDA:179,0,0,-
BRDA:179,0,1,-
BRDA:179,0,2,-
BRDA:179,0,3,-
BRDA:179,0,4,-
BRDA:179,0,5,-
BRDA:181,0,0,-
BRDA:181,0,1,-
BRDA:181,0,2,-
BRDA:181,0,3,-
BRDA:181,0,4,-
BRDA:181,0,5,-
BRDA:181,0,6,-
BRDA:181,0,7,-
BRDA:181,0,8,-
BRDA:181,0,9,-
BRDA:181,0,10,-
BRDA:181,0,11,-
BRDA:181,0,12,-
BRDA:181,0,13,-
BRDA:181,0,14,-
BRDA:181,0,15,-
BRDA:181,0,16,-
BRDA:181,0,17,-
BRDA:181,0,18,-
BRDA:181,0,19,-
BRDA:181,0,20,-
BRDA:181,0,21,-
BRDA:181,0,22,-
BRDA:181,0,23,-
BRDA:181,0,24,-
BRDA:181,0,25,-
BRDA:181,0,26,-
BRDA:181,0,27,-
BRDA:190,0,0,0
BRDA:190,0,1,0
BRDA:191,0,0,0
BRDA:191,0,1,0
BRDA:191,0,2,0
BRDA:191,0,3,0
BRDA:191,0,4,0
BRDA:191,0,5,0
BRDA:191,0,6,0
BRDA:191,0,7,0
BRDA:191,0,8,0
BRDA:191,0,9,0
BRDA:191,0,10,0
BRDA:191,0,11,0
BRDA:191,0,12,0
BRDA:191,0,13,0
BRDA:191,0,14,0
BRDA:191,0,15,0
BRDA:191,0,16,0
BRDA:191,0,17,0
BRDA:191,0,18,0
BRDA:191,0,19,0
BRDA:191,0,20,0
BRDA:191,0,21,0
BRDA:191,0,22,0
BRDA:191,0,23,0
BRDA:191,0,24,0
BRDA:191,0,25,0
BRDA:191,0,26,0
BRDA:191,0,27,0
BRDA:202,0,0,-
BRDA:202,0,1,-
BRDA:202,0,2,-
BRDA:202,0,3,-
BRDA:202,0,4,-
BRDA:202,0,5,-
BRDA:203,0,0,-
BRDA:203,0,1,-
BRDA:203,0,2,-
BRDA:203,0,3,-
BRDA:203,0,4,-
BRDA:203,0,5,-
BRDA:203,0,6,-
BRDA:203,0,7,-
BRDA:203,0,8,-
BRDA:203,0,9,-
BRDA:203,0,10,-
BRDA:203,0,11,-
BRDA:203,0,12,-
BRDA:203,0,13,-
BRDA:208,0,0,-
BRDA:208,0,1,-
BRDA:208,0,2,-
BRDA:208,0,3,-
BRDA:209,0,0,-
BRDA:209,0,1,-
BRDA:209,0,2,-
BRDA:209,0,3,-
BRDA:209,0,4,-
BRDA:209,0,5,-
BRDA:209,0,6,-
BRDA:209,0,7,-
BRDA:209,0,8,-
BRDA:209,0,9,-
BRDA:209,0,10,-
BRDA:209,0,11,-
BRDA:209,0,12,-
BRDA:209,0,13,-
BRDA:217,0,0,-
BRDA:217,0,1,-
BRDA:219,0,0,-
BRDA:219,0,1,-
BRDA:224,0,0,-
BRDA:224,0,1,-
BRDA:224,0,2,-
BRDA:224,0,3,-
BRDA:226,0,0,-
BRDA:226,0,1,-
BRDA:228,0,0,-
BRDA:228,0,1,-
BRDA:232,0,0,-
BRDA:232,0,1,-
BRDA:236,0,0,-
BRDA:236,0,1,-
BRDA:244,0,0,-
BRDA:244,0,1,-
BRDA:250,0,0,-
BRDA:250,0,1,-
BRDA:261,0,0,-
BRDA:261,0,1,-
BRDA:265,0,0,-
BRDA:265,0,1,-
BRDA:270,0,0,-
BRDA:270,0,1,-
BRDA:271,0,0,0
BRDA:271,0,1,0
BRDA:271,0,2,0
BRDA:271,0,3,0
BRDA:271,0,4,0
BRDA:271,0,5,0
BRDA:271,0,6,0
BRDA:271,0,7,0
BRDA:271,0,8,0
BRDA:271,0,9,0
BRDA:271,0,10,0
BRDA:271,0,11,0
BRDA:271,0,12,0
BRDA:271,0,13,0
BRDA:271,0,14,0
BRDA:271,0,15,0
BRDA:271,0,16,0
BRDA:271,0,17,0
BRDA:271,0,18,0
BRDA:271,0,19,0
BRDA:271,0,20,0
BRDA:271,0,21,0
BRDA:271,0,22,0
BRDA:271,0,23,0
BRDA:271,0,24,0
BRDA:271,0,25,0
BRDA:271,0,26,0
BRDA:271,0,27,0
BRDA:285,0,0,-
BRDA:285,0,1,-
BRDA:285,0,2,-
BRDA:285,0,3,-
BRDA:286,0,0,-
BRDA:286,0,1,-
BRDA:286,0,2,-
BRDA:286,0,3,-
BRDA:286,0,4,-
BRDA:286,0,5,-
BRDA:286,0,6,-
BRDA:286,0,7,-
BRDA:286,0,8,-
BRDA:286,0,9,-
BRDA:286,0,10,-
BRDA:286,0,11,-
BRDA:286,0,12,-
BRDA:286,0,13,-
BRDA:291,0,0,-
BRDA:291,0,1,-
BRDA:296,0,0,-
BRDA:296,0,1,-
BRDA:296,0,2,-
BRDA:296,0,3,-
BRDA:296,0,4,-
BRDA:296,0,5,-
BRDA:296,0,6,-
BRDA:296,0,7,-
BRDA:296,0,8,-
BRDA:296,0,9,-
BRDA:296,0,10,-
BRDA:296,0,11,-
BRDA:296,0,12,-
BRDA:296,0,13,-
BRDA:301,0,0,-
BRDA:301,0,1,-
BRDA:306,0,0,-
BRDA:306,0,1,-
BRDA:314,0,0,-
BRDA:314,0,1,-
BRDA:315,0,0,-
BRDA:315,0,1,-
BRDA:316,0,0,-
BRDA:316,0,1,-
BRDA:318,0,0,-
BRDA:318,0,1,-
BRDA:318,0,2,-
BRDA:318,0,3,-
BRDA:318,0,4,-
BRDA:318,0,5,-
BRDA:318,0,6,-
BRDA:318,0,7,-
BRDA:318,0,8,-
BRDA:318,0,9,-
BRDA:318,0,10,-
BRDA:318,0,11,-
BRDA:318,0,12,-
BRDA:318,0,13,-
BRDA:318,0,14,-
BRDA:318,0,15,-
BRDA:318,0,16,-
BRDA:318,0,17,-
BRDA:318,0,18,-
BRDA:318,0,19,-
BRDA:318,0,20,-
BRDA:318,0,21,-
BRDA:318,0,22,-
BRDA:318,0,23,-
BRDA:318,0,24,-
BRDA:318,0,25,-
BRDA:318,0,26,-
BRDA:318,0,27,-
BRDA:325,0,0,0
BRDA:325,0,1,0
BRDA:326,0,0,0
BRDA:326,0,1,0
BRDA:326,0,2,0
BRDA:326,0,3,0
BRDA:326,0,4,0
BRDA:326,0,5,0
BRDA:326,0,6,0
BRDA:326,0,7,0
BRDA:326,0,8,0
BRDA:326,0,9,0
BRDA:326,0,10,0
BRDA:326,0,11,0
BRDA:326,0,12,0
BRDA:326,0,13,0
BRDA:326,0,14,0
BRDA:326,0,15,0
BRDA:326,0,16,0
BRDA:326,0,17,0
BRDA:326,0,18,0
BRDA:326,0,19,0
BRDA:326,0,20,0
BRDA:326,0,21,0
BRDA:326,0,22,0
BRDA:326,0,23,0
BRDA:326,0,24,0
BRDA:326,0,25,0
BRDA:326,0,26,0
BRDA:326,0,27,0
BRDA:335,0,0,-
BRDA:335,0,1,-
BRDA:336,0,0,-
BRDA:336,0,1,-
BRDA:337,0,0,-
BRDA:337,0,1,-
BRDA:337,0,2,-
BRDA:337,0,3,-
BRDA:337,0,4,-
BRDA:337,0,5,-
BRDA:337,0,6,-
BRDA:337,0,7,-
BRDA:337,0,8,-
BRDA:337,0,9,-
BRDA:337,0,10,-
BRDA:337,0,11,-
BRDA:337,0,12,-
BRDA:337,0,13,-
BRDA:337,0,14,-
BRDA:337,0,15,-
BRDA:337,0,16,-
BRDA:337,0,17,-
BRDA:337,0,18,-
BRDA:337,0,19,-
BRDA:337,0,20,-
BRDA:337,0,21,-
BRDA:337,0,22,-
BRDA:337,0,23,-
BRDA:337,0,24,-
BRDA:337,0,25,-
BRDA:337,0,26,-
BRDA:337,0,27,-
BRDA:347,0,0,-
BRDA:347,0,1,-
BRDA:351,0,0,-
BRDA:351,0,1,-
BRDA:356,0,0,-
BRDA:356,0,1,-
BRDA:356,0,2,-
BRDA:356,0,3,-
BRDA:356,0,4,-
BRDA:356,0,5,-
BRDA:357,0,0,-
BRDA:357,0,1,-
BRDA:358,0,0,-
BRDA:358,0,1,-
BRDA:359,0,0,-
BRDA:359,0,1,-
BRDA:362,0,0,-
BRDA:362,0,1,-
BRDA:370,0,0,-
BRDA:370,0,1,-
BRDA:371,0,0,-
BRDA:371,0,1,-
BRDA:374,0,0,-
BRDA:374,0,1,-
BRDA:375,0,0,-
BRDA:375,0,1,-
BRDA:376,0,0,-
BRDA:376,0,1,-
BRDA:379,0,0,-
BRDA:379,0,1,-
BRDA:380,0,0,-
BRDA:380,0,1,-
BRDA:380,0,2,-
BRDA:380,0,3,-
BRDA:380,0,4,-
BRDA:380,0,5,-
BRDA:380,0,6,-
BRDA:380,0,7,-
BRDA:380,0,8,-
BRDA:380,0,9,-
BRDA:380,0,10,-
BRDA:380,0,11,-
BRDA:380,0,12,-
BRDA:380,0,13,-
BRDA:380,0,14,-
BRDA:380,0,15,-
BRDA:380,0,16,-
BRDA:380,0,17,-
BRDA:380,0,18,-
BRDA:380,0,19,-
BRDA:380,0,20,-
BRDA:380,0,21,-
BRDA:380,0,22,-
BRDA:380,0,23,-
BRDA:380,0,24,-
BRDA:380,0,25,-
BRDA:380,0,26,-
BRDA:380,0,27,-
BRDA:393,0,0,-
BRDA:393,0,1,-
BRDA:393,0,2,-
BRDA:393,0,3,-
BRDA:393,0,4,-
BRDA:393,0,5,-
BRDA:393,0,6,-
BRDA:393,0,7,-
BRDA:393,0,8,-
BRDA:393,0,9,-
BRDA:393,0,10,-
BRDA:393,0,11,-
BRDA:393,0,12,-
BRDA:393,0,13,-
BRDA:403,0,0,-
BRDA:403,0,1,-
BRDA:403,0,2,-
BRDA:403,0,3,-
BRDA:403,0,4,-
BRDA:403,0,5,-
BRDA:403,0,6,-
BRDA:403,0,7,-
BRDA:403,0,8,-
BRDA:403,0,9,-
BRDA:403,0,10,-
BRDA:403,0,11,-
BRDA:403,0,12,-
BRDA:403,0,13,-
BRDA:407,0,0,-
BRDA:407,0,1,-
BRDA:407,0,2,-
BRDA:407,0,3,-
BRDA:407,0,4,-
BRDA:407,0,5,-
BRDA:407,0,6,-
BRDA:407,0,7,-
BRDA:407,0,8,-
BRDA:407,0,9,-
BRDA:407,0,10,-
BRDA:407,0,11,-
BRDA:407,0,12,-
BRDA:407,0,13,-
BRDA:407,0,14,-
BRDA:407,0,15,-
BRDA:407,0,16,-
BRDA:407,0,17,-
BRDA:407,0,18,-
BRDA:407,0,19,-
BRDA:407,0,20,-
BRDA:407,0,21,-
BRDA:407,0,22,-
BRDA:407,0,23,-
BRDA:407,0,24,-
BRDA:407,0,25,-
BRDA:407,0,26,-
BRDA:407,0,27,-
BRDA:411,0,0,-
BRDA:411,0,1,-
BRDA:411,0,2,-
BRDA:411,0,3,-
BRDA:411,0,4,-
BRDA:411,0,5,-
BRDA:411,0,6,-
BRDA:411,0,7,-
BRDA:411,0,8,-
BRDA:411,0,9,-
BRDA:411,0,10,-
BRDA:411,0,11,-
BRDA:411,0,12,-
BRDA:411,0,13,-
BRDA:411,0,14,-
BRDA:411,0,15,-
BRDA:411,0,16,-
BRDA:411,0,17,-
BRDA:411,0,18,-
BRDA:411,0,19,-
BRDA:411,0,20,-
BRDA:411,0,21,-
BRDA:411,0,22,-
BRDA:411,0,23,-
BRDA:411,0,24,-
BRDA:411,0,25,-
BRDA:411,0,26,-
BRDA:411,0,27,-
BRDA:412,0,0,-
BRDA:412,0,1,-
BRDA:412,0,2,-
BRDA:412,0,3,-
BRDA:413,0,0,-
BRDA:413,0,1,-
BRDA:413,0,2,-
BRDA:413,0,3,-
BRDA:413,0,4,-
BRDA:413,0,5,-
BRDA:413,0,6,-
BRDA:413,0,7,-
BRDA:413,0,8,-
BRDA:413,0,9,-
BRDA:413,0,10,-
BRDA:413,0,11,-
BRDA:413,0,12,-
BRDA:413,0,13,-
BRDA:413,0,14,-
BRDA:413,0,15,-
BRDA:413,0,16,-
BRDA:413,0,17,-
BRDA:413,0,18,-
BRDA:413,0,19,-
BRDA:413,0,20,-
BRDA:413,0,21,-
BRDA:413,0,22,-
BRDA:413,0,23,-
BRDA:413,0,24,-
BRDA:413,0,25,-
BRDA:413,0,26,-
BRDA:413,0,27,-
BRDA:416,0,0,-
BRDA:416,0,1,-
BRDA:416,0,2,-
BRDA:416,0,3,-
BRDA:416,0,4,-
BRDA:416,0,5,-
BRDA:416,0,6,-
BRDA:416,0,7,-
BRDA:416,0,8,-
BRDA:416,0,9,-
BRDA:416,0,10,-
BRDA:416,0,11,-
BRDA:416,0,12,-
BRDA:416,0,13,-
BRDA:416,0,14,-
BRDA:416,0,15,-
BRDA:416,0,16,-
BRDA:416,0,17,-
BRDA:416,0,18,-
BRDA:416,0,19,-
BRDA:416,0,20,-
BRDA:416,0,21,-
BRDA:416,0,22,-
BRDA:416,0,23,-
BRDA:416,0,24,-
BRDA:416,0,25,-
BRDA:416,0,26,-
BRDA:416,0,27,-
BRDA:418,0,0,-
BRDA:418,0,1,-
BRDA:418,0,2,-
BRDA:418,0,3,-
BRDA:418,0,4,-
BRDA:418,0,5,-
BRDA:418,0,6,-
BRDA:418,0,7,-
BRDA:418,0,8,-
BRDA:418,0,9,-
BRDA:418,0,10,-
BRDA:418,0,11,-
BRDA:418,0,12,-
BRDA:418,0,13,-
BRDA:418,0,14,-
BRDA:418,0,15,-
BRDA:418,0,16,-
BRDA:418,0,17,-
BRDA:418,0,18,-
BRDA:418,0,19,-
BRDA:418,0,20,-
BRDA:418,0,21,-
BRDA:418,0,22,-
BRDA:418,0,23,-
BRDA:418,0,24,-
BRDA:418,0,25,-
BRDA:418,0,26,-
BRDA:418,0,27,-
BRDA:427,0,0,-
BRDA:427,0,1,-
BRDA:427,0,2,-
BRDA:427,0,3,-
BRDA:427,0,4,-
BRDA:427,0,5,-
BRDA:427,0,6,-
BRDA:427,0,7,-
BRDA:427,0,8,-
BRDA:427,0,9,-
BRDA:427,0,10,-
BRDA:427,0,11,-
BRDA:427,0,12,-
BRDA:427,0,13,-
BRDA:427,0,14,-
BRDA:427,0,15,-
BRDA:427,0,16,-
BRDA:427,0,17,-
BRDA:427,0,18,-
BRDA:427,0,19,-
BRDA:427,0,20,-
BRDA:427,0,21,-
BRDA:427,0,22,-
BRDA:427,0,23,-
BRDA:427,0,24,-
BRDA:427,0,25,-
BRDA:427,0,26,-
BRDA:427,0,27,-
BRDA:428,0,0,-
BRDA:428,0,1,-
BRDA:431,0,0,-
BRDA:431,0,1,-
BRDA:432,0,0,-
BRDA:432,0,1,-
BRDA:433,0,0,-
BRDA:433,0,1,-
BRDA:435,0,0,-
BRDA:435,0,1,-
BRDA:435,0,2,-
BRDA:435,0,3,-
BRDA:435,0,4,-
BRDA:435,0,5,-
BRDA:436,0,0,-
BRDA:436,0,1,-
BRDA:436,0,2,-
BRDA:436,0,3,-
BRDA:436,0,4,-
BRDA:436,0,5,-
BRDA:436,0,6,-
BRDA:436,0,7,-
BRDA:436,0,8,-
BRDA:436,0,9,-
BRDA:436,0,10,-
BRDA:436,0,11,-
BRDA:436,0,12,-
BRDA:436,0,13,-
BRDA:436,0,14,-
BRDA:436,0,15,-
BRDA:436,0,16,-
BRDA:436,0,17,-
BRDA:436,0,18,-
BRDA:436,0,19,-
BRDA:436,0,20,-
BRDA:436,0,21,-
BRDA:436,0,22,-
BRDA:436,0,23,-
BRDA:436,0,24,-
BRDA:436,0,25,-
BRDA:436,0,26,-
BRDA:436,0,27,-
BRDA:444,0,0,-
BRDA:444,0,1,-
BRDA:445,0,0,-
BRDA:445,0,1,-
BRDA:446,0,0,-
BRDA:446,0,1,-
BRDA:446,0,2,-
BRDA:446,0,3,-
BRDA:450,0,0,-
BRDA:450,0,1,-
BRDA:451,0,0,-
BRDA:451,0,1,-
BRDA:451,0,2,-
BRDA:451,0,3,-
BRDA:452,0,0,-
BRDA:452,0,1,-
BRDA:456,0,0,-
BRDA:456,0,1,-
BRDA:456,0,2,-
BRDA:456,0,3,-
BRDA:456,0,4,-
BRDA:456,0,5,-
BRDA:456,0,6,-
BRDA:456,0,7,-
BRDA:456,0,8,-
BRDA:456,0,9,-
BRDA:456,0,10,-
BRDA:456,0,11,-
BRDA:456,0,12,-
BRDA:456,0,13,-
BRDA:456,0,14,-
BRDA:456,0,15,-
BRDA:456,0,16,-
BRDA:456,0,17,-
BRDA:456,0,18,-
BRDA:456,0,19,-
BRDA:456,0,20,-
BRDA:456,0,21,-
BRDA:456,0,22,-
BRDA:456,0,23,-
BRDA:456,0,24,-
BRDA:456,0,25,-
BRDA:456,0,26,-
BRDA:456,0,27,-
BRDA:464,0,0,-
BRDA:464,0,1,-
BRDA:464,0,2,-
BRDA:464,0,3,-
BRDA:464,0,4,-
BRDA:464,0,5,-
BRDA:466,0,0,-
BRDA:466,0,1,-
BRDA:466,0,2,-
BRDA:466,0,3,-
BRDA:466,0,4,-
BRDA:466,0,5,-
BRDA:467,0,0,-
BRDA:467,0,1,-
BRDA:467,0,2,-
BRDA:467,0,3,-
BRDA:468,0,0,-
BRDA:468,0,1,-
BRDA:468,0,2,-
BRDA:468,0,3,-
BRDA:472,0,0,-
BRDA:472,0,1,-
BRDA:474,0,0,-
BRDA:474,0,1,-
BRDA:474,0,2,-
BRDA:474,0,3,-
BRDA:475,0,0,-
BRDA:475,0,1,-
BRDA:479,0,0,-
BRDA:479,0,1,-
BRDA:479,0,2,-
BRDA:479,0,3,-
BRDA:479,0,4,-
BRDA:479,0,5,-
BRDA:479,0,6,-
BRDA:479,0,7,-
BRDA:479,0,8,-
BRDA:479,0,9,-
BRDA:479,0,10,-
BRDA:479,0,11,-
BRDA:479,0,12,-
BRDA:479,0,13,-
BRDA:479,0,14,-
BRDA:479,0,15,-
BRDA:479,0,16,-
BRDA:479,0,17,-
BRDA:479,0,18,-
BRDA:479,0,19,-
BRDA:479,0,20,-
BRDA:479,0,21,-
BRDA:479,0,22,-
BRDA:479,0,23,-
BRDA:479,0,24,-
BRDA:479,0,25,-
BRDA:479,0,26,-
BRDA:479,0,27,-
BRDA:488,0,0,-
BRDA:488,0,1,-
BRDA:490,0,0,-
BRDA:490,0,1,-
BRDA:490,0,2,-
BRDA:490,0,3,-
BRDA:490,0,4,-
BRDA:490,0,5,-
BRDA:491,0,0,-
BRDA:491,0,1,-
BRDA:491,0,2,-
BRDA:491,0,3,-
BRDA:495,0,0,-
BRDA:495,0,1,-
BRDA:497,0,0,-
BRDA:497,0,1,-
BRDA:497,0,2,-
BRDA:497,0,3,-
BRDA:501,0,0,-
BRDA:501,0,1,-
BRDA:501,0,2,-
BRDA:501,0,3,-
BRDA:501,0,4,-
BRDA:501,0,5,-
BRDA:501,0,6,-
BRDA:501,0,7,-
BRDA:501,0,8,-
BRDA:501,0,9,-
BRDA:501,0,10,-
BRDA:501,0,11,-
BRDA:501,0,12,-
BRDA:501,0,13,-
BRDA:501,0,14,-
BRDA:501,0,15,-
BRDA:501,0,16,-
BRDA:501,0,17,-
BRDA:501,0,18,-
BRDA:501,0,19,-
BRDA:501,0,20,-
BRDA:501,0,21,-
BRDA:501,0,22,-
BRDA:501,0,23,-
BRDA:501,0,24,-
BRDA:501,0,25,-
BRDA:501,0,26,-
BRDA:501,0,27,-
BRDA:508,0,0,-
BRDA:508,0,1,-
BRDA:508,0,2,-
BRDA:508,0,3,-
BRDA:508,0,4,-
BRDA:508,0,5,-
BRDA:508,0,6,-
BRDA:508,0,7,-
BRDA:508,0,8,-
BRDA:508,0,9,-
BRDA:508,0,10,-
BRDA:508,0,11,-
BRDA:508,0,12,-
BRDA:508,0,13,-
BRDA:508,0,14,-
BRDA:508,0,15,-
BRDA:508,0,16,-
BRDA:508,0,17,-
BRDA:508,0,18,-
BRDA:508,0,19,-
BRDA:508,0,20,-
BRDA:508,0,21,-
BRDA:508,0,22,-
BRDA:508,0,23,-
BRDA:508,0,24,-
BRDA:508,0,25,-
BRDA:508,0,26,-
BRDA:508,0,27,-
BRDA:512,0,0,-
BRDA:512,0,1,-
BRDA:512,0,2,-
BRDA:512,0,3,-
BRDA:512,0,4,-
BRDA:512,0,5,-
BRDA:512,0,6,-
BRDA:512,0,7,-
BRDA:512,0,8,-
BRDA:512,0,9,-
BRDA:512,0,10,-
BRDA:512,0,11,-
BRDA:512,0,12,-
BRDA:512,0,13,-
BRDA:512,0,14,-
BRDA:512,0,15,-
BRDA:512,0,16,-
BRDA:512,0,17,-
BRDA:512,0,18,-
BRDA:512,0,19,-
BRDA:512,0,20,-
BRDA:512,0,21,-
BRDA:512,0,22,-
BRDA:512,0,23,-
BRDA:512,0,24,-
BRDA:512,0,25,-
BRDA:512,0,26,-
BRDA:512,0,27,-
BRDA:516,0,0,-
BRDA:516,0,1,-
BRDA:517,0,0,-
BRDA:517,0,1,-
BRDA:517,0,2,-
BRDA:517,0,3,-
BRDA:517,0,4,-
BRDA:517,0,5,-
BRDA:517,0,6,-
BRDA:517,0,7,-
BRDA:517,0,8,-
BRDA:517,0,9,-
BRDA:517,0,10,-
BRDA:517,0,11,-
BRDA:517,0,12,-
BRDA:517,0,13,-
BRDA:517,0,14,-
BRDA:517,0,15,-
BRDA:517,0,16,-
BRDA:517,0,17,-
BRDA:517,0,18,-
BRDA:517,0,19,-
BRDA:517,0,20,-
BRDA:517,0,21,-
BRDA:517,0,22,-
BRDA:517,0,23,-
BRDA:517,0,24,-
BRDA:517,0,25,-
BRDA:517,0,26,-
BRDA:517,0,27,-
BRDA:524,0,0,-
BRDA:524,0,1,-
BRDA:524,0,2,-
BRDA:524,0,3,-
BRDA:524,0,4,-
BRDA:524,0,5,-
BRDA:524,0,6,-
BRDA:524,0,7,-
BRDA:524,0,8,-
BRDA:524,0,9,-
BRDA:524,0,10,-
BRDA:524,0,11,-
BRDA:524,0,12,-
BRDA:524,0,13,-
BRDA:535,0,0,-
BRDA:535,0,1,-
BRDA:536,0,0,-
BRDA:536,0,1,-
BRDA:539,0,0,-
BRDA:539,0,1,-
BRDA:540,0,0,-
BRDA:540,0,1,-
BRDA:540,0,2,-
BRDA:540,0,3,-
BRDA:540,0,4,-
BRDA:540,0,5,-
BRDA:541,0,0,-
BRDA:541,0,1,-
BRDA:542,0,0,-
BRDA:542,0,1,-
BRDA:548,0,0,-
BRDA:548,0,1,-
BRDA:549,0,0,-
BRDA:549,0,1,-
BRDA:552,0,0,-
BRDA:552,0,1,-
BRDA:553,0,0,-
BRDA:553,0,1,-
BRDA:553,0,2,-
BRDA:553,0,3,-
BRDA:555,0,0,-
BRDA:555,0,1,-
BRDA:555,0,2,-
BRDA:555,0,3,-
BRDA:555,0,4,-
BRDA:555,0,5,-
BRDA:555,0,6,-
BRDA:555,0,7,-
BRDA:556,0,0,-
BRDA:556,0,1,-
BRDA:556,0,2,-
BRDA:556,0,3,-
BRDA:556,0,4,-
BRDA:556,0,5,-
BRDA:557,0,0,-
BRDA:557,0,1,-
BRDA:557,0,2,-
BRDA:557,0,3,-
BRDA:559,0,0,-
BRDA:559,0,1,-
BRDA:559,0,2,-
BRDA:559,0,3,-
BRDA:562,0,0,-
BRDA:562,0,1,-
BRDA:562,0,2,-
BRDA:562,0,3,-
BRDA:562,0,4,-
BRDA:562,0,5,-
BRDA:562,0,6,-
BRDA:562,0,7,-
BRDA:564,0,0,-
BRDA:564,0,1,-
BRDA:566,0,0,-
BRDA:566,0,1,-
BRDA:567,0,0,-
BRDA:567,0,1,-
BRDA:567,0,2,-
BRDA:567,0,3,-
BRDA:581,0,0,-
BRDA:581,0,1,-
BRDA:587,0,0,-
BRDA:587,0,1,-
BRDA:587,0,2,-
BRDA:587,0,3,-
BRDA:588,0,0,-
BRDA:588,0,1,-
BRDA:589,0,0,-
BRDA:589,0,1,-
BRDA:590,0,0,-
BRDA:590,0,1,-
BRDA:591,0,0,-
BRDA:591,0,1,-
BRDA:591,0,2,-
BRDA:591,0,3,-
BRDA:591,0,4,-
BRDA:591,0,5,-
BRDA:596,0,0,-
BRDA:596,0,1,-
BRDA:597,0,0,-
BRDA:597,0,1,-
BRDA:599,0,0,-
BRDA:599,0,1,-
BRDA:600,0,0,-
BRDA:600,0,1,-
BRDA:607,0,0,-
BRDA:607,0,1,-
BRDA:607,0,2,-
BRDA:607,0,3,-
BRDA:607,0,4,-
BRDA:607,0,5,-
BRDA:607,0,6,-
BRDA:607,0,7,-
BRDA:607,0,8,-
BRDA:607,0,9,-
BRDA:607,0,10,-
BRDA:607,0,11,-
BRDA:607,0,12,-
BRDA:607,0,13,-
BRDA:607,0,14,-
BRDA:607,0,15,-
BRDA:607,0,16,-
BRDA:607,0,17,-
BRDA:617,0,0,-
BRDA:617,0,1,-
BRDA:618,0,0,-
BRDA:618,0,1,-
BRDA:618,0,2,-
BRDA:618,0,3,-
BRDA:618,0,4,-
BRDA:618,0,5,-
BRDA:618,0,6,-
BRDA:618,0,7,-
BRDA:618,0,8,-
BRDA:618,0,9,-
BRDA:618,0,10,-
BRDA:618,0,11,-
BRDA:618,0,12,-
BRDA:618,0,13,-
BRDA:618,0,14,-
BRDA:618,0,15,-
BRDA:618,0,16,-
BRDA:618,0,17,-
BRDA:618,0,18,-
BRDA:618,0,19,-
BRDA:618,0,20,-
BRDA:618,0,21,-
BRDA:618,0,22,-
BRDA:618,0,23,-
BRDA:618,0,24,-
BRDA:618,0,25,-
BRDA:618,0,26,-
BRDA:618,0,27,-
BRDA:627,0,0,-
BRDA:627,0,1,-
BRDA:628,0,0,-
BRDA:628,0,1,-
BRDA:628,0,2,-
BRDA:628,0,3,-
BRDA:628,0,4,-
BRDA:628,0,5,-
BRDA:628,0,6,-
BRDA:628,0,7,-
BRDA:628,0,8,-
BRDA:628,0,9,-
BRDA:628,0,10,-
BRDA:628,0,11,-
BRDA:628,0,12,-
BRDA:628,0,13,-
BRF:1368
BRH:0
DA:22,0
DA:23,0
DA:24,0
DA:25,0
DA:26,0
DA:27,0
DA:28,0
DA:29,0
DA:30,0
DA:31,0
DA:32,0
DA:34,0
DA:35,0
DA:36,0
DA:38,0
DA:40,0
DA:41,0
DA:42,0
DA:43,0
DA:46,0
DA:47,0
DA:49,0
DA:53,0
DA:55,0
DA:56,0
DA:58,0
DA:60,0
DA:61,0
DA:62,0
DA:64,0
DA:67,0
DA:68,0
DA:70,0
DA:71,0
DA:72,0
DA:73,0
DA:76,0
DA:77,0
DA:78,0
DA:79,0
DA:82,0
DA:83,0
DA:85,0
DA:86,0
DA:89,0
DA:90,0
DA:91,0
DA:93,0
DA:96,0
DA:97,0
DA:98,0
DA:99,0
DA:100,0
DA:105,0
DA:106,0
DA:108,0
DA:110,0
DA:111,0
DA:112,0
DA:113,0
DA:117,0
DA:118,0
DA:119,0
DA:120,0
DA:121,0
DA:122,0
DA:124,0
DA:130,0
DA:131,0
DA:132,0
DA:133,0
DA:136,0
DA:140,0
DA:141,0
DA:142,0
DA:143,0
DA:144,0
DA:147,0
DA:149,0
DA:151,0
DA:153,0
DA:154,0
DA:157,0
DA:158,0
DA:159,0
DA:160,0
DA:161,0
DA:162,0
DA:163,0
DA:164,0
DA:166,0
DA:167,0
DA:170,0
DA:171,0
DA:172,0
DA:173,0
DA:174,0
DA:175,0
DA:177,0
DA:179,0
DA:181,0
DA:183,0
DA:186,0
DA:187,0
DA:188,0
DA:190,0
DA:191,0
DA:192,0
DA:193,0
DA:194,0
DA:197,0
DA:199,0
DA:202,0
DA:203,0
DA:205,0
DA:208,0
DA:209,0
DA:211,0
DA:217,0
DA:219,0
DA:223,0
DA:224,0
DA:225,0
DA:226,0
DA:228,0
DA:229,0
DA:232,0
DA:234,0
DA:236,0
DA:237,0
DA:240,0
DA:241,0
DA:242,0
DA:243,0
DA:244,0
DA:248,0
DA:249,0
DA:250,0
DA:251,0
DA:254,0
DA:257,0
DA:261,0
DA:264,0
DA:265,0
DA:268,0
DA:270,0
DA:271,0
DA:274,0
DA:275,0
DA:278,0
DA:279,0
DA:280,0
DA:281,0
DA:284,0
DA:285,0
DA:286,0
DA:288,0
DA:291,0
DA:292,0
DA:296,0
DA:297,0
DA:300,0
DA:301,0
DA:302,0
DA:306,0
DA:307,0
DA:310,0
DA:311,0
DA:312,0
DA:314,0
DA:315,0
DA:316,0
DA:317,0
DA:318,0
DA:323,0
DA:325,0
DA:326,0
DA:327,0
DA:328,0
DA:331,0
DA:333,0
DA:335,0
DA:336,0
DA:337,0
DA:338,0
DA:341,0
DA:342,0
DA:347,0
DA:348,0
DA:349,0
DA:351,0
DA:352,0
DA:353,0
DA:355,0
DA:356,0
DA:357,0
DA:358,0
DA:359,0
DA:362,0
DA:363,0
DA:364,0
DA:367,0
DA:369,0
DA:370,0
DA:371,0
DA:372,0
DA:374,0
DA:375,0
DA:376,0
DA:377,0
DA:378,0
DA:379,0
DA:380,0
DA:381,0
DA:383,0
DA:384,0
DA:386,0
DA:388,0
DA:390,0
DA:392,0
DA:393,0
DA:394,0
DA:395,0
DA:403,0
DA:404,0
DA:406,0
DA:407,0
DA:408,0
DA:409,0
DA:411,0
DA:412,0
DA:413,0
DA:414,0
DA:416,0
DA:418,0
DA:421,0
DA:422,0
DA:424,0
DA:425,0
DA:427,0
DA:428,0
DA:429,0
DA:431,0
DA:432,0
DA:433,0
DA:435,0
DA:436,0
DA:437,0
DA:438,0
DA:440,0
DA:441,0
DA:443,0
DA:444,0
DA:445,0
DA:446,0
DA:447,0
DA:448,0
DA:450,0
DA:451,0
DA:452,0
DA:453,0
DA:454,0
DA:456,0
DA:464,0
DA:465,0
DA:466,0
DA:467,0
DA:468,0
DA:469,0
DA:470,0
DA:472,0
DA:474,0
DA:475,0
DA:476,0
DA:477,0
DA:479,0
DA:488,0
DA:489,0
DA:490,0
DA:491,0
DA:492,0
DA:493,0
DA:495,0
DA:497,0
DA:498,0
DA:499,0
DA:501,0
DA:508,0
DA:510,0
DA:512,0
DA:516,0
DA:517,0
DA:518,0
DA:521,0
DA:522,0
DA:524,0
DA:527,0
DA:530,0
DA:531,0
DA:534,0
DA:535,0
DA:536,0
DA:539,0
DA:540,0
DA:541,0
DA:542,0
DA:544,0
DA:548,0
DA:549,0
DA:552,0
DA:553,0
DA:554,0
DA:555,0
DA:556,0
DA:557,0
DA:559,0
DA:562,0
DA:563,0
DA:564,0
DA:566,0
DA:567,0
DA:568,0
DA:571,0
DA:574,0
DA:577,0
DA:578,0
DA:579,0
DA:581,0
DA:582,0
DA:584,0
DA:587,0
DA:588,0
DA:589,0
DA:590,0
DA:591,0
DA:595,0
DA:596,0
DA:597,0
DA:599,0
DA:600,0
DA:601,0
DA:602,0
DA:604,0
DA:606,0
DA:607,0
DA:617,0
DA:618,0
DA:623,0
DA:625,0
DA:626,0
DA:627,0
DA:628,0
DA:630,0
DA:632,0
DA:633,0
LF:355
LH:0
end_of_record
TN:
SF:/home/xucong/caicAD/01datainfra/Aurora/aurora-edge-runtime/src/data_collection/recorder/ros2bag_recorder.h
FN:138,_ZN6aurora9collector15Ros2BagRecorder11setStrategyERKSt10shared_ptrINS0_8StrategyEE
FN:146,_ZN6aurora9collector15Ros2BagRecorder12setCacheModeERKNS0_9CacheModeE
FNDA:0,_ZN6aurora9collector15Ros2BagRecorder11setStrategyERKSt10shared_ptrINS0_8StrategyEE
FNDA:0,_ZN6aurora9collector15Ros2BagRecorder12setCacheModeERKNS0_9CacheModeE
FNF:2
FNH:0
DA:138,0
DA:139,0
DA:140,0
DA:146,0
DA:147,0
DA:148,0
LF:6
LH:0
end_of_record
TN:
SF:/home/xucong/caicAD/01datainfra/Aurora/aurora-edge-runtime/src/data_collection/trigger/common/expression_parser.cpp
FN:44,_ZN6aurora9collector16ExpressionParserC2Ev
FN:46,_ZN6aurora9collector16ExpressionParserD2Ev
FN:48,_ZN6aurora9collector16ExpressionParser7compileERKNSt7__cxx1112basic_stringIcSt11char_traitsIcESaIcEEEb
FN:91,_ZN6aurora9collector16ExpressionParser12set_variableERKNSt7__cxx1112basic_stringIcSt11char_traitsIcESaIcEEEd
FN:114,_ZN6aurora9collector16ExpressionParser13set_variablesERKSt13unordered_mapINSt7__cxx1112basic_stringIcSt11char_traitsIcESaIcEEEdSt4hashIS8_ESt8equal_toIS8_ESaISt4pairIKS8_dEEE
FN:128,_ZN6aurora9collector16ExpressionParser8evaluateERb
FN:144,_ZNK6aurora9collector16ExpressionParser18get_variable_namesB5cxx11Ev
FN:158,_ZNK6aurora9collector16ExpressionParser10last_errorB5cxx11Ev
FN:162,_ZN6aurora9collector16ExpressionParser11clear_cacheEv
FN:170,_ZN6aurora9collector16ExpressionParser12add_functionERKNSt7__cxx1112basic_stringIcSt11char_traitsIcESaIcEEEPFddE
FN:190,_ZNK6aurora9collector16ExpressionParser4Impl22extract_variable_namesERKNSt7__cxx1112basic_stringIcSt11char_traitsIcESaIcEEE
FN:217,_ZNK6aurora9collector16ExpressionParser4Impl16is_reserved_wordERKNSt7__cxx1112basic_stringIcSt11char_traitsIcESaIcEEE
FN:221,_ZN6aurora9collector16ExpressionParser4Impl24rebuild_expression_cacheEv
FNDA:0,_ZN6aurora9collector16ExpressionParserD2Ev
FNDA:0,_ZN6aurora9collector16ExpressionParser11clear_cacheEv
FNDA:0,_ZN6aurora9collector16ExpressionParserC2Ev
FNDA:0,_ZN6aurora9collector16ExpressionParser7compileERKNSt7__cxx1112basic_stringIcSt11char_traitsIcESaIcEEEb
FNDA:0,_ZN6aurora9collector16ExpressionParser12set_variableERKNSt7__cxx1112basic_stringIcSt11char_traitsIcESaIcEEEd
FNDA:0,_ZN6aurora9collector16ExpressionParser12add_functionERKNSt7__cxx1112basic_stringIcSt11char_traitsIcESaIcEEEPFddE
FNDA:0,_ZNK6aurora9collector16ExpressionParser4Impl16is_reserved_wordERKNSt7__cxx1112basic_stringIcSt11char_traitsIcESaIcEEE
FNDA:0,_ZNK6aurora9collector16ExpressionParser10last_errorB5cxx11Ev
FNDA:0,_ZNK6aurora9collector16ExpressionParser18get_variable_namesB5cxx11Ev
FNDA:0,_ZN6aurora9collector16ExpressionParser8evaluateERb
FNDA:0,_ZN6aurora9collector16ExpressionParser13set_variablesERKSt13unordered_mapINSt7__cxx1112basic_stringIcSt11char_traitsIcESaIcEEEdSt4hashIS8_ESt8equal_toIS8_ESaISt4pairIKS8_dEEE
FNDA:0,_ZN6aurora9collector16ExpressionParser4Impl24rebuild_expression_cacheEv
FNDA:0,_ZNK6aurora9collector16ExpressionParser4Impl22extract_variable_namesERKNSt7__cxx1112basic_stringIcSt11char_traitsIcESaIcEEE
FNF:13
FNH:0
BRDA:50,0,0,-
BRDA:50,0,1,-
BRDA:51,0,0,-
BRDA:51,0,1,-
BRDA:52,0,0,-
BRDA:52,0,1,-
BRDA:54,0,0,-
BRDA:54,0,1,-
BRDA:60,0,0,-
BRDA:60,0,1,-
BRDA:63,0,0,-
BRDA:63,0,1,-
BRDA:64,0,0,-
BRDA:64,0,1,-
BRDA:67,0,0,-
BRDA:67,0,1,-
BRDA:68,0,0,-
BRDA:68,0,1,-
BRDA:69,0,0,-
BRDA:69,0,1,-
BRDA:70,0,0,-
BRDA:70,0,1,-
BRDA:70,0,2,-
BRDA:70,0,3,-
BRDA:74,0,0,-
BRDA:74,0,1,-
BRDA:77,0,0,-
BRDA:77,0,1,-
BRDA:77,0,2,-
BRDA:77,0,3,-
BRDA:78,0,0,-
BRDA:78,0,1,-
BRDA:83,0,0,-
BRDA:83,0,1,-
BRDA:85,0,0,-
BRDA:85,0,1,-
BRDA:86,0,0,-
BRDA:86,0,1,-
BRDA:92,0,0,-
BRDA:92,0,1,-
BRDA:93,0,0,-
BRDA:93,0,1,-
BRDA:97,0,0,-
BRDA:97,0,1,-
BRDA:98,0,0,-
BRDA:98,0,1,-
BRDA:99,0,0,-
BRDA:99,0,1,-
BRDA:103,0,0,-
BRDA:103,0,1,-
BRDA:104,0,0,-
BRDA:104,0,1,-
BRDA:106,0,0,-
BRDA:106,0,1,-
BRDA:106,0,2,-
BRDA:106,0,3,-
BRDA:115,0,0,-
BRDA:115,0,1,-
BRDA:117,0,0,-
BRDA:117,0,1,-
BRDA:118,0,0,-
BRDA:118,0,1,-
BRDA:120,0,0,-
BRDA:120,0,1,-
BRDA:121,0,0,-
BRDA:121,0,1,-
BRDA:122,0,0,-
BRDA:122,0,1,-
BRDA:129,0,0,-
BRDA:129,0,1,-
BRDA:135,0,0,-
BRDA:135,0,1,-
BRDA:139,0,0,0
BRDA:139,0,1,0
BRDA:146,0,0,-
BRDA:146,0,1,-
BRDA:147,0,0,-
BRDA:147,0,1,-
BRDA:148,0,0,-
BRDA:148,0,1,-
BRDA:149,0,0,-
BRDA:149,0,1,-
BRDA:150,0,0,-
BRDA:150,0,1,-
BRDA:151,0,0,-
BRDA:151,0,1,-
BRDA:171,0,0,-
BRDA:171,0,1,-
BRDA:176,0,0,-
BRDA:176,0,1,-
BRDA:177,0,0,-
BRDA:177,0,1,-
BRDA:178,0,0,-
BRDA:178,0,1,-
BRDA:178,0,2,-
BRDA:178,0,3,-
BRDA:182,0,0,-
BRDA:182,0,1,-
BRDA:183,0,0,-
BRDA:183,0,1,-
BRDA:195,0,0,-
BRDA:195,0,1,-
BRDA:196,0,0,-
BRDA:196,0,1,-
BRDA:196,0,2,-
BRDA:196,0,3,-
BRDA:197,0,0,-
BRDA:197,0,1,-
BRDA:199,0,0,-
BRDA:199,0,1,-
BRDA:199,0,2,-
BRDA:199,0,3,-
BRDA:199,0,4,-
BRDA:199,0,5,-
BRDA:200,0,0,-
BRDA:200,0,1,-
BRDA:202,0,0,-
BRDA:202,0,1,-
BRDA:202,0,2,-
BRDA:202,0,3,-
BRDA:202,0,4,-
BRDA:202,0,5,-
BRDA:202,0,6,-
BRDA:202,0,7,-
BRDA:203,0,0,-
BRDA:203,0,1,-
BRDA:210,0,0,-
BRDA:210,0,1,-
BRDA:210,0,2,-
BRDA:210,0,3,-
BRDA:210,0,4,-
BRDA:210,0,5,-
BRDA:210,0,6,-
BRDA:210,0,7,-
BRDA:211,0,0,-
BRDA:211,0,1,-
BRDA:222,0,0,-
BRDA:222,0,1,-
BRDA:223,0,0,-
BRDA:223,0,1,-
BRDA:224,0,0,-
BRDA:224,0,1,-
BRDA:225,0,0,-
BRDA:225,0,1,-
BRF:144
BRH:0
DA:44,0
DA:46,0
DA:48,0
DA:50,0
DA:51,0
DA:52,0
DA:53,0
DA:54,0
DA:55,0
DA:60,0
DA:63,0
DA:64,0
DA:67,0
DA:68,0
DA:69,0
DA:70,0
DA:74,0
DA:77,0
DA:78,0
DA:79,0
DA:83,0
DA:84,0
DA:85,0
DA:86,0
DA:88,0
DA:89,0
DA:91,0
DA:92,0
DA:93,0
DA:94,0
DA:97,0
DA:98,0
DA:99,0
DA:100,0
DA:103,0
DA:104,0
DA:106,0
DA:107,0
DA:110,0
DA:111,0
DA:114,0
DA:115,0
DA:117,0
DA:118,0
DA:120,0
DA:121,0
DA:122,0
DA:123,0
DA:128,0
DA:129,0
DA:130,0
DA:131,0
DA:135,0
DA:136,0
DA:137,0
DA:138,0
DA:139,0
DA:140,0
DA:141,0
DA:144,0
DA:145,0
DA:146,0
DA:147,0
DA:148,0
DA:149,0
DA:150,0
DA:151,0
DA:155,0
DA:156,0
DA:158,0
DA:159,0
DA:162,0
DA:163,0
DA:164,0
DA:165,0
DA:166,0
DA:167,0
DA:168,0
DA:170,0
DA:171,0
DA:172,0
DA:176,0
DA:177,0
DA:178,0
DA:179,0
DA:182,0
DA:183,0
DA:187,0
DA:188,0
DA:190,0
DA:191,0
DA:192,0
DA:193,0
DA:195,0
DA:196,0
DA:197,0
DA:198,0
DA:199,0
DA:200,0
DA:202,0
DA:203,0
DA:205,0
DA:206,0
DA:210,0
DA:211,0
DA:214,0
DA:215,0
DA:217,0
DA:218,0
DA:221,0
DA:222,0
DA:223,0
DA:224,0
DA:225,0
DA:227,0
LF:115
LH:0
end_of_record
TN:
SF:/home/xucong/caicAD/01datainfra/Aurora/aurora-edge-runtime/src/data_collection/trigger/common/trigger_checker.cpp
FN:16,_ZN6aurora9collector14TriggerCheckerC2Ev
FN:19,_ZN6aurora9collector14TriggerCheckerD2Ev
FN:21,_ZN6aurora9collector14TriggerChecker5parseERKNSt7__cxx1112basic_stringIcSt11char_traitsIcESaIcEEE
FN:40,_ZN6aurora9collector14TriggerChecker12executeCheckERKSt13unordered_mapINSt7__cxx1112basic_stringIcSt11char_traitsIcESaIcEEESt7variantIJdibEESt4hashIS8_ESt8equal_toIS8_ESaISt4pairIKS8_SA_EEE
FN:75,_ZNK6aurora9collector14TriggerChecker9lastErrorB5cxx11Ev
FN:80,_ZNK6aurora9collector14TriggerChecker11getElementsEv
FN:84,_ZN6aurora9collector14TriggerChecker15extractElementsERKNSt7__cxx1112basic_stringIcSt11char_traitsIcESaIcEEE
FN:151,_ZN6aurora9collector14TriggerChecker15splitLogicalOpsERKNSt7__cxx1112basic_stringIcSt11char_traitsIcESaIcEEE
FN:195,_ZN6aurora9collector14TriggerChecker4trimERKNSt7__cxx1112basic_stringIcSt11char_traitsIcESaIcEEE
FNDA:0,_ZN6aurora9collector14TriggerChecker5parseERKNSt7__cxx1112basic_stringIcSt11char_traitsIcESaIcEEE
FNDA:0,_ZNK6aurora9collector14TriggerChecker9lastErrorB5cxx11Ev
FNDA:0,_ZN6aurora9collector14TriggerChecker15splitLogicalOpsERKNSt7__cxx1112basic_stringIcSt11char_traitsIcESaIcEEE
FNDA:0,_ZN6aurora9collector14TriggerCheckerC2Ev
FNDA:0,_ZN6aurora9collector14TriggerChecker15extractElementsERKNSt7__cxx1112basic_stringIcSt11char_traitsIcESaIcEEE
FNDA:0,_ZNK6aurora9collector14TriggerChecker11getElementsEv
FNDA:0,_ZN6aurora9collector14TriggerChecker12executeCheckERKSt13unordered_mapINSt7__cxx1112basic_stringIcSt11char_traitsIcESaIcEEESt7variantIJdibEESt4hashIS8_ESt8equal_toIS8_ESaISt4pairIKS8_SA_EEE
FNDA:0,_ZN6aurora9collector14TriggerCheckerD2Ev
FNDA:0,_ZN6aurora9collector14TriggerChecker4trimERKNSt7__cxx1112basic_stringIcSt11char_traitsIcESaIcEEE
FNF:9
FNH:0
BRDA:25,0,0,-
BRDA:25,0,1,-
BRDA:31,0,0,-
BRDA:31,0,1,-
BRDA:33,0,0,0
BRDA:33,0,1,0
BRDA:34,0,0,0
BRDA:34,0,1,0
BRDA:44,0,0,-
BRDA:44,0,1,-
BRDA:47,0,0,-
BRDA:47,0,1,-
BRDA:48,0,0,-
BRDA:48,0,1,-
BRDA:48,0,2,-
BRDA:48,0,3,-
BRDA:50,0,0,-
BRDA:50,0,1,-
BRDA:50,0,2,-
BRDA:50,0,3,-
BRDA:51,0,0,-
BRDA:51,0,1,-
BRDA:53,0,0,0
BRDA:53,0,1,0
BRDA:54,0,0,0
BRDA:54,0,1,0
BRDA:54,0,2,0
BRDA:54,0,3,0
BRDA:56,0,0,0
BRDA:56,0,1,0
BRDA:58,0,0,-
BRDA:58,0,1,-
BRDA:59,0,0,-
BRDA:59,0,1,-
BRDA:66,0,0,-
BRDA:66,0,1,-
BRDA:66,0,2,-
BRDA:66,0,3,-
BRDA:67,0,0,-
BRDA:67,0,1,-
BRDA:67,0,2,-
BRDA:67,0,3,-
BRDA:85,0,0,-
BRDA:85,0,1,-
BRDA:85,0,2,-
BRDA:85,0,3,-
BRDA:85,0,4,-
BRDA:85,0,5,-
BRDA:85,0,6,-
BRDA:85,0,7,-
BRDA:86,0,0,-
BRDA:86,0,1,-
BRDA:86,0,2,-
BRDA:86,0,3,-
BRDA:86,0,4,-
BRDA:86,0,5,-
BRDA:86,0,6,-
BRDA:86,0,7,-
BRDA:87,0,0,-
BRDA:87,0,1,-
BRDA:87,0,2,-
BRDA:87,0,3,-
BRDA:87,0,4,-
BRDA:87,0,5,-
BRDA:87,0,6,-
BRDA:87,0,7,-
BRDA:89,0,0,-
BRDA:89,0,1,-
BRDA:91,0,0,-
BRDA:91,0,1,-
BRDA:92,0,0,-
BRDA:92,0,1,-
BRDA:93,0,0,-
BRDA:93,0,1,-
BRDA:96,0,0,-
BRDA:96,0,1,-
BRDA:99,0,0,-
BRDA:99,0,1,-
BRDA:99,0,2,-
BRDA:99,0,3,-
BRDA:99,0,4,-
BRDA:99,0,5,-
BRDA:100,0,0,-
BRDA:100,0,1,-
BRDA:101,0,0,-
BRDA:101,0,1,-
BRDA:101,0,2,-
BRDA:101,0,3,-
BRDA:102,0,0,-
BRDA:102,0,1,-
BRDA:103,0,0,-
BRDA:103,0,1,-
BRDA:104,0,0,-
BRDA:104,0,1,-
BRDA:104,0,2,-
BRDA:104,0,3,-
BRDA:107,0,0,-
BRDA:107,0,1,-
BRDA:110,0,0,-
BRDA:110,0,1,-
BRDA:110,0,2,-
BRDA:110,0,3,-
BRDA:111,0,0,-
BRDA:111,0,1,-
BRDA:111,0,2,-
BRDA:111,0,3,-
BRDA:112,0,0,-
BRDA:112,0,1,-
BRDA:112,0,2,-
BRDA:112,0,3,-
BRDA:113,0,0,-
BRDA:113,0,1,-
BRDA:113,0,2,-
BRDA:113,0,3,-
BRDA:116,0,0,-
BRDA:116,0,1,-
BRDA:121,0,0,-
BRDA:121,0,1,-
BRDA:121,0,2,-
BRDA:121,0,3,-
BRDA:122,0,0,-
BRDA:122,0,1,-
BRDA:122,0,2,-
BRDA:122,0,3,-
BRDA:123,0,0,-
BRDA:123,0,1,-
BRDA:123,0,2,-
BRDA:123,0,3,-
BRDA:125,0,0,-
BRDA:125,0,1,-
BRDA:125,0,2,-
BRDA:125,0,3,-
BRDA:125,0,4,-
BRDA:125,0,5,-
BRDA:126,0,0,0
BRDA:126,0,1,0
BRDA:126,0,2,0
BRDA:127,0,0,0
BRDA:127,0,1,0
BRDA:128,0,0,0
BRDA:128,0,1,0
BRDA:130,0,0,0
BRDA:130,0,1,0
BRDA:131,0,0,0
BRDA:131,0,1,0
BRDA:133,0,0,-
BRDA:133,0,1,-
BRDA:138,0,0,-
BRDA:138,0,1,-
BRDA:138,0,2,-
BRDA:138,0,3,-
BRDA:139,0,0,-
BRDA:139,0,1,-
BRDA:140,0,0,-
BRDA:140,0,1,-
BRDA:142,0,0,-
BRDA:142,0,1,-
BRDA:146,0,0,-
BRDA:146,0,1,-
BRDA:147,0,0,-
BRDA:147,0,1,-
BRDA:147,0,2,-
BRDA:147,0,3,-
BRDA:147,0,4,-
BRDA:147,0,5,-
BRDA:157,0,0,-
BRDA:157,0,1,-
BRDA:158,0,0,-
BRDA:158,0,1,-
BRDA:162,0,0,-
BRDA:162,0,1,-
BRDA:165,0,0,-
BRDA:165,0,1,-
BRDA:167,0,0,-
BRDA:167,0,1,-
BRDA:171,0,0,-
BRDA:171,0,1,-
BRDA:172,0,0,-
BRDA:172,0,1,-
BRDA:172,0,2,-
BRDA:172,0,3,-
BRDA:172,0,4,-
BRDA:172,0,5,-
BRDA:172,0,6,-
BRDA:172,0,7,-
BRDA:173,0,0,-
BRDA:173,0,1,-
BRDA:173,0,2,-
BRDA:173,0,3,-
BRDA:174,0,0,-
BRDA:174,0,1,-
BRDA:178,0,0,-
BRDA:178,0,1,-
BRDA:178,0,2,-
BRDA:178,0,3,-
BRDA:178,0,4,-
BRDA:178,0,5,-
BRDA:178,0,6,-
BRDA:178,0,7,-
BRDA:179,0,0,-
BRDA:179,0,1,-
BRDA:179,0,2,-
BRDA:179,0,3,-
BRDA:180,0,0,-
BRDA:180,0,1,-
BRDA:187,0,0,-
BRDA:187,0,1,-
BRDA:188,0,0,-
BRDA:188,0,1,-
BRDA:188,0,2,-
BRDA:188,0,3,-
BRDA:196,0,0,-
BRDA:196,0,1,-
BRDA:197,0,0,-
BRDA:197,0,1,-
BRDA:198,0,0,-
BRDA:198,0,1,-
BRF:217
BRH:0
DA:16,0
DA:17,0
DA:19,0
DA:21,0
DA:22,0
DA:23,0
DA:25,0
DA:26,0
DA:27,0
DA:31,0
DA:32,0
DA:33,0
DA:34,0
DA:35,0
DA:36,0
DA:37,0
DA:40,0
DA:41,0
DA:44,0
DA:45,0
DA:47,0
DA:48,0
DA:50,0
DA:51,0
DA:53,0
DA:54,0
DA:55,0
DA:56,0
DA:58,0
DA:59,0
DA:60,0
DA:66,0
DA:67,0
DA:68,0
DA:71,0
DA:75,0
DA:76,0
DA:80,0
DA:81,0
DA:84,0
DA:85,0
DA:86,0
DA:87,0
DA:89,0
DA:91,0
DA:92,0
DA:93,0
DA:95,0
DA:96,0
DA:99,0
DA:100,0
DA:101,0
DA:102,0
DA:103,0
DA:104,0
DA:107,0
DA:110,0
DA:111,0
DA:112,0
DA:113,0
DA:114,0
DA:115,0
DA:116,0
DA:117,0
DA:118,0
DA:121,0
DA:122,0
DA:123,0
DA:125,0
DA:126,0
DA:127,0
DA:128,0
DA:129,0
DA:130,0
DA:131,0
DA:132,0
DA:133,0
DA:134,0
DA:135,0
DA:138,0
DA:139,0
DA:140,0
DA:141,0
DA:142,0
DA:143,0
DA:146,0
DA:147,0
DA:148,0
DA:151,0
DA:152,0
DA:153,0
DA:154,0
DA:155,0
DA:157,0
DA:158,0
DA:159,0
DA:160,0
DA:162,0
DA:163,0
DA:165,0
DA:166,0
DA:167,0
DA:168,0
DA:171,0
DA:172,0
DA:173,0
DA:174,0
DA:175,0
DA:176,0
DA:178,0
DA:179,0
DA:180,0
DA:181,0
DA:182,0
DA:187,0
DA:188,0
DA:191,0
DA:192,0
DA:195,0
DA:196,0
DA:197,0
DA:198,0
LF:122
LH:0
end_of_record
TN:
SF:/home/xucong/caicAD/01datainfra/Aurora/aurora-edge-runtime/src/data_collection/trigger/gait_trigger.cpp
FN:20,_ZN6aurora9collector11GaitTriggerC2Ev
FN:50,_ZN6aurora9collector11GaitTrigger16setEventCallbackESt8functionIFvRKNS0_13GaitEventTypeERK5PointEE
FN:55,_ZN6aurora9collector11GaitTrigger12odomCallbackESt10shared_ptrIN8nav_msgs3msg9Odometry_ISaIvEEEE
FN:81,_ZN6aurora9collector11GaitTrigger13jointCallbackESt10shared_ptrIN11sensor_msgs3msg11JointState_ISaIvEEEE
FN:109,_ZN6aurora9collector11GaitTrigger16analyzeGaitStateEv
FN:136,_ZNK6aurora9collector11GaitTrigger15isInStablePhaseEv
FN:144,_ZN6aurora9collector11GaitTrigger16detectFootstrikeEv
FN:193,_ZN6aurora9collector11GaitTrigger23shouldTriggerCollectionERK5PointS4_RKNSt6chrono10time_pointINS5_3_V212steady_clockENS5_8durationIlSt5ratioILl1ELl1000000000EEEEEE
FN:254,_ZNK6aurora9collector11GaitTrigger22getLastStableFootprintEv
FN:269,_ZNK6aurora9collector11GaitTrigger13getFootprintsEv
FN:286,_ZN6aurora9collector11GaitTrigger18setMinStepDistanceEd
FN:292,_ZN6aurora9collector11GaitTrigger24setMinCollectionIntervalEd
FN:298,_ZN6aurora9collector11GaitTrigger26triggerRecordingViaServiceERKNS0_14TriggerContextE
FN:321,_ZZN6aurora9collector11GaitTrigger26triggerRecordingViaServiceERKNS0_14TriggerContextEENKUlvE_clEv
FNDA:0,_ZNK6aurora9collector11GaitTrigger15isInStablePhaseEv
FNDA:0,_ZZN6aurora9collector11GaitTrigger26triggerRecordingViaServiceERKNS0_14TriggerContextEENKUlvE_clEv
FNDA:0,_ZNK6aurora9collector11GaitTrigger13getFootprintsEv
FNDA:0,_ZN6aurora9collector11GaitTrigger26triggerRecordingViaServiceERKNS0_14TriggerContextE
FNDA:0,_ZN6aurora9collector11GaitTrigger16setEventCallbackESt8functionIFvRKNS0_13GaitEventTypeERK5PointEE
FNDA:0,_ZN6aurora9collector11GaitTrigger16analyzeGaitStateEv
FNDA:0,_ZN6aurora9collector11GaitTrigger12odomCallbackESt10shared_ptrIN8nav_msgs3msg9Odometry_ISaIvEEEE
FNDA:0,_ZN6aurora9collector11GaitTrigger18setMinStepDistanceEd
FNDA:0,_ZN6aurora9collector11GaitTrigger24setMinCollectionIntervalEd
FNDA:0,_ZNK6aurora9collector11GaitTrigger22getLastStableFootprintEv
FNDA:0,_ZN6aurora9collector11GaitTrigger23shouldTriggerCollectionERK5PointS4_RKNSt6chrono10time_pointINS5_3_V212steady_clockENS5_8durationIlSt5ratioILl1ELl1000000000EEEEEE
FNDA:0,_ZN6aurora9collector11GaitTriggerC2Ev
FNDA:0,_ZN6aurora9collector11GaitTrigger16detectFootstrikeEv
FNDA:0,_ZN6aurora9collector11GaitTrigger13jointCallbackESt10shared_ptrIN11sensor_msgs3msg11JointState_ISaIvEEEE
FNF:14
FNH:0
BRDA:23,0,0,-
BRDA:23,0,1,-
BRDA:23,0,2,-
BRDA:23,0,3,-
BRDA:26,0,0,-
BRDA:26,0,1,-
BRDA:26,0,2,-
BRDA:26,0,3,-
BRDA:26,0,4,-
BRDA:26,0,5,-
BRDA:26,0,6,-
BRDA:26,0,7,-
BRDA:27,0,0,-
BRDA:27,0,1,-
BRDA:28,0,0,-
BRDA:28,0,1,-
BRDA:30,0,0,-
BRDA:30,0,1,-
BRDA:30,0,2,-
BRDA:30,0,3,-
BRDA:30,0,4,-
BRDA:30,0,5,-
BRDA:30,0,6,-
BRDA:30,0,7,-
BRDA:31,0,0,-
BRDA:31,0,1,-
BRDA:32,0,0,-
BRDA:32,0,1,-
BRDA:35,0,0,-
BRDA:35,0,1,-
BRDA:35,0,2,-
BRDA:35,0,3,-
BRDA:37,0,0,-
BRDA:37,0,1,-
BRDA:37,0,2,-
BRDA:37,0,3,-
BRDA:38,0,0,-
BRDA:38,0,1,-
BRDA:38,0,2,-
BRDA:38,0,3,-
BRDA:38,0,4,-
BRDA:38,0,5,-
BRDA:38,0,6,-
BRDA:38,0,7,-
BRDA:38,0,8,-
BRDA:38,0,9,-
BRDA:38,0,10,-
BRDA:38,0,11,-
BRDA:38,0,12,-
BRDA:38,0,13,-
BRDA:38,0,14,-
BRDA:38,0,15,-
BRDA:38,0,16,-
BRDA:38,0,17,-
BRDA:38,0,18,-
BRDA:38,0,19,-
BRDA:38,0,20,-
BRDA:38,0,21,-
BRDA:38,0,22,-
BRDA:38,0,23,-
BRDA:38,0,24,-
BRDA:38,0,25,-
BRDA:38,0,26,-
BRDA:38,0,27,-
BRDA:42,0,0,-
BRDA:42,0,1,-
BRDA:42,0,2,-
BRDA:42,0,3,-
BRDA:42,0,4,-
BRDA:42,0,5,-
BRDA:42,0,6,-
BRDA:42,0,7,-
BRDA:42,0,8,-
BRDA:42,0,9,-
BRDA:42,0,10,-
BRDA:42,0,11,-
BRDA:42,0,12,-
BRDA:42,0,13,-
BRDA:42,0,14,-
BRDA:42,0,15,-
BRDA:42,0,16,-
BRDA:42,0,17,-
BRDA:42,0,18,-
BRDA:42,0,19,-
BRDA:42,0,20,-
BRDA:42,0,21,-
BRDA:42,0,22,-
BRDA:42,0,23,-
BRDA:42,0,24,-
BRDA:42,0,25,-
BRDA:42,0,26,-
BRDA:42,0,27,-
BRDA:43,0,0,-
BRDA:43,0,1,-
BRDA:43,0,2,-
BRDA:43,0,3,-
BRDA:43,0,4,-
BRDA:43,0,5,-
BRDA:43,0,6,-
BRDA:43,0,7,-
BRDA:43,0,8,-
BRDA:43,0,9,-
BRDA:43,0,10,-
BRDA:43,0,11,-
BRDA:43,0,12,-
BRDA:43,0,13,-
BRDA:43,0,14,-
BRDA:43,0,15,-
BRDA:43,0,16,-
BRDA:43,0,17,-
BRDA:43,0,18,-
BRDA:43,0,19,-
BRDA:43,0,20,-
BRDA:43,0,21,-
BRDA:43,0,22,-
BRDA:43,0,23,-
BRDA:43,0,24,-
BRDA:43,0,25,-
BRDA:43,0,26,-
BRDA:43,0,27,-
BRDA:44,0,0,-
BRDA:44,0,1,-
BRDA:44,0,2,-
BRDA:44,0,3,-
BRDA:44,0,4,-
BRDA:44,0,5,-
BRDA:44,0,6,-
BRDA:44,0,7,-
BRDA:44,0,8,-
BRDA:44,0,9,-
BRDA:44,0,10,-
BRDA:44,0,11,-
BRDA:44,0,12,-
BRDA:44,0,13,-
BRDA:44,0,14,-
BRDA:44,0,15,-
BRDA:44,0,16,-
BRDA:44,0,17,-
BRDA:44,0,18,-
BRDA:44,0,19,-
BRDA:44,0,20,-
BRDA:44,0,21,-
BRDA:44,0,22,-
BRDA:44,0,23,-
BRDA:44,0,24,-
BRDA:44,0,25,-
BRDA:44,0,26,-
BRDA:44,0,27,-
BRDA:45,0,0,-
BRDA:45,0,1,-
BRDA:45,0,2,-
BRDA:45,0,3,-
BRDA:45,0,4,-
BRDA:45,0,5,-
BRDA:45,0,6,-
BRDA:45,0,7,-
BRDA:45,0,8,-
BRDA:45,0,9,-
BRDA:45,0,10,-
BRDA:45,0,11,-
BRDA:45,0,12,-
BRDA:45,0,13,-
BRDA:45,0,14,-
BRDA:45,0,15,-
BRDA:45,0,16,-
BRDA:45,0,17,-
BRDA:45,0,18,-
BRDA:45,0,19,-
BRDA:45,0,20,-
BRDA:45,0,21,-
BRDA:45,0,22,-
BRDA:45,0,23,-
BRDA:45,0,24,-
BRDA:45,0,25,-
BRDA:45,0,26,-
BRDA:45,0,27,-
BRDA:46,0,0,-
BRDA:46,0,1,-
BRDA:46,0,2,-
BRDA:46,0,3,-
BRDA:46,0,4,-
BRDA:46,0,5,-
BRDA:46,0,6,-
BRDA:46,0,7,-
BRDA:46,0,8,-
BRDA:46,0,9,-
BRDA:46,0,10,-
BRDA:46,0,11,-
BRDA:46,0,12,-
BRDA:46,0,13,-
BRDA:46,0,14,-
BRDA:46,0,15,-
BRDA:46,0,16,-
BRDA:46,0,17,-
BRDA:46,0,18,-
BRDA:46,0,19,-
BRDA:46,0,20,-
BRDA:46,0,21,-
BRDA:46,0,22,-
BRDA:46,0,23,-
BRDA:46,0,24,-
BRDA:46,0,25,-
BRDA:46,0,26,-
BRDA:46,0,27,-
BRDA:47,0,0,-
BRDA:47,0,1,-
BRDA:47,0,2,-
BRDA:47,0,3,-
BRDA:47,0,4,-
BRDA:47,0,5,-
BRDA:47,0,6,-
BRDA:47,0,7,-
BRDA:47,0,8,-
BRDA:47,0,9,-
BRDA:47,0,10,-
BRDA:47,0,11,-
BRDA:47,0,12,-
BRDA:47,0,13,-
BRDA:47,0,14,-
BRDA:47,0,15,-
BRDA:47,0,16,-
BRDA:47,0,17,-
BRDA:47,0,18,-
BRDA:47,0,19,-
BRDA:47,0,20,-
BRDA:47,0,21,-
BRDA:47,0,22,-
BRDA:47,0,23,-
BRDA:47,0,24,-
BRDA:47,0,25,-
BRDA:47,0,26,-
BRDA:47,0,27,-
BRDA:51,0,0,-
BRDA:51,0,1,-
BRDA:52,0,0,-
BRDA:52,0,1,-
BRDA:56,0,0,-
BRDA:56,0,1,-
BRDA:75,0,0,-
BRDA:75,0,1,-
BRDA:78,0,0,-
BRDA:78,0,1,-
BRDA:85,0,0,-
BRDA:85,0,1,-
BRDA:89,0,0,-
BRDA:89,0,1,-
BRDA:106,0,0,-
BRDA:106,0,1,-
BRDA:115,0,0,-
BRDA:115,0,1,-
BRDA:122,0,0,-
BRDA:122,0,1,-
BRDA:123,0,0,-
BRDA:123,0,1,-
BRDA:131,0,0,-
BRDA:131,0,1,-
BRDA:132,0,0,-
BRDA:132,0,1,-
BRDA:154,0,0,-
BRDA:154,0,1,-
BRDA:154,0,2,-
BRDA:154,0,3,-
BRDA:156,0,0,-
BRDA:156,0,1,-
BRDA:161,0,0,-
BRDA:161,0,1,-
BRDA:162,0,0,-
BRDA:162,0,1,-
BRDA:167,0,0,-
BRDA:167,0,1,-
BRDA:167,0,2,-
BRDA:167,0,3,-
BRDA:168,0,0,-
BRDA:168,0,1,-
BRDA:173,0,0,-
BRDA:173,0,1,-
BRDA:174,0,0,-
BRDA:174,0,1,-
BRDA:183,0,0,-
BRDA:183,0,1,-
BRDA:183,0,2,-
BRDA:183,0,3,-
BRDA:186,0,0,-
BRDA:186,0,1,-
BRDA:187,0,0,-
BRDA:187,0,1,-
BRDA:198,0,0,-
BRDA:198,0,1,-
BRDA:201,0,0,-
BRDA:201,0,1,-
BRDA:207,0,0,-
BRDA:207,0,1,-
BRDA:207,0,2,-
BRDA:207,0,3,-
BRDA:208,0,0,-
BRDA:208,0,1,-
BRDA:217,0,0,-
BRDA:217,0,1,-
BRDA:230,0,0,-
BRDA:230,0,1,-
BRDA:231,0,0,-
BRDA:231,0,1,-
BRDA:234,0,0,-
BRDA:234,0,1,-
BRDA:238,0,0,-
BRDA:238,0,1,-
BRDA:242,0,0,-
BRDA:242,0,1,-
BRDA:248,0,0,-
BRDA:248,0,1,-
BRDA:248,0,2,-
BRDA:248,0,3,-
BRDA:248,0,4,-
BRDA:248,0,5,-
BRDA:248,0,6,-
BRDA:248,0,7,-
BRDA:248,0,8,-
BRDA:248,0,9,-
BRDA:248,0,10,-
BRDA:248,0,11,-
BRDA:248,0,12,-
BRDA:248,0,13,-
BRDA:248,0,14,-
BRDA:248,0,15,-
BRDA:248,0,16,-
BRDA:248,0,17,-
BRDA:248,0,18,-
BRDA:248,0,19,-
BRDA:248,0,20,-
BRDA:248,0,21,-
BRDA:248,0,22,-
BRDA:248,0,23,-
BRDA:248,0,24,-
BRDA:248,0,25,-
BRDA:248,0,26,-
BRDA:248,0,27,-
BRDA:255,0,0,-
BRDA:255,0,1,-
BRDA:262,0,0,-
BRDA:262,0,1,-
BRDA:270,0,0,-
BRDA:270,0,1,-
BRDA:275,0,0,-
BRDA:275,0,1,-
BRDA:276,0,0,-
BRDA:276,0,1,-
BRDA:279,0,0,-
BRDA:279,0,1,-
BRDA:283,0,0,-
BRDA:283,0,1,-
BRDA:287,0,0,-
BRDA:287,0,1,-
BRDA:289,0,0,-
BRDA:289,0,1,-
BRDA:289,0,2,-
BRDA:289,0,3,-
BRDA:289,0,4,-
BRDA:289,0,5,-
BRDA:289,0,6,-
BRDA:289,0,7,-
BRDA:289,0,8,-
BRDA:289,0,9,-
BRDA:289,0,10,-
BRDA:289,0,11,-
BRDA:289,0,12,-
BRDA:289,0,13,-
BRDA:289,0,14,-
BRDA:289,0,15,-
BRDA:289,0,16,-
BRDA:289,0,17,-
BRDA:289,0,18,-
BRDA:289,0,19,-
BRDA:289,0,20,-
BRDA:289,0,21,-
BRDA:289,0,22,-
BRDA:289,0,23,-
BRDA:289,0,24,-
BRDA:289,0,25,-
BRDA:289,0,26,-
BRDA:289,0,27,-
BRDA:293,0,0,-
BRDA:293,0,1,-
BRDA:295,0,0,-
BRDA:295,0,1,-
BRDA:295,0,2,-
BRDA:295,0,3,-
BRDA:295,0,4,-
BRDA:295,0,5,-
BRDA:295,0,6,-
BRDA:295,0,7,-
BRDA:295,0,8,-
BRDA:295,0,9,-
BRDA:295,0,10,-
BRDA:295,0,11,-
BRDA:295,0,12,-
BRDA:295,0,13,-
BRDA:295,0,14,-
BRDA:295,0,15,-
BRDA:295,0,16,-
BRDA:295,0,17,-
BRDA:295,0,18,-
BRDA:295,0,19,-
BRDA:295,0,20,-
BRDA:295,0,21,-
BRDA:295,0,22,-
BRDA:295,0,23,-
BRDA:295,0,24,-
BRDA:295,0,25,-
BRDA:295,0,26,-
BRDA:295,0,27,-
BRDA:299,0,0,-
BRDA:299,0,1,-
BRDA:299,0,2,-
BRDA:299,0,3,-
BRDA:300,0,0,-
BRDA:300,0,1,-
BRDA:300,0,2,-
BRDA:300,0,3,-
BRDA:300,0,4,-
BRDA:300,0,5,-
BRDA:300,0,6,-
BRDA:300,0,7,-
BRDA:300,0,8,-
BRDA:300,0,9,-
BRDA:300,0,10,-
BRDA:300,0,11,-
BRDA:300,0,12,-
BRDA:300,0,13,-
BRDA:300,0,14,-
BRDA:300,0,15,-
BRDA:300,0,16,-
BRDA:300,0,17,-
BRDA:300,0,18,-
BRDA:300,0,19,-
BRDA:300,0,20,-
BRDA:300,0,21,-
BRDA:300,0,22,-
BRDA:300,0,23,-
BRDA:300,0,24,-
BRDA:300,0,25,-
BRDA:300,0,26,-
BRDA:300,0,27,-
BRDA:306,0,0,-
BRDA:306,0,1,-
BRDA:307,0,0,-
BRDA:307,0,1,-
BRDA:308,0,0,-
BRDA:308,0,1,-
BRDA:310,0,0,-
BRDA:310,0,1,-
BRDA:317,0,0,-
BRDA:317,0,1,-
BRDA:318,0,0,-
BRDA:318,0,1,-
BRDA:321,0,0,-
BRDA:321,0,1,-
BRDA:323,0,0,-
BRDA:323,0,1,-
BRDA:324,0,0,-
BRDA:324,0,1,-
BRDA:325,0,0,-
BRDA:325,0,1,-
BRDA:325,0,2,-
BRDA:325,0,3,-
BRDA:325,0,4,-
BRDA:325,0,5,-
BRDA:325,0,6,-
BRDA:325,0,7,-
BRDA:325,0,8,-
BRDA:325,0,9,-
BRDA:325,0,10,-
BRDA:325,0,11,-
BRDA:325,0,12,-
BRDA:325,0,13,-
BRDA:325,0,14,-
BRDA:325,0,15,-
BRDA:325,0,16,-
BRDA:325,0,17,-
BRDA:325,0,18,-
BRDA:325,0,19,-
BRDA:325,0,20,-
BRDA:325,0,21,-
BRDA:325,0,22,-
BRDA:325,0,23,-
BRDA:325,0,24,-
BRDA:325,0,25,-
BRDA:325,0,26,-
BRDA:325,0,27,-
BRDA:329,0,0,-
BRDA:329,0,1,-
BRDA:329,0,2,-
BRDA:329,0,3,-
BRDA:329,0,4,-
BRDA:329,0,5,-
BRDA:329,0,6,-
BRDA:329,0,7,-
BRDA:329,0,8,-
BRDA:329,0,9,-
BRDA:329,0,10,-
BRDA:329,0,11,-
BRDA:329,0,12,-
BRDA:329,0,13,-
BRDA:329,0,14,-
BRDA:329,0,15,-
BRDA:329,0,16,-
BRDA:329,0,17,-
BRDA:329,0,18,-
BRDA:329,0,19,-
BRDA:329,0,20,-
BRDA:329,0,21,-
BRDA:329,0,22,-
BRDA:329,0,23,-
BRDA:329,0,24,-
BRDA:329,0,25,-
BRDA:329,0,26,-
BRDA:329,0,27,-
BRDA:334,0,0,-
BRDA:334,0,1,-
BRDA:335,0,0,0
BRDA:335,0,1,0
BRDA:335,0,2,0
BRDA:335,0,3,0
BRDA:335,0,4,0
BRDA:335,0,5,0
BRDA:335,0,6,0
BRDA:335,0,7,0
BRDA:335,0,8,0
BRDA:335,0,9,0
BRDA:335,0,10,0
BRDA:335,0,11,0
BRDA:335,0,12,0
BRDA:335,0,13,0
BRDA:335,0,14,0
BRDA:335,0,15,0
BRDA:335,0,16,0
BRDA:335,0,17,0
BRDA:335,0,18,0
BRDA:335,0,19,0
BRDA:335,0,20,0
BRDA:335,0,21,0
BRDA:335,0,22,0
BRDA:335,0,23,0
BRDA:335,0,24,0
BRDA:335,0,25,0
BRDA:335,0,26,0
BRDA:335,0,27,0
BRDA:338,0,0,-
BRDA:338,0,1,-
BRF:548
BRH:0
DA:20,0
DA:22,0
DA:23,0
DA:26,0
DA:27,0
DA:28,0
DA:30,0
DA:31,0
DA:32,0
DA:35,0
DA:37,0
DA:38,0
DA:42,0
DA:43,0
DA:44,0
DA:45,0
DA:46,0
DA:47,0
DA:48,0
DA:50,0
DA:51,0
DA:52,0
DA:53,0
DA:55,0
DA:56,0
DA:59,0
DA:60,0
DA:63,0
DA:64,0
DA:65,0
DA:66,0
DA:69,0
DA:70,0
DA:72,0
DA:75,0
DA:78,0
DA:79,0
DA:81,0
DA:85,0
DA:86,0
DA:89,0
DA:93,0
DA:94,0
DA:98,0
DA:99,0
DA:102,0
DA:103,0
DA:106,0
DA:107,0
DA:109,0
DA:113,0
DA:115,0
DA:117,0
DA:118,0
DA:120,0
DA:121,0
DA:122,0
DA:123,0
DA:126,0
DA:127,0
DA:129,0
DA:130,0
DA:131,0
DA:132,0
DA:134,0
DA:136,0
DA:141,0
DA:144,0
DA:150,0
DA:151,0
DA:154,0
DA:156,0
DA:159,0
DA:161,0
DA:162,0
DA:167,0
DA:168,0
DA:171,0
DA:173,0
DA:174,0
DA:178,0
DA:179,0
DA:183,0
DA:184,0
DA:186,0
DA:187,0
DA:190,0
DA:191,0
DA:193,0
DA:198,0
DA:201,0
DA:202,0
DA:206,0
DA:207,0
DA:208,0
DA:209,0
DA:213,0
DA:214,0
DA:215,0
DA:217,0
DA:218,0
DA:220,0
DA:224,0
DA:225,0
DA:228,0
DA:229,0
DA:230,0
DA:231,0
DA:234,0
DA:235,0
DA:238,0
DA:239,0
DA:240,0
DA:241,0
DA:242,0
DA:243,0
DA:248,0
DA:251,0
DA:252,0
DA:254,0
DA:255,0
DA:260,0
DA:261,0
DA:262,0
DA:263,0
DA:264,0
DA:266,0
DA:267,0
DA:269,0
DA:270,0
DA:273,0
DA:274,0
DA:275,0
DA:276,0
DA:279,0
DA:280,0
DA:283,0
DA:284,0
DA:286,0
DA:287,0
DA:288,0
DA:289,0
DA:290,0
DA:292,0
DA:293,0
DA:294,0
DA:295,0
DA:296,0
DA:298,0
DA:299,0
DA:300,0
DA:302,0
DA:306,0
DA:307,0
DA:308,0
DA:309,0
DA:310,0
DA:311,0
DA:312,0
DA:313,0
DA:317,0
DA:318,0
DA:321,0
DA:323,0
DA:324,0
DA:325,0
DA:329,0
DA:334,0
DA:335,0
DA:337,0
DA:338,0
DA:339,0
LF:172
LH:0
end_of_record
TN:
SF:/home/xucong/caicAD/01datainfra/Aurora/aurora-edge-runtime/src/data_collection/trigger/gait_trigger.h
FN:50,_ZN6aurora9collector9FootprintC2Ev
FN:53,_ZN6aurora9collector9FootprintC2Eddbdb
FN:72,_ZN6aurora9collector11GaitTriggerD0Ev
FN:72,_ZN6aurora9collector11GaitTriggerD2Ev
FN:137,_ZN6aurora9collector11GaitTrigger9GaitStateC2Ev
FNDA:0,_ZN6aurora9collector11GaitTrigger9GaitStateC2Ev
FNDA:0,_ZN6aurora9collector11GaitTriggerD2Ev
FNDA:0,_ZN6aurora9collector9FootprintC2Ev
FNDA:0,_ZN6aurora9collector9FootprintC2Eddbdb
FNDA:0,_ZN6aurora9collector11GaitTriggerD0Ev
FNF:5
FNH:0
BRDA:55,0,0,-
BRDA:55,0,1,-
BRF:2
BRH:0
DA:50,0
DA:51,0
DA:53,0
DA:54,0
DA:55,0
DA:56,0
DA:57,0
DA:72,0
DA:137,0
DA:138,0
LF:10
LH:0
end_of_record
TN:
SF:/home/xucong/caicAD/01datainfra/Aurora/aurora-edge-runtime/src/data_collection/trigger/rule_trigger.cpp
FN:14,_ZN6aurora9collector11RuleTriggerC2Ev
FN:25,_ZN6aurora9collector11RuleTrigger4procEv
FN:56,_ZN6aurora9collector11RuleTrigger14checkConditionEv
FN:83,_ZN6aurora9collector11RuleTrigger22registerVariableGetterERKNSt7__cxx1112basic_stringIcSt11char_traitsIcESaIcEEESt8functionIFSt7variantIJdibEEvEE
FN:88,_ZN6aurora9collector11RuleTrigger17OnMessageReceivedERKNSt7__cxx1112basic_stringIcSt11char_traitsIcESaIcEEERKN6rclcpp17SerializedMessageE
FN:93,_ZN6aurora9collector11RuleTrigger26triggerRecordingViaServiceERKNS0_14TriggerContextE
FN:113,_ZZN6aurora9collector11RuleTrigger26triggerRecordingViaServiceERKNS0_14TriggerContextEENKUlvE_clEv
FNDA:0,_ZN6aurora9collector11RuleTrigger26triggerRecordingViaServiceERKNS0_14TriggerContextE
FNDA:0,_ZN6aurora9collector11RuleTrigger4procEv
FNDA:0,_ZN6aurora9collector11RuleTrigger22registerVariableGetterERKNSt7__cxx1112basic_stringIcSt11char_traitsIcESaIcEEESt8functionIFSt7variantIJdibEEvEE
FNDA:0,_ZN6aurora9collector11RuleTrigger14checkConditionEv
FNDA:0,_ZN6aurora9collector11RuleTriggerC2Ev
FNDA:0,_ZN6aurora9collector11RuleTrigger17OnMessageReceivedERKNSt7__cxx1112basic_stringIcSt11char_traitsIcESaIcEEERKN6rclcpp17SerializedMessageE
FNDA:0,_ZZN6aurora9collector11RuleTrigger26triggerRecordingViaServiceERKNS0_14TriggerContextEENKUlvE_clEv
FNF:7
FNH:0
BRDA:14,0,0,-
BRDA:14,0,1,-
BRDA:14,0,2,-
BRDA:14,0,3,-
BRDA:14,0,4,-
BRDA:14,0,5,-
BRDA:14,0,6,-
BRDA:14,0,7,-
BRDA:14,0,8,-
BRDA:14,0,9,-
BRDA:16,0,0,-
BRDA:16,0,1,-
BRDA:16,0,2,-
BRDA:16,0,3,-
BRDA:19,0,0,-
BRDA:19,0,1,-
BRDA:19,0,2,-
BRDA:19,0,3,-
BRDA:20,0,0,-
BRDA:20,0,1,-
BRDA:20,0,2,-
BRDA:20,0,3,-
BRDA:20,0,4,-
BRDA:20,0,5,-
BRDA:20,0,6,-
BRDA:20,0,7,-
BRDA:20,0,8,-
BRDA:20,0,9,-
BRDA:20,0,10,-
BRDA:20,0,11,-
BRDA:20,0,12,-
BRDA:20,0,13,-
BRDA:20,0,14,-
BRDA:20,0,15,-
BRDA:20,0,16,-
BRDA:20,0,17,-
BRDA:20,0,18,-
BRDA:20,0,19,-
BRDA:20,0,20,-
BRDA:20,0,21,-
BRDA:20,0,22,-
BRDA:20,0,23,-
BRDA:20,0,24,-
BRDA:20,0,25,-
BRDA:20,0,26,-
BRDA:20,0,27,-
BRDA:26,0,0,-
BRDA:26,0,1,-
BRDA:27,0,0,-
BRDA:27,0,1,-
BRDA:27,0,2,-
BRDA:27,0,3,-
BRDA:31,0,0,-
BRDA:31,0,1,-
BRDA:32,0,0,-
BRDA:32,0,1,-
BRDA:34,0,0,-
BRDA:34,0,1,-
BRDA:36,0,0,-
BRDA:36,0,1,-
BRDA:36,0,2,-
BRDA:36,0,3,-
BRDA:43,0,0,-
BRDA:43,0,1,-
BRDA:44,0,0,-
BRDA:44,0,1,-
BRDA:45,0,0,-
BRDA:45,0,1,-
BRDA:51,0,0,-
BRDA:51,0,1,-
BRDA:58,0,0,-
BRDA:58,0,1,-
BRDA:59,0,0,-
BRDA:59,0,1,-
BRDA:66,0,0,-
BRDA:66,0,1,-
BRDA:68,0,0,-
BRDA:68,0,1,-
BRDA:68,0,2,-
BRDA:68,0,3,-
BRDA:69,0,0,-
BRDA:69,0,1,-
BRDA:69,0,2,-
BRDA:69,0,3,-
BRDA:70,0,0,0
BRDA:70,0,1,0
BRDA:71,0,0,0
BRDA:71,0,1,0
BRDA:71,0,2,0
BRDA:71,0,3,0
BRDA:94,0,0,-
BRDA:94,0,1,-
BRDA:94,0,2,-
BRDA:94,0,3,-
BRDA:95,0,0,-
BRDA:95,0,1,-
BRDA:95,0,2,-
BRDA:95,0,3,-
BRDA:99,0,0,-
BRDA:99,0,1,-
BRDA:100,0,0,-
BRDA:100,0,1,-
BRDA:100,0,2,-
BRDA:100,0,3,-
BRDA:100,0,4,-
BRDA:100,0,5,-
BRDA:100,0,6,-
BRDA:100,0,7,-
BRDA:100,0,8,-
BRDA:100,0,9,-
BRDA:100,0,10,-
BRDA:100,0,11,-
BRDA:101,0,0,-
BRDA:101,0,1,-
BRDA:103,0,0,-
BRDA:103,0,1,-
BRDA:110,0,0,-
BRDA:110,0,1,-
BRDA:111,0,0,-
BRDA:111,0,1,-
BRDA:113,0,0,-
BRDA:113,0,1,-
BRDA:115,0,0,-
BRDA:115,0,1,-
BRDA:116,0,0,-
BRDA:116,0,1,-
BRDA:117,0,0,-
BRDA:117,0,1,-
BRDA:117,0,2,-
BRDA:117,0,3,-
BRDA:119,0,0,-
BRDA:119,0,1,-
BRDA:119,0,2,-
BRDA:119,0,3,-
BRDA:122,0,0,-
BRDA:122,0,1,-
BRDA:123,0,0,0
BRDA:123,0,1,0
BRDA:123,0,2,0
BRDA:123,0,3,0
BRDA:125,0,0,-
BRDA:125,0,1,-
BRF:142
BRH:0
DA:14,0
DA:16,0
DA:19,0
DA:20,0
DA:23,0
DA:25,0
DA:26,0
DA:27,0
DA:28,0
DA:31,0
DA:32,0
DA:34,0
DA:35,0
DA:36,0
DA:38,0
DA:42,0
DA:43,0
DA:44,0
DA:45,0
DA:46,0
DA:48,0
DA:51,0
DA:53,0
DA:54,0
DA:56,0
DA:58,0
DA:59,0
DA:61,0
DA:63,0
DA:66,0
DA:68,0
DA:69,0
DA:70,0
DA:71,0
DA:73,0
DA:74,0
DA:78,0
DA:80,0
DA:83,0
DA:85,0
DA:86,0
DA:88,0
DA:91,0
DA:93,0
DA:94,0
DA:95,0
DA:96,0
DA:99,0
DA:100,0
DA:101,0
DA:102,0
DA:103,0
DA:104,0
DA:105,0
DA:106,0
DA:110,0
DA:111,0
DA:113,0
DA:115,0
DA:116,0
DA:117,0
DA:119,0
DA:122,0
DA:123,0
DA:124,0
DA:125,0
DA:126,0
LF:67
LH:0
end_of_record
TN:
SF:/home/xucong/caicAD/01datainfra/Aurora/aurora-edge-runtime/src/data_collection/trigger/rule_trigger.h
FN:30,_ZN6aurora9collector11RuleTriggerD0Ev
FN:30,_ZN6aurora9collector11RuleTriggerD2Ev
FNDA:0,_ZN6aurora9collector11RuleTriggerD2Ev
FNDA:0,_ZN6aurora9collector11RuleTriggerD0Ev
FNF:2
FNH:0
DA:30,0
LF:1
LH:0
end_of_record
TN:
SF:/home/xucong/caicAD/01datainfra/Aurora/aurora-edge-runtime/src/data_collection/trigger/strategy/strategy_parser.cpp
FN:11,_ZN6aurora9collector14StrategyParser18LoadConfigFromFileERKNSt7__cxx1112basic_stringIcSt11char_traitsIcESaIcEEERNS0_14StrategyConfigE
FN:32,_ZN6aurora9collector14StrategyParser15ParseJsonConfigERKN8nlohmann10basic_jsonISt3mapSt6vectorNSt7__cxx1112basic_stringIcSt11char_traitsIcESaIcEEEblmdSaNS2_14adl_serializerEEERNS0_14StrategyConfigE
FN:77,_ZN6aurora9collector14StrategyParser10CheckValidERKNSt7__cxx1112basic_stringIcSt11char_traitsIcESaIcEEE
FN:112,_ZN6aurora9collector14StrategyParser12CheckMessageERKN8nlohmann10basic_jsonISt3mapSt6vectorNSt7__cxx1112basic_stringIcSt11char_traitsIcESaIcEEEblmdSaNS2_14adl_serializerEEERS5_ISB_SaISB_EERa
FNDA:0,_ZN6aurora9collector14StrategyParser10CheckValidERKNSt7__cxx1112basic_stringIcSt11char_traitsIcESaIcEEE
FNDA:0,_ZN6aurora9collector14StrategyParser15ParseJsonConfigERKN8nlohmann10basic_jsonISt3mapSt6vectorNSt7__cxx1112basic_stringIcSt11char_traitsIcESaIcEEEblmdSaNS2_14adl_serializerEEERNS0_14StrategyConfigE
FNDA:0,_ZN6aurora9collector14StrategyParser18LoadConfigFromFileERKNSt7__cxx1112basic_stringIcSt11char_traitsIcESaIcEEERNS0_14StrategyConfigE
FNDA:0,_ZN6aurora9collector14StrategyParser12CheckMessageERKN8nlohmann10basic_jsonISt3mapSt6vectorNSt7__cxx1112basic_stringIcSt11char_traitsIcESaIcEEEblmdSaNS2_14adl_serializerEEERS5_ISB_SaISB_EERa
FNF:4
FNH:0
BRDA:12,0,0,-
BRDA:12,0,1,-
BRDA:13,0,0,-
BRDA:13,0,1,-
BRDA:13,0,2,-
BRDA:13,0,3,-
BRDA:14,0,0,-
BRDA:14,0,1,-
BRDA:14,0,2,-
BRDA:14,0,3,-
BRDA:14,0,4,-
BRDA:14,0,5,-
BRDA:18,0,0,-
BRDA:18,0,1,-
BRDA:19,0,0,-
BRDA:19,0,1,-
BRDA:21,0,0,-
BRDA:21,0,1,-
BRDA:21,0,2,-
BRDA:21,0,3,-
BRDA:22,0,0,-
BRDA:22,0,1,-
BRDA:22,0,2,-
BRDA:22,0,3,-
BRDA:26,0,0,-
BRDA:26,0,1,-
BRDA:26,0,2,-
BRDA:26,0,3,-
BRDA:27,0,0,-
BRDA:27,0,1,-
BRDA:36,0,0,-
BRDA:36,0,1,-
BRDA:36,0,2,-
BRDA:36,0,3,-
BRDA:36,0,4,-
BRDA:36,0,5,-
BRDA:36,0,6,-
BRDA:36,0,7,-
BRDA:36,0,8,-
BRDA:36,0,9,-
BRDA:38,0,0,-
BRDA:38,0,1,-
BRDA:38,0,2,-
BRDA:38,0,3,-
BRDA:39,0,0,-
BRDA:39,0,1,-
BRDA:39,0,2,-
BRDA:39,0,3,-
BRDA:39,0,4,-
BRDA:39,0,5,-
BRDA:40,0,0,-
BRDA:40,0,1,-
BRDA:40,0,2,-
BRDA:40,0,3,-
BRDA:40,0,4,-
BRDA:40,0,5,-
BRDA:41,0,0,-
BRDA:41,0,1,-
BRDA:41,0,2,-
BRDA:41,0,3,-
BRDA:41,0,4,-
BRDA:41,0,5,-
BRDA:42,0,0,-
BRDA:42,0,1,-
BRDA:42,0,2,-
BRDA:42,0,3,-
BRDA:42,0,4,-
BRDA:42,0,5,-
BRDA:43,0,0,-
BRDA:43,0,1,-
BRDA:43,0,2,-
BRDA:43,0,3,-
BRDA:43,0,4,-
BRDA:43,0,5,-
BRDA:46,0,0,-
BRDA:46,0,1,-
BRDA:46,0,2,-
BRDA:46,0,3,-
BRDA:46,0,4,-
BRDA:46,0,5,-
BRDA:47,0,0,-
BRDA:47,0,1,-
BRDA:47,0,2,-
BRDA:47,0,3,-
BRDA:47,0,4,-
BRDA:47,0,5,-
BRDA:47,0,6,-
BRDA:47,0,7,-
BRDA:48,0,0,-
BRDA:48,0,1,-
BRDA:48,0,2,-
BRDA:48,0,3,-
BRDA:48,0,4,-
BRDA:48,0,5,-
BRDA:48,0,6,-
BRDA:48,0,7,-
BRDA:49,0,0,-
BRDA:49,0,1,-
BRDA:49,0,2,-
BRDA:49,0,3,-
BRDA:49,0,4,-
BRDA:49,0,5,-
BRDA:49,0,6,-
BRDA:49,0,7,-
BRDA:52,0,0,-
BRDA:52,0,1,-
BRDA:52,0,2,-
BRDA:52,0,3,-
BRDA:55,0,0,-
BRDA:55,0,1,-
BRDA:55,0,2,-
BRDA:55,0,3,-
BRDA:55,0,4,-
BRDA:55,0,5,-
BRDA:55,0,6,-
BRDA:55,0,7,-
BRDA:55,0,8,-
BRDA:55,0,9,-
BRDA:55,0,10,-
BRDA:55,0,11,-
BRDA:57,0,0,-
BRDA:57,0,1,-
BRDA:57,0,2,-
BRDA:57,0,3,-
BRDA:58,0,0,-
BRDA:58,0,1,-
BRDA:58,0,2,-
BRDA:58,0,3,-
BRDA:59,0,0,-
BRDA:59,0,1,-
BRDA:59,0,2,-
BRDA:59,0,3,-
BRDA:60,0,0,-
BRDA:60,0,1,-
BRDA:60,0,2,-
BRDA:60,0,3,-
BRDA:61,0,0,-
BRDA:61,0,1,-
BRDA:65,0,0,-
BRDA:65,0,1,-
BRDA:65,0,2,-
BRDA:65,0,3,-
BRDA:65,0,4,-
BRDA:65,0,5,-
BRDA:65,0,6,-
BRDA:65,0,7,-
BRDA:65,0,8,-
BRDA:65,0,9,-
BRDA:66,0,0,-
BRDA:66,0,1,-
BRDA:66,0,2,-
BRDA:66,0,3,-
BRDA:66,0,4,-
BRDA:66,0,5,-
BRDA:66,0,6,-
BRDA:66,0,7,-
BRDA:66,0,8,-
BRDA:66,0,9,-
BRDA:66,0,10,-
BRDA:66,0,11,-
BRDA:67,0,0,-
BRDA:67,0,1,-
BRDA:68,0,0,-
BRDA:68,0,1,-
BRDA:68,0,2,-
BRDA:68,0,3,-
BRDA:73,0,0,-
BRDA:73,0,1,-
BRDA:79,0,0,-
BRDA:79,0,1,-
BRDA:79,0,2,-
BRDA:79,0,3,-
BRDA:80,0,0,-
BRDA:80,0,1,-
BRDA:80,0,2,-
BRDA:80,0,3,-
BRDA:80,0,4,-
BRDA:80,0,5,-
BRDA:80,0,6,-
BRDA:80,0,7,-
BRDA:80,0,8,-
BRDA:80,0,9,-
BRDA:80,0,10,-
BRDA:80,0,11,-
BRDA:80,0,12,-
BRDA:80,0,13,-
BRDA:82,0,0,-
BRDA:82,0,1,-
BRDA:82,0,2,-
BRDA:82,0,3,-
BRDA:82,0,4,-
BRDA:82,0,5,-
BRDA:82,0,6,-
BRDA:82,0,7,-
BRDA:82,0,8,-
BRDA:82,0,9,-
BRDA:83,0,0,-
BRDA:83,0,1,-
BRDA:83,0,2,-
BRDA:83,0,3,-
BRDA:83,0,4,-
BRDA:83,0,5,-
BRDA:84,0,0,-
BRDA:84,0,1,-
BRDA:84,0,2,-
BRDA:84,0,3,-
BRDA:84,0,4,-
BRDA:84,0,5,-
BRDA:84,0,6,-
BRDA:84,0,7,-
BRDA:84,0,8,-
BRDA:84,0,9,-
BRDA:84,0,10,-
BRDA:84,0,11,-
BRDA:89,0,0,-
BRDA:89,0,1,-
BRDA:89,0,2,-
BRDA:89,0,3,-
BRDA:90,0,0,-
BRDA:90,0,1,-
BRDA:90,0,2,-
BRDA:90,0,3,-
BRDA:90,0,4,-
BRDA:90,0,5,-
BRDA:90,0,6,-
BRDA:90,0,7,-
BRDA:90,0,8,-
BRDA:90,0,9,-
BRDA:90,0,10,-
BRDA:90,0,11,-
BRDA:91,0,0,-
BRDA:91,0,1,-
BRDA:91,0,2,-
BRDA:91,0,3,-
BRDA:91,0,4,-
BRDA:91,0,5,-
BRDA:91,0,6,-
BRDA:91,0,7,-
BRDA:91,0,8,-
BRDA:91,0,9,-
BRDA:91,0,10,-
BRDA:91,0,11,-
BRDA:91,0,12,-
BRDA:91,0,13,-
BRDA:91,0,14,-
BRDA:91,0,15,-
BRDA:96,0,0,-
BRDA:96,0,1,-
BRDA:96,0,2,-
BRDA:96,0,3,-
BRDA:96,0,4,-
BRDA:96,0,5,-
BRDA:96,0,6,-
BRDA:96,0,7,-
BRDA:96,0,8,-
BRDA:96,0,9,-
BRDA:96,0,10,-
BRDA:96,0,11,-
BRDA:97,0,0,-
BRDA:97,0,1,-
BRDA:97,0,2,-
BRDA:97,0,3,-
BRDA:97,0,4,-
BRDA:97,0,5,-
BRDA:98,0,0,-
BRDA:98,0,1,-
BRDA:98,0,2,-
BRDA:98,0,3,-
BRDA:98,0,4,-
BRDA:98,0,5,-
BRDA:98,0,6,-
BRDA:98,0,7,-
BRDA:98,0,8,-
BRDA:98,0,9,-
BRDA:98,0,10,-
BRDA:98,0,11,-
BRDA:105,0,0,-
BRDA:105,0,1,-
BRDA:114,0,0,-
BRDA:114,0,1,-
BRDA:114,0,2,-
BRDA:114,0,3,-
BRDA:114,0,4,-
BRDA:114,0,5,-
BRDA:115,0,0,-
BRDA:115,0,1,-
BRDA:115,0,2,-
BRDA:115,0,3,-
BRDA:115,0,4,-
BRDA:115,0,5,-
BRDA:116,0,0,-
BRDA:116,0,1,-
BRDA:116,0,2,-
BRDA:116,0,3,-
BRDA:116,0,4,-
BRDA:116,0,5,-
BRDA:116,0,6,-
BRDA:116,0,7,-
BRDA:116,0,8,-
BRDA:116,0,9,-
BRDA:117,0,0,-
BRDA:117,0,1,-
BRDA:117,0,2,-
BRDA:117,0,3,-
BRDA:117,0,4,-
BRDA:117,0,5,-
BRDA:117,0,6,-
BRDA:117,0,7,-
BRDA:117,0,8,-
BRDA:117,0,9,-
BRDA:118,0,0,-
BRDA:118,0,1,-
BRDA:118,0,2,-
BRDA:118,0,3,-
BRDA:119,0,0,-
BRDA:119,0,1,-
BRDA:119,0,2,-
BRDA:119,0,3,-
BRDA:120,0,0,-
BRDA:120,0,1,-
BRDA:120,0,2,-
BRDA:120,0,3,-
BRDA:121,0,0,-
BRDA:121,0,1,-
BRDA:121,0,2,-
BRDA:121,0,3,-
BRDA:121,0,4,-
BRDA:121,0,5,-
BRDA:121,0,6,-
BRDA:121,0,7,-
BRDA:122,0,0,-
BRDA:122,0,1,-
BRDA:122,0,2,-
BRDA:122,0,3,-
BRDA:122,0,4,-
BRDA:122,0,5,-
BRDA:123,0,0,-
BRDA:123,0,1,-
BRDA:123,0,2,-
BRDA:123,0,3,-
BRDA:123,0,4,-
BRDA:123,0,5,-
BRDA:124,0,0,-
BRDA:124,0,1,-
BRDA:124,0,2,-
BRDA:124,0,3,-
BRDA:124,0,4,-
BRDA:124,0,5,-
BRDA:125,0,0,-
BRDA:125,0,1,-
BRDA:125,0,2,-
BRDA:125,0,3,-
BRDA:125,0,4,-
BRDA:125,0,5,-
BRDA:128,0,0,-
BRDA:128,0,1,-
BRDA:128,0,2,-
BRDA:128,0,3,-
BRDA:128,0,4,-
BRDA:128,0,5,-
BRDA:128,0,6,-
BRDA:128,0,7,-
BRDA:129,0,0,-
BRDA:129,0,1,-
BRDA:129,0,2,-
BRDA:129,0,3,-
BRDA:129,0,4,-
BRDA:129,0,5,-
BRDA:130,0,0,-
BRDA:130,0,1,-
BRDA:130,0,2,-
BRDA:130,0,3,-
BRDA:130,0,4,-
BRDA:130,0,5,-
BRDA:130,0,6,-
BRDA:130,0,7,-
BRDA:130,0,8,-
BRDA:130,0,9,-
BRDA:131,0,0,-
BRDA:131,0,1,-
BRDA:131,0,2,-
BRDA:131,0,3,-
BRDA:131,0,4,-
BRDA:131,0,5,-
BRDA:131,0,6,-
BRDA:131,0,7,-
BRDA:132,0,0,-
BRDA:132,0,1,-
BRDA:132,0,2,-
BRDA:132,0,3,-
BRDA:132,0,4,-
BRDA:132,0,5,-
BRDA:132,0,6,-
BRDA:132,0,7,-
BRDA:136,0,0,-
BRDA:136,0,1,-
BRDA:136,0,2,-
BRDA:136,0,3,-
BRDA:136,0,4,-
BRDA:136,0,5,-
BRDA:136,0,6,-
BRDA:136,0,7,-
BRDA:137,0,0,-
BRDA:137,0,1,-
BRDA:137,0,2,-
BRDA:137,0,3,-
BRDA:137,0,4,-
BRDA:137,0,5,-
BRDA:137,0,6,-
BRDA:137,0,7,-
BRDA:139,0,0,-
BRDA:139,0,1,-
BRDA:139,0,2,-
BRDA:139,0,3,-
BRDA:139,0,4,-
BRDA:139,0,5,-
BRDA:139,0,6,-
BRDA:139,0,7,-
BRDA:140,0,0,-
BRDA:140,0,1,-
BRDA:140,0,2,-
BRDA:140,0,3,-
BRDA:140,0,4,-
BRDA:140,0,5,-
BRDA:141,0,0,-
BRDA:141,0,1,-
BRDA:141,0,2,-
BRDA:141,0,3,-
BRDA:141,0,4,-
BRDA:141,0,5,-
BRDA:141,0,6,-
BRDA:141,0,7,-
BRDA:141,0,8,-
BRDA:141,0,9,-
BRDA:141,0,10,-
BRDA:141,0,11,-
BRDA:142,0,0,-
BRDA:142,0,1,-
BRDA:142,0,2,-
BRDA:142,0,3,-
BRDA:142,0,4,-
BRDA:142,0,5,-
BRDA:143,0,0,-
BRDA:143,0,1,-
BRDA:143,0,2,-
BRDA:143,0,3,-
BRDA:144,0,0,-
BRDA:144,0,1,-
BRDA:144,0,2,-
BRDA:144,0,3,-
BRDA:145,0,0,-
BRDA:145,0,1,-
BRDA:145,0,2,-
BRDA:145,0,3,-
BRF:454
BRH:0
DA:11,0
DA:12,0
DA:13,0
DA:14,0
DA:15,0
DA:18,0
DA:19,0
DA:21,0
DA:22,0
DA:23,0
DA:26,0
DA:27,0
DA:29,0
DA:30,0
DA:32,0
DA:33,0
DA:34,0
DA:36,0
DA:37,0
DA:38,0
DA:39,0
DA:40,0
DA:41,0
DA:42,0
DA:43,0
DA:46,0
DA:47,0
DA:48,0
DA:49,0
DA:52,0
DA:55,0
DA:56,0
DA:57,0
DA:58,0
DA:59,0
DA:60,0
DA:61,0
DA:62,0
DA:65,0
DA:66,0
DA:67,0
DA:68,0
DA:70,0
DA:73,0
DA:74,0
DA:75,0
DA:77,0
DA:79,0
DA:80,0
DA:82,0
DA:83,0
DA:84,0
DA:85,0
DA:89,0
DA:90,0
DA:91,0
DA:92,0
DA:96,0
DA:97,0
DA:98,0
DA:99,0
DA:104,0
DA:105,0
DA:106,0
DA:107,0
DA:112,0
DA:114,0
DA:115,0
DA:116,0
DA:117,0
DA:118,0
DA:119,0
DA:120,0
DA:121,0
DA:122,0
DA:123,0
DA:124,0
DA:125,0
DA:128,0
DA:129,0
DA:130,0
DA:131,0
DA:132,0
DA:133,0
DA:136,0
DA:137,0
DA:139,0
DA:140,0
DA:141,0
DA:142,0
DA:143,0
DA:144,0
DA:145,0
DA:148,0
LF:94
LH:0
end_of_record
TN:
SF:/home/xucong/caicAD/01datainfra/Aurora/aurora-edge-runtime/src/data_collection/trigger/trigger_base.cpp
FN:12,_ZN6aurora9collector11TriggerBase4initERKNSt7__cxx1112basic_stringIcSt11char_traitsIcESaIcEEERKNS0_14StrategyConfigE
FN:28,_ZNK6aurora9collector11TriggerBase13notifyTriggerERKNS0_14TriggerContextE
FNDA:0,_ZNK6aurora9collector11TriggerBase13notifyTriggerERKNS0_14TriggerContextE
FNDA:0,_ZN6aurora9collector11TriggerBase4initERKNSt7__cxx1112basic_stringIcSt11char_traitsIcESaIcEEERKNS0_14StrategyConfigE
FNF:2
FNH:0
BRDA:13,0,0,-
BRDA:13,0,1,-
BRDA:14,0,0,-
BRDA:14,0,1,-
BRDA:15,0,0,-
BRDA:15,0,1,-
BRDA:20,0,0,-
BRDA:20,0,1,-
BRDA:21,0,0,-
BRDA:21,0,1,-
BRDA:29,0,0,-
BRDA:29,0,1,-
BRDA:32,0,0,-
BRDA:32,0,1,-
BRF:14
BRH:0
DA:12,0
DA:13,0
DA:14,0
DA:15,0
DA:16,0
DA:20,0
DA:21,0
DA:22,0
DA:25,0
DA:28,0
DA:29,0
DA:30,0
DA:32,0
DA:34,0
LF:14
LH:0
end_of_record
TN:
SF:/home/xucong/caicAD/01datainfra/Aurora/aurora-edge-runtime/src/data_collection/trigger/trigger_base.h
FN:29,_ZN6aurora9collector11TriggerBaseC2Ev
FN:30,_ZN6aurora9collector11TriggerBaseD2Ev
FN:30,_ZN6aurora9collector11TriggerBaseD0Ev
FNDA:0,_ZN6aurora9collector11TriggerBaseC2Ev
FNDA:0,_ZN6aurora9collector11TriggerBaseD2Ev
FNDA:0,_ZN6aurora9collector11TriggerBaseD0Ev
FNF:3
FNH:0
DA:29,0
DA:30,0
LF:2
LH:0
end_of_record
TN:
SF:/home/xucong/caicAD/01datainfra/Aurora/aurora-edge-runtime/src/data_collection/trigger/trigger_manager.cpp
FN:13,_ZN6aurora9collector14TriggerManagerC2Ev
FN:18,_ZN6aurora9collector14TriggerManager10initializeERKNS0_14StrategyConfigE
FN:37,_ZN6aurora9collector14TriggerManager12initTriggersERKNS0_14StrategyConfigE
FN:85,_ZN6aurora9collector14TriggerManager18initTriggerCheckerESt10shared_ptrINS0_11TriggerBaseEE
FN:87,_ZZN6aurora9collector14TriggerManager18initTriggerCheckerESt10shared_ptrINS0_11TriggerBaseEEENKUlvE_clEv
FN:92,_ZZN6aurora9collector14TriggerManager18initTriggerCheckerESt10shared_ptrINS0_11TriggerBaseEEENKUlvE0_clEv
FN:96,_ZZN6aurora9collector14TriggerManager18initTriggerCheckerESt10shared_ptrINS0_11TriggerBaseEEENKUlvE1_clEv
FN:100,_ZZN6aurora9collector14TriggerManager18initTriggerCheckerESt10shared_ptrINS0_11TriggerBaseEEENKUlvE2_clEv
FN:108,_ZN6aurora9collector14TriggerManager13createTriggerEv
FN:113,_ZNK6aurora9collector14TriggerManager10getTriggerEv
FN:117,_ZN6aurora9collector14TriggerManager20setGaitTriggerConfigERKNS0_17GaitTriggerConfigE
FN:125,_ZN6aurora9collector14TriggerManager22shouldTriggerGaitBasedERK5Point
FN:176,_ZN6aurora9collector14TriggerManager13shouldTriggerERK5Point
FN:197,_ZN6aurora9collector14TriggerManager14isInSparseAreaERK5Point
FN:209,_ZN6aurora9collector14TriggerManager30getDistanceToNearestSparseAreaERK5Point
FN:230,_ZN6aurora9collector14TriggerManager5startEv
FN:237,_ZN6aurora9collector14TriggerManager18setTriggerCallbackESt8functionIFvRKNS0_14TriggerContextEEE
FN:242,_ZN6aurora9collector14TriggerManager20notifyTriggerContextERKNS0_14TriggerContextE
FN:247,_ZN6aurora9collector14TriggerManager21notifyPositionVisitedERK5Pointm
FN:258,_ZN6aurora9collector14TriggerManager19updateRobotPositionERK5Point
FNDA:0,_ZN6aurora9collector14TriggerManager22shouldTriggerGaitBasedERK5Point
FNDA:0,_ZN6aurora9collector14TriggerManagerC2Ev
FNDA:0,_ZNK6aurora9collector14TriggerManager10getTriggerEv
FNDA:0,_ZN6aurora9collector14TriggerManager30getDistanceToNearestSparseAreaERK5Point
FNDA:0,_ZZN6aurora9collector14TriggerManager18initTriggerCheckerESt10shared_ptrINS0_11TriggerBaseEEENKUlvE0_clEv
FNDA:0,_ZN6aurora9collector14TriggerManager18setTriggerCallbackESt8functionIFvRKNS0_14TriggerContextEEE
FNDA:0,_ZN6aurora9collector14TriggerManager20notifyTriggerContextERKNS0_14TriggerContextE
FNDA:0,_ZN6aurora9collector14TriggerManager14isInSparseAreaERK5Point
FNDA:0,_ZN6aurora9collector14TriggerManager5startEv
FNDA:0,_ZZN6aurora9collector14TriggerManager18initTriggerCheckerESt10shared_ptrINS0_11TriggerBaseEEENKUlvE2_clEv
FNDA:0,_ZZN6aurora9collector14TriggerManager18initTriggerCheckerESt10shared_ptrINS0_11TriggerBaseEEENKUlvE_clEv
FNDA:0,_ZN6aurora9collector14TriggerManager13shouldTriggerERK5Point
FNDA:0,_ZN6aurora9collector14TriggerManager10initializeERKNS0_14StrategyConfigE
FNDA:0,_ZN6aurora9collector14TriggerManager13createTriggerEv
FNDA:0,_ZN6aurora9collector14TriggerManager19updateRobotPositionERK5Point
FNDA:0,_ZN6aurora9collector14TriggerManager21notifyPositionVisitedERK5Pointm
FNDA:0,_ZZN6aurora9collector14TriggerManager18initTriggerCheckerESt10shared_ptrINS0_11TriggerBaseEEENKUlvE1_clEv
FNDA:0,_ZN6aurora9collector14TriggerManager18initTriggerCheckerESt10shared_ptrINS0_11TriggerBaseEE
FNDA:0,_ZN6aurora9collector14TriggerManager20setGaitTriggerConfigERKNS0_17GaitTriggerConfigE
FNDA:0,_ZN6aurora9collector14TriggerManager12initTriggersERKNS0_14StrategyConfigE
FNF:20
FNH:0
BRDA:19,0,0,-
BRDA:19,0,1,-
BRDA:20,0,0,-
BRDA:20,0,1,-
BRDA:24,0,0,-
BRDA:24,0,1,-
BRDA:24,0,2,-
BRDA:24,0,3,-
BRDA:26,0,0,-
BRDA:26,0,1,-
BRDA:30,0,0,-
BRDA:30,0,1,-
BRDA:31,0,0,-
BRDA:31,0,1,-
BRDA:32,0,0,-
BRDA:32,0,1,-
BRDA:38,0,0,-
BRDA:38,0,1,-
BRDA:43,0,0,-
BRDA:43,0,1,-
BRDA:44,0,0,-
BRDA:44,0,1,-
BRDA:47,0,0,-
BRDA:47,0,1,-
BRDA:53,0,0,-
BRDA:53,0,1,-
BRDA:55,0,0,-
BRDA:55,0,1,-
BRDA:55,0,2,-
BRDA:55,0,3,-
BRDA:62,0,0,-
BRDA:62,0,1,-
BRDA:63,0,0,-
BRDA:63,0,1,-
BRDA:64,0,0,-
BRDA:64,0,1,-
BRDA:64,0,2,-
BRDA:64,0,3,-
BRDA:70,0,0,-
BRDA:70,0,1,-
BRDA:72,0,0,-
BRDA:72,0,1,-
BRDA:73,0,0,-
BRDA:73,0,1,-
BRDA:74,0,0,-
BRDA:74,0,1,-
BRDA:74,0,2,-
BRDA:74,0,3,-
BRDA:86,0,0,-
BRDA:86,0,1,-
BRDA:87,0,0,-
BRDA:87,0,1,-
BRDA:87,0,2,-
BRDA:87,0,3,-
BRDA:92,0,0,-
BRDA:92,0,1,-
BRDA:92,0,2,-
BRDA:92,0,3,-
BRDA:96,0,0,-
BRDA:96,0,1,-
BRDA:96,0,2,-
BRDA:96,0,3,-
BRDA:100,0,0,-
BRDA:100,0,1,-
BRDA:100,0,2,-
BRDA:100,0,3,-
BRDA:114,0,0,-
BRDA:114,0,1,-
BRDA:118,0,0,-
BRDA:118,0,1,-
BRDA:120,0,0,-
BRDA:120,0,1,-
BRDA:120,0,2,-
BRDA:120,0,3,-
BRDA:121,0,0,-
BRDA:121,0,1,-
BRDA:121,0,2,-
BRDA:121,0,3,-
BRDA:122,0,0,-
BRDA:122,0,1,-
BRDA:122,0,2,-
BRDA:122,0,3,-
BRDA:133,0,0,-
BRDA:133,0,1,-
BRDA:134,0,0,-
BRDA:134,0,1,-
BRDA:136,0,0,-
BRDA:136,0,1,-
BRDA:137,0,0,-
BRDA:137,0,1,-
BRDA:137,0,2,-
BRDA:137,0,3,-
BRDA:143,0,0,-
BRDA:143,0,1,-
BRDA:144,0,0,-
BRDA:144,0,1,-
BRDA:144,0,2,-
BRDA:144,0,3,-
BRDA:150,0,0,-
BRDA:150,0,1,-
BRDA:154,0,0,-
BRDA:154,0,1,-
BRDA:155,0,0,-
BRDA:155,0,1,-
BRDA:155,0,2,-
BRDA:155,0,3,-
BRDA:165,0,0,-
BRDA:165,0,1,-
BRDA:166,0,0,-
BRDA:166,0,1,-
BRDA:167,0,0,-
BRDA:167,0,1,-
BRDA:170,0,0,-
BRDA:170,0,1,-
BRDA:170,0,2,-
BRDA:170,0,3,-
BRDA:177,0,0,-
BRDA:177,0,1,-
BRDA:184,0,0,-
BRDA:184,0,1,-
BRDA:185,0,0,-
BRDA:185,0,1,-
BRDA:185,0,2,-
BRDA:185,0,3,-
BRDA:186,0,0,-
BRDA:186,0,1,-
BRDA:191,0,0,-
BRDA:191,0,1,-
BRDA:191,0,2,-
BRDA:191,0,3,-
BRDA:194,0,0,-
BRDA:194,0,1,-
BRDA:198,0,0,-
BRDA:198,0,1,-
BRDA:200,0,0,-
BRDA:200,0,1,-
BRDA:201,0,0,-
BRDA:201,0,1,-
BRDA:210,0,0,-
BRDA:210,0,1,-
BRDA:215,0,0,-
BRDA:215,0,1,-
BRDA:216,0,0,-
BRDA:216,0,1,-
BRDA:217,0,0,-
BRDA:217,0,1,-
BRDA:223,0,0,-
BRDA:223,0,1,-
BRDA:223,0,2,-
BRDA:223,0,3,-
BRDA:223,0,4,-
BRDA:223,0,5,-
BRDA:223,0,6,-
BRDA:223,0,7,-
BRDA:233,0,0,-
BRDA:233,0,1,-
BRDA:238,0,0,-
BRDA:238,0,1,-
BRDA:243,0,0,-
BRDA:243,0,1,-
BRDA:244,0,0,-
BRDA:244,0,1,-
BRDA:244,0,2,-
BRDA:244,0,3,-
BRDA:254,0,0,-
BRDA:254,0,1,-
BRDA:255,0,0,-
BRDA:255,0,1,-
BRDA:255,0,2,-
BRDA:255,0,3,-
BRDA:259,0,0,-
BRDA:259,0,1,-
BRF:172
BRH:0
DA:13,0
DA:14,0
DA:15,0
DA:16,0
DA:18,0
DA:19,0
DA:20,0
DA:21,0
DA:24,0
DA:26,0
DA:27,0
DA:30,0
DA:31,0
DA:32,0
DA:34,0
DA:37,0
DA:38,0
DA:39,0
DA:43,0
DA:44,0
DA:45,0
DA:46,0
DA:47,0
DA:53,0
DA:55,0
DA:56,0
DA:60,0
DA:62,0
DA:63,0
DA:64,0
DA:65,0
DA:67,0
DA:70,0
DA:72,0
DA:73,0
DA:74,0
DA:75,0
DA:76,0
DA:80,0
DA:82,0
DA:83,0
DA:85,0
DA:86,0
DA:87,0
DA:88,0
DA:92,0
DA:94,0
DA:96,0
DA:98,0
DA:100,0
DA:102,0
DA:104,0
DA:108,0
DA:110,0
DA:113,0
DA:114,0
DA:117,0
DA:118,0
DA:119,0
DA:120,0
DA:121,0
DA:122,0
DA:123,0
DA:125,0
DA:127,0
DA:128,0
DA:129,0
DA:132,0
DA:133,0
DA:134,0
DA:136,0
DA:137,0
DA:139,0
DA:143,0
DA:144,0
DA:146,0
DA:150,0
DA:151,0
DA:152,0
DA:153,0
DA:154,0
DA:155,0
DA:156,0
DA:161,0
DA:162,0
DA:165,0
DA:166,0
DA:167,0
DA:170,0
DA:173,0
DA:176,0
DA:177,0
DA:184,0
DA:185,0
DA:186,0
DA:190,0
DA:191,0
DA:194,0
DA:195,0
DA:197,0
DA:198,0
DA:200,0
DA:201,0
DA:202,0
DA:206,0
DA:207,0
DA:209,0
DA:210,0
DA:212,0
DA:215,0
DA:216,0
DA:217,0
DA:218,0
DA:223,0
DA:224,0
DA:227,0
DA:228,0
DA:230,0
DA:232,0
DA:233,0
DA:234,0
DA:237,0
DA:238,0
DA:239,0
DA:240,0
DA:242,0
DA:243,0
DA:244,0
DA:245,0
DA:247,0
DA:249,0
DA:250,0
DA:251,0
DA:254,0
DA:255,0
DA:256,0
DA:258,0
DA:259,0
DA:260,0
DA:261,0
DA:262,0
LF:141
LH:0
end_of_record
TN:
SF:/home/xucong/caicAD/01datainfra/Aurora/aurora-edge-runtime/src/data_collection/trigger/trigger_manager.h
FN:24,_ZNK6aurora9collector12SparseRegion8containsERK5Point
FN:30,_ZNK6aurora9collector12SparseRegion11getDistanceERK5Point
FN:48,_ZN6aurora9collector17GaitTriggerConfigC2Ev
FN:58,_ZN6aurora9collector14TriggerManagerD2Ev
FNDA:0,_ZNK6aurora9collector12SparseRegion8containsERK5Point
FNDA:0,_ZN6aurora9collector17GaitTriggerConfigC2Ev
FNDA:0,_ZN6aurora9collector14TriggerManagerD2Ev
FNDA:0,_ZNK6aurora9collector12SparseRegion11getDistanceERK5Point
FNF:4
FNH:0
DA:24,0
DA:25,0
DA:26,0
DA:27,0
DA:30,0
DA:31,0
DA:32,0
DA:33,0
DA:34,0
DA:48,0
DA:49,0
DA:50,0
DA:51,0
DA:52,0
DA:58,0
LF:15
LH:0
end_of_record
TN:
SF:/home/xucong/caicAD/01datainfra/Aurora/aurora-edge-runtime/src/data_collection/uploader/aws_data_uploader.cpp
FN:18,_ZN6aurora9collector15AwsDataUploaderC2Ev
FN:23,_ZN6aurora9collector15AwsDataUploaderD0Ev
FN:23,_ZN6aurora9collector15AwsDataUploaderD2Ev
FN:32,_ZN6aurora9collector15AwsDataUploader4InitERKNS0_13AppConfigData10DataUploadE
FN:60,_ZN6aurora9collector15AwsDataUploader5StartEv
FN:65,_ZN6aurora9collector15AwsDataUploader4StopEv
FN:72,_ZN6aurora9collector15AwsDataUploader10UploadFileERKNSt7__cxx1112basic_stringIcSt11char_traitsIcESaIcEEENS0_10UploadTypeE
FN:140,_ZN6aurora9collector15AwsDataUploader12LoadFileListEv
FN:162,_ZN6aurora9collector15AwsDataUploader3RunEv
FN:173,_ZN6aurora9collector15AwsDataUploader12ProcessQueueEv
FN:227,_ZN6aurora9collector15AwsDataUploader21CreateMultipartUploadERKNSt7__cxx1112basic_stringIcSt11char_traitsIcESaIcEEES9_RS7_
FN:250,_ZN6aurora9collector15AwsDataUploader10UploadPartERKNSt7__cxx1112basic_stringIcSt11char_traitsIcESaIcEEES9_S9_iRKSt6vectorIcS6_ERS7_
FN:282,_ZN6aurora9collector15AwsDataUploader23CompleteMultipartUploadERKNSt7__cxx1112basic_stringIcSt11char_traitsIcESaIcEEES9_S9_RKSt6vectorISt4pairIiS7_ESaISC_EE
FN:316,_ZN6aurora9collector15AwsDataUploader11UploadPartsERKNSt7__cxx1112basic_stringIcSt11char_traitsIcESaIcEEES9_S9_S9_
FNDA:0,_ZN6aurora9collector15AwsDataUploaderD0Ev
FNDA:0,_ZN6aurora9collector15AwsDataUploader10UploadPartERKNSt7__cxx1112basic_stringIcSt11char_traitsIcESaIcEEES9_S9_iRKSt6vectorIcS6_ERS7_
FNDA:0,_ZN6aurora9collector15AwsDataUploader12ProcessQueueEv
FNDA:0,_ZN6aurora9collector15AwsDataUploader5StartEv
FNDA:0,_ZN6aurora9collector15AwsDataUploader10UploadFileERKNSt7__cxx1112basic_stringIcSt11char_traitsIcESaIcEEENS0_10UploadTypeE
FNDA:0,_ZN6aurora9collector15AwsDataUploaderD2Ev
FNDA:0,_ZN6aurora9collector15AwsDataUploader3RunEv
FNDA:0,_ZN6aurora9collector15AwsDataUploader4StopEv
FNDA:0,_ZN6aurora9collector15AwsDataUploader12LoadFileListEv
FNDA:0,_ZN6aurora9collector15AwsDataUploader11UploadPartsERKNSt7__cxx1112basic_stringIcSt11char_traitsIcESaIcEEES9_S9_S9_
FNDA:0,_ZN6aurora9collector15AwsDataUploader21CreateMultipartUploadERKNSt7__cxx1112basic_stringIcSt11char_traitsIcESaIcEEES9_RS7_
FNDA:0,_ZN6aurora9collector15AwsDataUploader4InitERKNS0_13AppConfigData10DataUploadE
FNDA:0,_ZN6aurora9collector15AwsDataUploader23CompleteMultipartUploadERKNSt7__cxx1112basic_stringIcSt11char_traitsIcESaIcEEES9_S9_RKSt6vectorISt4pairIiS7_ESaISC_EE
FNDA:0,_ZN6aurora9collector15AwsDataUploaderC2Ev
FNF:14
FNH:0
BRDA:20,0,0,-
BRDA:20,0,1,-
BRDA:25,0,0,-
BRDA:25,0,1,-
BRDA:33,0,0,-
BRDA:33,0,1,-
BRDA:37,0,0,-
BRDA:37,0,1,-
BRDA:40,0,0,-
BRDA:40,0,1,-
BRDA:41,0,0,-
BRDA:41,0,1,-
BRDA:44,0,0,-
BRDA:44,0,1,-
BRDA:45,0,0,-
BRDA:45,0,1,-
BRDA:46,0,0,-
BRDA:46,0,1,-
BRDA:48,0,0,-
BRDA:48,0,1,-
BRDA:48,0,2,-
BRDA:48,0,3,-
BRDA:48,0,4,-
BRDA:48,0,5,-
BRDA:50,0,0,-
BRDA:50,0,1,-
BRDA:51,0,0,-
BRDA:51,0,1,-
BRDA:61,0,0,-
BRDA:61,0,1,-
BRDA:66,0,0,-
BRDA:66,0,1,-
BRDA:75,0,0,-
BRDA:75,0,1,-
BRDA:75,0,2,-
BRDA:75,0,3,-
BRDA:75,0,4,-
BRDA:75,0,5,-
BRDA:78,0,0,-
BRDA:78,0,1,-
BRDA:79,0,0,-
BRDA:79,0,1,-
BRDA:80,0,0,-
BRDA:80,0,1,-
BRDA:80,0,2,-
BRDA:80,0,3,-
BRDA:85,0,0,-
BRDA:85,0,1,-
BRDA:85,0,2,-
BRDA:85,0,3,-
BRDA:89,0,0,-
BRDA:89,0,1,-
BRDA:90,0,0,-
BRDA:90,0,1,-
BRDA:90,0,2,-
BRDA:90,0,3,-
BRDA:94,0,0,-
BRDA:94,0,1,-
BRDA:95,0,0,-
BRDA:95,0,1,-
BRDA:96,0,0,-
BRDA:96,0,1,-
BRDA:96,0,2,-
BRDA:96,0,3,-
BRDA:100,0,0,-
BRDA:100,0,1,-
BRDA:104,0,0,-
BRDA:104,0,1,-
BRDA:104,0,2,-
BRDA:104,0,3,-
BRDA:107,0,0,-
BRDA:107,0,1,-
BRDA:108,0,0,-
BRDA:108,0,1,-
BRDA:108,0,2,-
BRDA:108,0,3,-
BRDA:109,0,0,-
BRDA:109,0,1,-
BRDA:109,0,2,-
BRDA:109,0,3,-
BRDA:114,0,0,-
BRDA:114,0,1,-
BRDA:115,0,0,-
BRDA:115,0,1,-
BRDA:116,0,0,-
BRDA:116,0,1,-
BRDA:117,0,0,-
BRDA:117,0,1,-
BRDA:121,0,0,-
BRDA:121,0,1,-
BRDA:122,0,0,-
BRDA:122,0,1,-
BRDA:123,0,0,-
BRDA:123,0,1,-
BRDA:123,0,2,-
BRDA:123,0,3,-
BRDA:127,0,0,-
BRDA:127,0,1,-
BRDA:127,0,2,-
BRDA:127,0,3,-
BRDA:127,0,4,-
BRDA:127,0,5,-
BRDA:133,0,0,-
BRDA:133,0,1,-
BRDA:134,0,0,0
BRDA:134,0,1,0
BRDA:134,0,2,0
BRDA:134,0,3,0
BRDA:141,0,0,-
BRDA:141,0,1,-
BRDA:142,0,0,-
BRDA:142,0,1,-
BRDA:145,0,0,-
BRDA:145,0,1,-
BRDA:146,0,0,-
BRDA:146,0,1,-
BRDA:146,0,2,-
BRDA:146,0,3,-
BRDA:148,0,0,-
BRDA:148,0,1,-
BRDA:148,0,2,-
BRDA:148,0,3,-
BRDA:149,0,0,-
BRDA:149,0,1,-
BRDA:149,0,2,-
BRDA:149,0,3,-
BRDA:153,0,0,-
BRDA:153,0,1,-
BRDA:153,0,2,-
BRDA:153,0,3,-
BRDA:153,0,4,-
BRDA:153,0,5,-
BRDA:153,0,6,-
BRDA:153,0,7,-
BRDA:154,0,0,-
BRDA:154,0,1,-
BRDA:154,0,2,-
BRDA:154,0,3,-
BRDA:154,0,4,-
BRDA:154,0,5,-
BRDA:154,0,6,-
BRDA:154,0,7,-
BRDA:154,0,8,-
BRDA:154,0,9,-
BRDA:154,0,10,-
BRDA:154,0,11,-
BRDA:154,0,12,-
BRDA:154,0,13,-
BRDA:154,0,14,-
BRDA:154,0,15,-
BRDA:154,0,16,-
BRDA:154,0,17,-
BRDA:154,0,18,-
BRDA:154,0,19,-
BRDA:154,0,20,-
BRDA:154,0,21,-
BRDA:155,0,0,-
BRDA:155,0,1,-
BRDA:155,0,2,-
BRDA:155,0,3,-
BRDA:155,0,4,-
BRDA:155,0,5,-
BRDA:156,0,0,-
BRDA:156,0,1,-
BRDA:156,0,2,-
BRDA:156,0,3,-
BRDA:156,0,4,-
BRDA:156,0,5,-
BRDA:159,0,0,-
BRDA:159,0,1,-
BRDA:159,0,2,-
BRDA:159,0,3,-
BRDA:159,0,4,-
BRDA:159,0,5,-
BRDA:160,0,0,-
BRDA:160,0,1,-
BRDA:160,0,2,-
BRDA:160,0,3,-
BRDA:163,0,0,-
BRDA:163,0,1,-
BRDA:164,0,0,-
BRDA:164,0,1,-
BRDA:165,0,0,-
BRDA:165,0,1,-
BRDA:166,0,0,-
BRDA:166,0,1,-
BRDA:167,0,0,-
BRDA:167,0,1,-
BRDA:168,0,0,-
BRDA:168,0,1,-
BRDA:170,0,0,-
BRDA:170,0,1,-
BRDA:174,0,0,-
BRDA:174,0,1,-
BRDA:175,0,0,-
BRDA:175,0,1,-
BRDA:175,0,2,-
BRDA:175,0,3,-
BRDA:181,0,0,-
BRDA:181,0,1,-
BRDA:182,0,0,-
BRDA:182,0,1,-
BRDA:182,0,2,-
BRDA:182,0,3,-
BRDA:183,0,0,-
BRDA:183,0,1,-
BRDA:183,0,2,-
BRDA:183,0,3,-
BRDA:187,0,0,-
BRDA:187,0,1,-
BRDA:187,0,2,-
BRDA:187,0,3,-
BRDA:188,0,0,-
BRDA:188,0,1,-
BRDA:188,0,2,-
BRDA:188,0,3,-
BRDA:191,0,0,-
BRDA:191,0,1,-
BRDA:192,0,0,-
BRDA:192,0,1,-
BRDA:192,0,2,-
BRDA:192,0,3,-
BRDA:194,0,0,-
BRDA:194,0,1,-
BRDA:197,0,0,-
BRDA:197,0,1,-
BRDA:197,0,2,-
BRDA:197,0,3,-
BRDA:200,0,0,-
BRDA:200,0,1,-
BRDA:201,0,0,-
BRDA:201,0,1,-
BRDA:204,0,0,-
BRDA:204,0,1,-
BRDA:207,0,0,-
BRDA:207,0,1,-
BRDA:207,0,2,-
BRDA:207,0,3,-
BRDA:210,0,0,-
BRDA:210,0,1,-
BRDA:211,0,0,-
BRDA:211,0,1,-
BRDA:211,0,2,-
BRDA:211,0,3,-
BRDA:213,0,0,-
BRDA:213,0,1,-
BRDA:218,0,0,-
BRDA:218,0,1,-
BRDA:219,0,0,-
BRDA:219,0,1,-
BRDA:229,0,0,-
BRDA:229,0,1,-
BRDA:230,0,0,-
BRDA:230,0,1,-
BRDA:231,0,0,-
BRDA:231,0,1,-
BRDA:233,0,0,-
BRDA:233,0,1,-
BRDA:234,0,0,-
BRDA:234,0,1,-
BRDA:235,0,0,-
BRDA:235,0,1,-
BRDA:235,0,2,-
BRDA:235,0,3,-
BRDA:236,0,0,-
BRDA:236,0,1,-
BRDA:236,0,2,-
BRDA:236,0,3,-
BRDA:240,0,0,-
BRDA:240,0,1,-
BRDA:240,0,2,-
BRDA:240,0,3,-
BRDA:240,0,4,-
BRDA:240,0,5,-
BRDA:244,0,0,-
BRDA:244,0,1,-
BRDA:245,0,0,0
BRDA:245,0,1,0
BRDA:245,0,2,0
BRDA:245,0,3,0
BRDA:254,0,0,-
BRDA:254,0,1,-
BRDA:255,0,0,-
BRDA:255,0,1,-
BRDA:256,0,0,-
BRDA:256,0,1,-
BRDA:257,0,0,-
BRDA:257,0,1,-
BRDA:261,0,0,-
BRDA:261,0,1,-
BRDA:262,0,0,-
BRDA:262,0,1,-
BRDA:263,0,0,-
BRDA:263,0,1,-
BRDA:266,0,0,-
BRDA:266,0,1,-
BRDA:267,0,0,-
BRDA:267,0,1,-
BRDA:268,0,0,-
BRDA:268,0,1,-
BRDA:268,0,2,-
BRDA:268,0,3,-
BRDA:269,0,0,-
BRDA:269,0,1,-
BRDA:269,0,2,-
BRDA:269,0,3,-
BRDA:272,0,0,-
BRDA:272,0,1,-
BRDA:272,0,2,-
BRDA:272,0,3,-
BRDA:272,0,4,-
BRDA:272,0,5,-
BRDA:276,0,0,-
BRDA:276,0,1,-
BRDA:277,0,0,0
BRDA:277,0,1,0
BRDA:277,0,2,0
BRDA:277,0,3,0
BRDA:286,0,0,-
BRDA:286,0,1,-
BRDA:287,0,0,-
BRDA:287,0,1,-
BRDA:288,0,0,-
BRDA:288,0,1,-
BRDA:289,0,0,-
BRDA:289,0,1,-
BRDA:292,0,0,-
BRDA:292,0,1,-
BRDA:295,0,0,-
BRDA:295,0,1,-
BRDA:296,0,0,-
BRDA:296,0,1,-
BRDA:299,0,0,-
BRDA:299,0,1,-
BRDA:301,0,0,-
BRDA:301,0,1,-
BRDA:302,0,0,-
BRDA:302,0,1,-
BRDA:303,0,0,-
BRDA:303,0,1,-
BRDA:303,0,2,-
BRDA:303,0,3,-
BRDA:306,0,0,-
BRDA:306,0,1,-
BRDA:306,0,2,-
BRDA:306,0,3,-
BRDA:306,0,4,-
BRDA:306,0,5,-
BRDA:310,0,0,-
BRDA:310,0,1,-
BRDA:311,0,0,0
BRDA:311,0,1,0
BRDA:311,0,2,0
BRDA:311,0,3,0
BRDA:319,0,0,-
BRDA:319,0,1,-
BRDA:320,0,0,-
BRDA:320,0,1,-
BRDA:321,0,0,-
BRDA:321,0,1,-
BRDA:321,0,2,-
BRDA:321,0,3,-
BRDA:327,0,0,-
BRDA:327,0,1,-
BRDA:329,0,0,-
BRDA:329,0,1,-
BRDA:329,0,2,-
BRDA:329,0,3,-
BRDA:333,0,0,-
BRDA:333,0,1,-
BRDA:335,0,0,-
BRDA:335,0,1,-
BRDA:336,0,0,-
BRDA:336,0,1,-
BRDA:337,0,0,-
BRDA:337,0,1,-
BRDA:337,0,2,-
BRDA:337,0,3,-
BRDA:342,0,0,-
BRDA:342,0,1,-
BRDA:343,0,0,-
BRDA:343,0,1,-
BRDA:344,0,0,-
BRDA:344,0,1,-
BRDA:344,0,2,-
BRDA:344,0,3,-
BRDA:348,0,0,-
BRDA:348,0,1,-
BRDA:349,0,0,-
BRDA:349,0,1,-
BRDA:349,0,2,-
BRDA:349,0,3,-
BRDA:350,0,0,-
BRDA:350,0,1,-
BRDA:350,0,2,-
BRDA:350,0,3,-
BRDA:353,0,0,-
BRDA:353,0,1,-
BRDA:354,0,0,-
BRDA:354,0,1,-
BRDA:355,0,0,-
BRDA:355,0,1,-
BRDA:355,0,2,-
BRDA:355,0,3,-
BRDA:359,0,0,-
BRDA:359,0,1,-
BRDA:360,0,0,0
BRDA:360,0,1,0
BRDA:360,0,2,0
BRDA:360,0,3,0
BRF:410
BRH:0
DA:18,0
DA:20,0
DA:21,0
DA:23,0
DA:24,0
DA:25,0
DA:26,0
DA:29,0
DA:30,0
DA:32,0
DA:33,0
DA:34,0
DA:37,0
DA:40,0
DA:41,0
DA:44,0
DA:45,0
DA:46,0
DA:48,0
DA:50,0
DA:51,0
DA:53,0
DA:57,0
DA:58,0
DA:60,0
DA:61,0
DA:62,0
DA:65,0
DA:66,0
DA:67,0
DA:68,0
DA:69,0
DA:72,0
DA:75,0
DA:78,0
DA:79,0
DA:80,0
DA:81,0
DA:84,0
DA:85,0
DA:88,0
DA:89,0
DA:90,0
DA:93,0
DA:94,0
DA:95,0
DA:96,0
DA:97,0
DA:100,0
DA:101,0
DA:102,0
DA:104,0
DA:107,0
DA:108,0
DA:109,0
DA:110,0
DA:114,0
DA:115,0
DA:116,0
DA:117,0
DA:118,0
DA:121,0
DA:122,0
DA:123,0
DA:125,0
DA:127,0
DA:130,0
DA:132,0
DA:133,0
DA:134,0
DA:135,0
DA:136,0
DA:140,0
DA:141,0
DA:142,0
DA:145,0
DA:146,0
DA:148,0
DA:149,0
DA:150,0
DA:153,0
DA:154,0
DA:155,0
DA:156,0
DA:158,0
DA:159,0
DA:160,0
DA:162,0
DA:163,0
DA:164,0
DA:165,0
DA:166,0
DA:167,0
DA:168,0
DA:169,0
DA:170,0
DA:171,0
DA:173,0
DA:174,0
DA:175,0
DA:177,0
DA:178,0
DA:179,0
DA:181,0
DA:182,0
DA:183,0
DA:184,0
DA:187,0
DA:188,0
DA:191,0
DA:192,0
DA:194,0
DA:195,0
DA:196,0
DA:197,0
DA:200,0
DA:201,0
DA:204,0
DA:206,0
DA:207,0
DA:210,0
DA:211,0
DA:213,0
DA:214,0
DA:215,0
DA:218,0
DA:219,0
DA:220,0
DA:221,0
DA:222,0
DA:224,0
DA:225,0
DA:227,0
DA:229,0
DA:230,0
DA:231,0
DA:233,0
DA:234,0
DA:235,0
DA:236,0
DA:238,0
DA:240,0
DA:242,0
DA:244,0
DA:245,0
DA:246,0
DA:247,0
DA:250,0
DA:254,0
DA:255,0
DA:256,0
DA:257,0
DA:258,0
DA:261,0
DA:262,0
DA:263,0
DA:264,0
DA:266,0
DA:267,0
DA:268,0
DA:269,0
DA:270,0
DA:272,0
DA:274,0
DA:276,0
DA:277,0
DA:278,0
DA:279,0
DA:282,0
DA:286,0
DA:287,0
DA:288,0
DA:289,0
DA:291,0
DA:292,0
DA:293,0
DA:294,0
DA:295,0
DA:296,0
DA:297,0
DA:299,0
DA:301,0
DA:302,0
DA:303,0
DA:304,0
DA:306,0
DA:308,0
DA:310,0
DA:311,0
DA:312,0
DA:313,0
DA:316,0
DA:319,0
DA:320,0
DA:321,0
DA:322,0
DA:325,0
DA:326,0
DA:327,0
DA:329,0
DA:333,0
DA:334,0
DA:335,0
DA:336,0
DA:337,0
DA:338,0
DA:341,0
DA:342,0
DA:343,0
DA:344,0
DA:345,0
DA:348,0
DA:349,0
DA:350,0
DA:353,0
DA:354,0
DA:355,0
DA:357,0
DA:359,0
DA:360,0
DA:361,0
DA:362,0
LF:222
LH:0
end_of_record
TN:
SF:/home/xucong/caicAD/01datainfra/Aurora/aurora-edge-runtime/src/data_collection/uploader/common/file_splitter.hpp
FN:27,_ZN6aurora9collector12FileSplitterC2ERKNSt7__cxx1112basic_stringIcSt11char_traitsIcESaIcEEEm
FN:45,_ZNK6aurora9collector12FileSplitter12getErrorCodeEv
FN:50,_ZNK6aurora9collector12FileSplitter13getChunkCountEv
FN:55,_ZNK6aurora9collector12FileSplitter11getFileSizeEv
FN:60,_ZNK6aurora9collector12FileSplitter12getChunkDataEiRSt6vectorIcSaIcEE
FNDA:0,_ZNK6aurora9collector12FileSplitter12getErrorCodeEv
FNDA:0,_ZN6aurora9collector12FileSplitterC2ERKNSt7__cxx1112basic_stringIcSt11char_traitsIcESaIcEEEm
FNDA:0,_ZNK6aurora9collector12FileSplitter13getChunkCountEv
FNDA:0,_ZNK6aurora9collector12FileSplitter12getChunkDataEiRSt6vectorIcSaIcEE
FNDA:0,_ZNK6aurora9collector12FileSplitter11getFileSizeEv
FNF:5
FNH:0
BRDA:31,0,0,-
BRDA:31,0,1,-
BRDA:32,0,0,-
BRDA:32,0,1,-
BRDA:32,0,2,-
BRDA:32,0,3,-
BRDA:34,0,0,-
BRDA:34,0,1,-
BRDA:34,0,2,-
BRDA:34,0,3,-
BRDA:37,0,0,-
BRDA:37,0,1,-
BRDA:38,0,0,-
BRDA:38,0,1,-
BRDA:40,0,0,-
BRDA:40,0,1,-
BRDA:40,0,2,-
BRDA:40,0,3,-
BRDA:42,0,0,-
BRDA:42,0,1,-
BRDA:62,0,0,-
BRDA:62,0,1,-
BRDA:62,0,2,-
BRDA:62,0,3,-
BRDA:63,0,0,-
BRDA:63,0,1,-
BRDA:63,0,2,-
BRDA:63,0,3,-
BRDA:64,0,0,-
BRDA:64,0,1,-
BRDA:64,0,2,-
BRDA:64,0,3,-
BRDA:68,0,0,-
BRDA:68,0,1,-
BRDA:69,0,0,-
BRDA:69,0,1,-
BRDA:69,0,2,-
BRDA:69,0,3,-
BRDA:70,0,0,-
BRDA:70,0,1,-
BRDA:70,0,2,-
BRDA:70,0,3,-
BRDA:76,0,0,-
BRDA:76,0,1,-
BRDA:77,0,0,-
BRDA:77,0,1,-
BRDA:77,0,2,-
BRDA:77,0,3,-
BRDA:80,0,0,-
BRDA:80,0,1,-
BRDA:81,0,0,-
BRDA:81,0,1,-
BRDA:81,0,2,-
BRDA:81,0,3,-
BRDA:82,0,0,-
BRDA:82,0,1,-
BRDA:82,0,2,-
BRDA:82,0,3,-
BRDA:87,0,0,-
BRDA:87,0,1,-
BRDA:88,0,0,-
BRDA:88,0,1,-
BRDA:89,0,0,-
BRDA:89,0,1,-
BRDA:89,0,2,-
BRDA:89,0,3,-
BRDA:89,0,4,-
BRDA:89,0,5,-
BRDA:89,0,6,-
BRDA:89,0,7,-
BRDA:89,0,8,-
BRDA:89,0,9,-
BRDA:90,0,0,-
BRDA:90,0,1,-
BRDA:90,0,2,-
BRDA:90,0,3,-
BRF:76
BRH:0
DA:27,0
DA:28,0
DA:29,0
DA:31,0
DA:32,0
DA:33,0
DA:34,0
DA:35,0
DA:37,0
DA:38,0
DA:39,0
DA:40,0
DA:41,0
DA:42,0
DA:45,0
DA:46,0
DA:50,0
DA:51,0
DA:55,0
DA:56,0
DA:60,0
DA:61,0
DA:62,0
DA:63,0
DA:64,0
DA:65,0
DA:68,0
DA:69,0
DA:70,0
DA:71,0
DA:75,0
DA:76,0
DA:77,0
DA:80,0
DA:81,0
DA:82,0
DA:83,0
DA:87,0
DA:88,0
DA:89,0
DA:90,0
DA:91,0
DA:94,0
DA:95,0
LF:44
LH:0
end_of_record
TN:
SF:/home/xucong/caicAD/01datainfra/Aurora/aurora-edge-runtime/src/data_collection/uploader/common/filestatus_manager.cpp
FN:8,_ZN6aurora9collector17FileStatusManagerC2ERKNSt7__cxx1112basic_stringIcSt11char_traitsIcESaIcEEE
FN:14,_ZN6aurora9collector17FileStatusManager13AddFileRecordERKNSt7__cxx1112basic_stringIcSt11char_traitsIcESaIcEEERKNS0_16FileUploadRecordE
FN:20,_ZN6aurora9collector17FileStatusManager16DeleteFileRecordERKNSt7__cxx1112basic_stringIcSt11char_traitsIcESaIcEEE
FN:30,_ZN6aurora9collector17FileStatusManager20UpdateFileStartChunkERKNSt7__cxx1112basic_stringIcSt11char_traitsIcESaIcEEEi
FN:40,_ZN6aurora9collector17FileStatusManager13GetFileRecordERKNSt7__cxx1112basic_stringIcSt11char_traitsIcESaIcEEE
FN:64,_ZN6aurora9collector17FileStatusManager10SaveToFileEv
FN:82,_ZN6aurora9collector17FileStatusManager23ConvertFileRecordToJsonB5cxx11ERKNS0_16FileUploadRecordE
FN:97,_ZN6aurora9collector17FileStatusManager16LoadWithRecoveryEv
FN:114,_ZN6aurora9collector17FileStatusManager20TryRecoverFromBackupEv
FN:130,_ZN6aurora9collector17FileStatusManager12LoadFromFileERKNSt7__cxx1112basic_stringIcSt11char_traitsIcESaIcEEE
FN:147,_ZN6aurora9collector17FileStatusManager13CreateNewFileEv
FN:156,_ZN6aurora9collector17FileStatusManager11WriteToFileERKNSt7__cxx1112basic_stringIcSt11char_traitsIcESaIcEEERKN8nlohmann10basic_jsonISt3mapSt6vectorS7_blmdSaNSA_14adl_serializerEEE
FNDA:0,_ZN6aurora9collector17FileStatusManager10SaveToFileEv
FNDA:0,_ZN6aurora9collector17FileStatusManager12LoadFromFileERKNSt7__cxx1112basic_stringIcSt11char_traitsIcESaIcEEE
FNDA:0,_ZN6aurora9collector17FileStatusManager11WriteToFileERKNSt7__cxx1112basic_stringIcSt11char_traitsIcESaIcEEERKN8nlohmann10basic_jsonISt3mapSt6vectorS7_blmdSaNSA_14adl_serializerEEE
FNDA:0,_ZN6aurora9collector17FileStatusManager20UpdateFileStartChunkERKNSt7__cxx1112basic_stringIcSt11char_traitsIcESaIcEEEi
FNDA:0,_ZN6aurora9collector17FileStatusManager13CreateNewFileEv
FNDA:0,_ZN6aurora9collector17FileStatusManager23ConvertFileRecordToJsonB5cxx11ERKNS0_16FileUploadRecordE
FNDA:0,_ZN6aurora9collector17FileStatusManager16LoadWithRecoveryEv
FNDA:0,_ZN6aurora9collector17FileStatusManager20TryRecoverFromBackupEv
FNDA:0,_ZN6aurora9collector17FileStatusManager13AddFileRecordERKNSt7__cxx1112basic_stringIcSt11char_traitsIcESaIcEEERKNS0_16FileUploadRecordE
FNDA:0,_ZN6aurora9collector17FileStatusManager16DeleteFileRecordERKNSt7__cxx1112basic_stringIcSt11char_traitsIcESaIcEEE
FNDA:0,_ZN6aurora9collector17FileStatusManager13GetFileRecordERKNSt7__cxx1112basic_stringIcSt11char_traitsIcESaIcEEE
FNDA:0,_ZN6aurora9collector17FileStatusManagerC2ERKNSt7__cxx1112basic_stringIcSt11char_traitsIcESaIcEEE
FNF:12
FNH:0
BRDA:9,0,0,-
BRDA:9,0,1,-
BRDA:9,0,2,-
BRDA:9,0,3,-
BRDA:10,0,0,-
BRDA:10,0,1,-
BRDA:11,0,0,-
BRDA:11,0,1,-
BRDA:15,0,0,-
BRDA:15,0,1,-
BRDA:16,0,0,-
BRDA:16,0,1,-
BRDA:16,0,2,-
BRDA:16,0,3,-
BRDA:17,0,0,-
BRDA:17,0,1,-
BRDA:21,0,0,-
BRDA:21,0,1,-
BRDA:22,0,0,-
BRDA:22,0,1,-
BRDA:22,0,2,-
BRDA:22,0,3,-
BRDA:23,0,0,-
BRDA:23,0,1,-
BRDA:23,0,2,-
BRDA:23,0,3,-
BRDA:26,0,0,-
BRDA:26,0,1,-
BRDA:27,0,0,-
BRDA:27,0,1,-
BRDA:31,0,0,-
BRDA:31,0,1,-
BRDA:32,0,0,-
BRDA:32,0,1,-
BRDA:32,0,2,-
BRDA:32,0,3,-
BRDA:33,0,0,-
BRDA:33,0,1,-
BRDA:33,0,2,-
BRDA:33,0,3,-
BRDA:36,0,0,-
BRDA:36,0,1,-
BRDA:36,0,2,-
BRDA:36,0,3,-
BRDA:37,0,0,-
BRDA:37,0,1,-
BRDA:41,0,0,-
BRDA:41,0,1,-
BRDA:42,0,0,-
BRDA:42,0,1,-
BRDA:42,0,2,-
BRDA:42,0,3,-
BRDA:43,0,0,-
BRDA:43,0,1,-
BRDA:43,0,2,-
BRDA:43,0,3,-
BRDA:48,0,0,-
BRDA:48,0,1,-
BRDA:48,0,2,-
BRDA:48,0,3,-
BRDA:48,0,4,-
BRDA:48,0,5,-
BRDA:49,0,0,-
BRDA:49,0,1,-
BRDA:49,0,2,-
BRDA:49,0,3,-
BRDA:49,0,4,-
BRDA:49,0,5,-
BRDA:50,0,0,-
BRDA:50,0,1,-
BRDA:50,0,2,-
BRDA:50,0,3,-
BRDA:50,0,4,-
BRDA:50,0,5,-
BRDA:51,0,0,-
BRDA:51,0,1,-
BRDA:51,0,2,-
BRDA:51,0,3,-
BRDA:51,0,4,-
BRDA:51,0,5,-
BRDA:52,0,0,-
BRDA:52,0,1,-
BRDA:52,0,2,-
BRDA:52,0,3,-
BRDA:52,0,4,-
BRDA:52,0,5,-
BRDA:52,0,6,-
BRDA:52,0,7,-
BRDA:53,0,0,-
BRDA:53,0,1,-
BRDA:53,0,2,-
BRDA:53,0,3,-
BRDA:53,0,4,-
BRDA:53,0,5,-
BRDA:56,0,0,0
BRDA:56,0,1,0
BRDA:57,0,0,0
BRDA:57,0,1,0
BRDA:57,0,2,0
BRDA:57,0,3,0
BRDA:60,0,0,-
BRDA:60,0,1,-
BRDA:66,0,0,-
BRDA:66,0,1,-
BRDA:67,0,0,-
BRDA:67,0,1,-
BRDA:67,0,2,-
BRDA:67,0,3,-
BRDA:67,0,4,-
BRDA:67,0,5,-
BRDA:68,0,0,-
BRDA:68,0,1,-
BRDA:68,0,2,-
BRDA:68,0,3,-
BRDA:68,0,4,-
BRDA:68,0,5,-
BRDA:69,0,0,-
BRDA:69,0,1,-
BRDA:69,0,2,-
BRDA:69,0,3,-
BRDA:71,0,0,-
BRDA:71,0,1,-
BRDA:71,0,2,-
BRDA:71,0,3,-
BRDA:71,0,4,-
BRDA:71,0,5,-
BRDA:72,0,0,-
BRDA:72,0,1,-
BRDA:72,0,2,-
BRDA:72,0,3,-
BRDA:74,0,0,0
BRDA:74,0,1,0
BRDA:75,0,0,0
BRDA:75,0,1,0
BRDA:75,0,2,0
BRDA:75,0,3,0
BRDA:84,0,0,-
BRDA:84,0,1,-
BRDA:85,0,0,-
BRDA:85,0,1,-
BRDA:86,0,0,-
BRDA:86,0,1,-
BRDA:86,0,2,-
BRDA:86,0,3,-
BRDA:87,0,0,-
BRDA:87,0,1,-
BRDA:87,0,2,-
BRDA:87,0,3,-
BRDA:88,0,0,-
BRDA:88,0,1,-
BRDA:88,0,2,-
BRDA:88,0,3,-
BRDA:89,0,0,-
BRDA:89,0,1,-
BRDA:90,0,0,-
BRDA:90,0,1,-
BRDA:90,0,2,-
BRDA:90,0,3,-
BRDA:90,0,4,-
BRDA:90,0,5,-
BRDA:90,0,6,-
BRDA:90,0,7,-
BRDA:99,0,0,-
BRDA:99,0,1,-
BRDA:99,0,2,-
BRDA:99,0,3,-
BRDA:99,0,4,-
BRDA:99,0,5,-
BRDA:100,0,0,-
BRDA:100,0,1,-
BRDA:101,0,0,-
BRDA:101,0,1,-
BRDA:101,0,2,-
BRDA:101,0,3,-
BRDA:104,0,0,0
BRDA:104,0,1,0
BRDA:105,0,0,0
BRDA:105,0,1,0
BRDA:105,0,2,0
BRDA:105,0,3,0
BRDA:106,0,0,0
BRDA:106,0,1,0
BRDA:106,0,2,0
BRDA:106,0,3,0
BRDA:109,0,0,0
BRDA:109,0,1,0
BRDA:111,0,0,-
BRDA:111,0,1,-
BRDA:116,0,0,-
BRDA:116,0,1,-
BRDA:116,0,2,-
BRDA:116,0,3,-
BRDA:116,0,4,-
BRDA:116,0,5,-
BRDA:117,0,0,-
BRDA:117,0,1,-
BRDA:118,0,0,-
BRDA:118,0,1,-
BRDA:119,0,0,-
BRDA:119,0,1,-
BRDA:119,0,2,-
BRDA:119,0,3,-
BRDA:122,0,0,0
BRDA:122,0,1,0
BRDA:123,0,0,0
BRDA:123,0,1,0
BRDA:123,0,2,0
BRDA:123,0,3,0
BRDA:124,0,0,0
BRDA:124,0,1,0
BRDA:124,0,2,0
BRDA:124,0,3,0
BRDA:132,0,0,-
BRDA:132,0,1,-
BRDA:133,0,0,-
BRDA:133,0,1,-
BRDA:133,0,2,-
BRDA:133,0,3,-
BRDA:134,0,0,-
BRDA:134,0,1,-
BRDA:134,0,2,-
BRDA:134,0,3,-
BRDA:135,0,0,-
BRDA:135,0,1,-
BRDA:135,0,2,-
BRDA:135,0,3,-
BRDA:137,0,0,-
BRDA:137,0,1,-
BRDA:138,0,0,-
BRDA:138,0,1,-
BRDA:138,0,2,-
BRDA:138,0,3,-
BRDA:139,0,0,-
BRDA:139,0,1,-
BRDA:139,0,2,-
BRDA:139,0,3,-
BRDA:139,0,4,-
BRDA:139,0,5,-
BRDA:140,0,0,-
BRDA:140,0,1,-
BRDA:141,0,0,0
BRDA:141,0,1,0
BRDA:141,0,2,0
BRDA:141,0,3,0
BRDA:142,0,0,0
BRDA:142,0,1,0
BRDA:142,0,2,0
BRDA:142,0,3,0
BRDA:142,0,4,0
BRDA:142,0,5,0
BRDA:150,0,0,-
BRDA:150,0,1,-
BRDA:150,0,2,-
BRDA:150,0,3,-
BRDA:151,0,0,-
BRDA:151,0,1,-
BRDA:157,0,0,-
BRDA:157,0,1,-
BRDA:158,0,0,-
BRDA:158,0,1,-
BRDA:158,0,2,-
BRDA:158,0,3,-
BRDA:159,0,0,-
BRDA:159,0,1,-
BRDA:159,0,2,-
BRDA:159,0,3,-
BRDA:160,0,0,-
BRDA:160,0,1,-
BRDA:160,0,2,-
BRDA:160,0,3,-
BRDA:163,0,0,-
BRDA:163,0,1,-
BRDA:163,0,2,-
BRDA:163,0,3,-
BRDA:163,0,4,-
BRDA:163,0,5,-
BRDA:164,0,0,-
BRDA:164,0,1,-
BRDA:165,0,0,-
BRDA:165,0,1,-
BRDA:165,0,2,-
BRDA:165,0,3,-
BRDA:166,0,0,-
BRDA:166,0,1,-
BRDA:166,0,2,-
BRDA:166,0,3,-
BRDA:167,0,0,-
BRDA:167,0,1,-
BRDA:167,0,2,-
BRDA:167,0,3,-
BRDA:169,0,0,-
BRDA:169,0,1,-
BRF:292
BRH:0
DA:8,0
DA:9,0
DA:10,0
DA:11,0
DA:12,0
DA:14,0
DA:15,0
DA:16,0
DA:17,0
DA:18,0
DA:20,0
DA:21,0
DA:22,0
DA:23,0
DA:24,0
DA:26,0
DA:27,0
DA:28,0
DA:30,0
DA:31,0
DA:32,0
DA:33,0
DA:34,0
DA:36,0
DA:37,0
DA:38,0
DA:40,0
DA:41,0
DA:42,0
DA:43,0
DA:44,0
DA:46,0
DA:48,0
DA:49,0
DA:50,0
DA:51,0
DA:52,0
DA:53,0
DA:54,0
DA:56,0
DA:57,0
DA:58,0
DA:59,0
DA:60,0
DA:61,0
DA:64,0
DA:66,0
DA:67,0
DA:68,0
DA:69,0
DA:71,0
DA:72,0
DA:73,0
DA:74,0
DA:75,0
DA:76,0
DA:77,0
DA:82,0
DA:83,0
DA:84,0
DA:85,0
DA:86,0
DA:87,0
DA:88,0
DA:89,0
DA:90,0
DA:93,0
DA:94,0
DA:97,0
DA:99,0
DA:100,0
DA:101,0
DA:102,0
DA:104,0
DA:105,0
DA:106,0
DA:107,0
DA:109,0
DA:110,0
DA:111,0
DA:114,0
DA:116,0
DA:117,0
DA:118,0
DA:119,0
DA:120,0
DA:122,0
DA:123,0
DA:124,0
DA:125,0
DA:126,0
DA:130,0
DA:132,0
DA:133,0
DA:134,0
DA:135,0
DA:137,0
DA:138,0
DA:139,0
DA:140,0
DA:141,0
DA:142,0
DA:143,0
DA:147,0
DA:148,0
DA:149,0
DA:150,0
DA:151,0
DA:153,0
DA:156,0
DA:157,0
DA:158,0
DA:159,0
DA:160,0
DA:163,0
DA:164,0
DA:165,0
DA:166,0
DA:167,0
DA:169,0
DA:170,0
LF:121
LH:0
end_of_record
TN:
SF:/home/xucong/caicAD/01datainfra/Aurora/aurora-edge-runtime/src/data_collection/uploader/common/filestatus_manager.h
FN:26,_ZN6aurora9collector19FileStatusExceptionC2ENS1_9ErrorTypeERKNSt7__cxx1112basic_stringIcSt11char_traitsIcESaIcEEESA_
FNDA:0,_ZN6aurora9collector19FileStatusExceptionC2ENS1_9ErrorTypeERKNSt7__cxx1112basic_stringIcSt11char_traitsIcESaIcEEESA_
FNF:1
FNH:0
BRDA:27,0,0,-
BRDA:27,0,1,-
BRF:2
BRH:0
DA:26,0
DA:27,0
LF:2
LH:0
end_of_record
TN:
SF:/home/xucong/caicAD/01datainfra/Aurora/aurora-edge-runtime/src/data_collection/uploader/data_encryption.cpp
FN:18,_ZN6aurora9collector14DataEncryptionD0Ev
FN:18,_ZN6aurora9collector14DataEncryptionD2Ev
FN:22,_ZN6aurora9collector14DataEncryption9free_keysEv
FN:28,_ZN6aurora9collector14DataEncryption4InitERKNSt7__cxx1112basic_stringIcSt11char_traitsIcESaIcEEES9_S9_
FN:56,_ZN6aurora9collector14DataEncryption5StartEv
FN:63,_ZN6aurora9collector14DataEncryption13GetFolderNameERNSt7__cxx1112basic_stringIcSt11char_traitsIcESaIcEEE
FN:86,_ZN6aurora9collector14DataEncryption12LoadFileListEv
FN:107,_ZN6aurora9collector14DataEncryption3RunEv
FN:118,_ZN6aurora9collector14DataEncryption12ProcessQueueEv
FN:153,_ZN6aurora9collector14DataEncryption4StopEv
FN:160,_ZN6aurora9collector14DataEncryption16load_private_keyERKNSt7__cxx1112basic_stringIcSt11char_traitsIcESaIcEEE
FN:177,_ZN6aurora9collector14DataEncryption11aes_encryptERKSt6vectorIhSaIhEE
FN:214,_ZN6aurora9collector14DataEncryption9print_hexERKNSt7__cxx1112basic_stringIcSt11char_traitsIcESaIcEEEPKhm
FN:229,_ZN6aurora9collector14DataEncryption11rsa_encryptERKNSt7__cxx1112basic_stringIcSt11char_traitsIcESaIcEEE
FN:263,_ZN6aurora9collector14DataEncryption23EncryptDataWithEnvelopeERKNSt7__cxx1112basic_stringIcSt11char_traitsIcESaIcEEERS7_
FN:304,_ZN6aurora9collector14DataEncryption17rsa_chunk_encryptERSt14basic_ifstreamIcSt11char_traitsIcEERSt14basic_ofstreamIcS4_E
FN:306,_ZZN6aurora9collector14DataEncryption17rsa_chunk_encryptERSt14basic_ifstreamIcSt11char_traitsIcEERSt14basic_ofstreamIcS4_EEN15EVP_CTX_DeleterclEP17evp_cipher_ctx_st
FN:352,_ZN6aurora9collector14DataEncryption23EncryptFileWithEnvelopeERKNSt7__cxx1112basic_stringIcSt11char_traitsIcESaIcEEES9_
FN:385,_ZN6aurora9collector14DataEncryption23DecryptFileWithEnvelopeERKNSt7__cxx1112basic_stringIcSt11char_traitsIcESaIcEEES9_
FN:456,_ZN6aurora9collector14DataEncryption28EncryptChunkFileWithEnvelopeERKNSt7__cxx1112basic_stringIcSt11char_traitsIcESaIcEEES9_
FN:512,_ZN6aurora9collector14DataEncryption22combine_encrypted_dataERKSt6vectorIhSaIhEES6_
FNDA:0,_ZN6aurora9collector14DataEncryption9print_hexERKNSt7__cxx1112basic_stringIcSt11char_traitsIcESaIcEEEPKhm
FNDA:0,_ZN6aurora9collector14DataEncryption12ProcessQueueEv
FNDA:0,_ZN6aurora9collector14DataEncryption22combine_encrypted_dataERKSt6vectorIhSaIhEES6_
FNDA:0,_ZN6aurora9collector14DataEncryption23EncryptDataWithEnvelopeERKNSt7__cxx1112basic_stringIcSt11char_traitsIcESaIcEEERS7_
FNDA:0,_ZN6aurora9collector14DataEncryption12LoadFileListEv
FNDA:0,_ZN6aurora9collector14DataEncryption28EncryptChunkFileWithEnvelopeERKNSt7__cxx1112basic_stringIcSt11char_traitsIcESaIcEEES9_
FNDA:0,_ZN6aurora9collector14DataEncryption5StartEv
FNDA:0,_ZN6aurora9collector14DataEncryption4InitERKNSt7__cxx1112basic_stringIcSt11char_traitsIcESaIcEEES9_S9_
FNDA:0,_ZN6aurora9collector14DataEncryption23DecryptFileWithEnvelopeERKNSt7__cxx1112basic_stringIcSt11char_traitsIcESaIcEEES9_
FNDA:16,_ZN6aurora9collector14DataEncryption11aes_encryptERKSt6vectorIhSaIhEE
FNDA:16,_ZN6aurora9collector14DataEncryption9free_keysEv
FNDA:0,_ZN6aurora9collector14DataEncryption13GetFolderNameERNSt7__cxx1112basic_stringIcSt11char_traitsIcESaIcEEE
FNDA:0,_ZN6aurora9collector14DataEncryption23EncryptFileWithEnvelopeERKNSt7__cxx1112basic_stringIcSt11char_traitsIcESaIcEEES9_
FNDA:0,_ZN6aurora9collector14DataEncryption3RunEv
FNDA:0,_ZZN6aurora9collector14DataEncryption17rsa_chunk_encryptERSt14basic_ifstreamIcSt11char_traitsIcEERSt14basic_ofstreamIcS4_EEN15EVP_CTX_DeleterclEP17evp_cipher_ctx_st
FNDA:11,_ZN6aurora9collector14DataEncryptionD0Ev
FNDA:0,_ZN6aurora9collector14DataEncryption16load_private_keyERKNSt7__cxx1112basic_stringIcSt11char_traitsIcESaIcEEE
FNDA:0,_ZN6aurora9collector14DataEncryption4StopEv
FNDA:16,_ZN6aurora9collector14DataEncryptionD2Ev
FNDA:0,_ZN6aurora9collector14DataEncryption17rsa_chunk_encryptERSt14basic_ifstreamIcSt11char_traitsIcEERSt14basic_ofstreamIcS4_E
FNDA:0,_ZN6aurora9collector14DataEncryption11rsa_encryptERKNSt7__cxx1112basic_stringIcSt11char_traitsIcESaIcEEE
FNF:21
FNH:4
BRDA:23,0,0,0
BRDA:23,0,1,16
BRDA:24,0,0,0
BRDA:24,0,1,16
BRDA:36,0,0,-
BRDA:36,0,1,-
BRDA:45,0,0,-
BRDA:45,0,1,-
BRDA:58,0,0,-
BRDA:58,0,1,-
BRDA:78,0,0,-
BRDA:78,0,1,-
BRDA:79,0,0,-
BRDA:79,0,1,-
BRDA:81,0,0,-
BRDA:81,0,1,-
BRDA:87,0,0,-
BRDA:87,0,1,-
BRDA:89,0,0,-
BRDA:89,0,1,-
BRDA:90,0,0,-
BRDA:90,0,1,-
BRDA:90,0,2,-
BRDA:90,0,3,-
BRDA:91,0,0,-
BRDA:91,0,1,-
BRDA:92,0,0,-
BRDA:92,0,1,-
BRDA:92,0,2,-
BRDA:92,0,3,-
BRDA:93,0,0,-
BRDA:93,0,1,-
BRDA:93,0,2,-
BRDA:93,0,3,-
BRDA:94,0,0,-
BRDA:94,0,1,-
BRDA:94,0,2,-
BRDA:94,0,3,-
BRDA:95,0,0,-
BRDA:95,0,1,-
BRDA:95,0,2,-
BRDA:95,0,3,-
BRDA:98,0,0,-
BRDA:98,0,1,-
BRDA:98,0,2,-
BRDA:98,0,3,-
BRDA:98,0,4,-
BRDA:98,0,5,-
BRDA:98,0,6,-
BRDA:98,0,7,-
BRDA:99,0,0,-
BRDA:99,0,1,-
BRDA:99,0,2,-
BRDA:99,0,3,-
BRDA:99,0,4,-
BRDA:99,0,5,-
BRDA:99,0,6,-
BRDA:99,0,7,-
BRDA:99,0,8,-
BRDA:99,0,9,-
BRDA:99,0,10,-
BRDA:99,0,11,-
BRDA:99,0,12,-
BRDA:99,0,13,-
BRDA:99,0,14,-
BRDA:99,0,15,-
BRDA:99,0,16,-
BRDA:99,0,17,-
BRDA:99,0,18,-
BRDA:99,0,19,-
BRDA:99,0,20,-
BRDA:99,0,21,-
BRDA:99,0,22,-
BRDA:99,0,23,-
BRDA:99,0,24,-
BRDA:99,0,25,-
BRDA:99,0,26,-
BRDA:99,0,27,-
BRDA:99,0,28,-
BRDA:99,0,29,-
BRDA:99,0,30,-
BRDA:99,0,31,-
BRDA:100,0,0,-
BRDA:100,0,1,-
BRDA:100,0,2,-
BRDA:100,0,3,-
BRDA:103,0,0,-
BRDA:103,0,1,-
BRDA:104,0,0,-
BRDA:104,0,1,-
BRDA:104,0,2,-
BRDA:104,0,3,-
BRDA:108,0,0,-
BRDA:108,0,1,-
BRDA:109,0,0,-
BRDA:109,0,1,-
BRDA:110,0,0,-
BRDA:110,0,1,-
BRDA:111,0,0,-
BRDA:111,0,1,-
BRDA:112,0,0,-
BRDA:112,0,1,-
BRDA:113,0,0,-
BRDA:113,0,1,-
BRDA:119,0,0,-
BRDA:119,0,1,-
BRDA:122,0,0,-
BRDA:122,0,1,-
BRDA:123,0,0,-
BRDA:123,0,1,-
BRDA:124,0,0,-
BRDA:124,0,1,-
BRDA:124,0,2,-
BRDA:124,0,3,-
BRDA:127,0,0,-
BRDA:127,0,1,-
BRDA:129,0,0,-
BRDA:129,0,1,-
BRDA:131,0,0,-
BRDA:131,0,1,-
BRDA:132,0,0,-
BRDA:132,0,1,-
BRDA:132,0,2,-
BRDA:132,0,3,-
BRDA:132,0,4,-
BRDA:132,0,5,-
BRDA:132,0,6,-
BRDA:132,0,7,-
BRDA:132,0,8,-
BRDA:132,0,9,-
BRDA:135,0,0,-
BRDA:135,0,1,-
BRDA:135,0,2,-
BRDA:135,0,3,-
BRDA:135,0,4,-
BRDA:135,0,5,-
BRDA:137,0,0,-
BRDA:137,0,1,-
BRDA:138,0,0,-
BRDA:138,0,1,-
BRDA:138,0,2,-
BRDA:138,0,3,-
BRDA:140,0,0,-
BRDA:140,0,1,-
BRDA:141,0,0,-
BRDA:141,0,1,-
BRDA:141,0,2,-
BRDA:141,0,3,-
BRDA:142,0,0,-
BRDA:142,0,1,-
BRDA:143,0,0,-
BRDA:143,0,1,-
BRDA:145,0,0,-
BRDA:145,0,1,-
BRDA:146,0,0,-
BRDA:146,0,1,-
BRDA:146,0,2,-
BRDA:146,0,3,-
BRDA:147,0,0,-
BRDA:147,0,1,-
BRDA:148,0,0,-
BRDA:148,0,1,-
BRDA:150,0,0,-
BRDA:150,0,1,-
BRDA:154,0,0,-
BRDA:154,0,1,-
BRDA:162,0,0,-
BRDA:162,0,1,-
BRDA:170,0,0,-
BRDA:170,0,1,-
BRDA:178,0,0,0
BRDA:178,0,1,16
BRDA:178,0,2,0
BRDA:178,0,3,0
BRDA:178,0,4,16
BRDA:178,0,5,0
BRDA:180,0,0,-
BRDA:180,0,1,-
BRDA:181,0,0,-
BRDA:181,0,1,-
BRDA:184,0,0,-
BRDA:184,0,1,-
BRDA:184,0,2,-
BRDA:184,0,3,-
BRDA:185,0,0,-
BRDA:185,0,1,-
BRDA:186,0,0,-
BRDA:186,0,1,-
BRDA:190,0,0,-
BRDA:190,0,1,-
BRDA:191,0,0,-
BRDA:191,0,1,-
BRDA:192,0,0,-
BRDA:192,0,1,-
BRDA:197,0,0,-
BRDA:197,0,1,-
BRDA:197,0,2,-
BRDA:197,0,3,-
BRDA:198,0,0,-
BRDA:198,0,1,-
BRDA:203,0,0,-
BRDA:203,0,1,-
BRDA:204,0,0,-
BRDA:204,0,1,-
BRDA:207,0,0,-
BRDA:207,0,1,-
BRDA:208,0,0,-
BRDA:208,0,1,-
BRDA:218,0,0,-
BRDA:218,0,1,-
BRDA:222,0,0,-
BRDA:222,0,1,-
BRDA:230,0,0,-
BRDA:230,0,1,-
BRDA:232,0,0,-
BRDA:232,0,1,-
BRDA:233,0,0,-
BRDA:233,0,1,-
BRDA:236,0,0,-
BRDA:236,0,1,-
BRDA:236,0,2,-
BRDA:236,0,3,-
BRDA:236,0,4,-
BRDA:236,0,5,-
BRDA:237,0,0,-
BRDA:237,0,1,-
BRDA:237,0,2,-
BRDA:237,0,3,-
BRDA:238,0,0,-
BRDA:238,0,1,-
BRDA:242,0,0,-
BRDA:242,0,1,-
BRDA:244,0,0,-
BRDA:244,0,1,-
BRDA:245,0,0,-
BRDA:245,0,1,-
BRDA:249,0,0,-
BRDA:249,0,1,-
BRDA:250,0,0,-
BRDA:250,0,1,-
BRDA:252,0,0,-
BRDA:252,0,1,-
BRDA:253,0,0,-
BRDA:253,0,1,-
BRDA:257,0,0,-
BRDA:257,0,1,-
BRDA:258,0,0,-
BRDA:258,0,1,-
BRDA:265,0,0,-
BRDA:265,0,1,-
BRDA:266,0,0,-
BRDA:266,0,1,-
BRDA:266,0,2,-
BRDA:266,0,3,-
BRDA:267,0,0,-
BRDA:267,0,1,-
BRDA:267,0,2,-
BRDA:267,0,3,-
BRDA:267,0,4,-
BRDA:267,0,5,-
BRDA:267,0,6,-
BRDA:267,0,7,-
BRDA:267,0,8,-
BRDA:267,0,9,-
BRDA:270,0,0,-
BRDA:270,0,1,-
BRDA:271,0,0,-
BRDA:271,0,1,-
BRDA:271,0,2,-
BRDA:271,0,3,-
BRDA:272,0,0,-
BRDA:272,0,1,-
BRDA:272,0,2,-
BRDA:272,0,3,-
BRDA:272,0,4,-
BRDA:272,0,5,-
BRDA:272,0,6,-
BRDA:272,0,7,-
BRDA:272,0,8,-
BRDA:272,0,9,-
BRDA:277,0,0,-
BRDA:277,0,1,-
BRDA:278,0,0,-
BRDA:278,0,1,-
BRDA:279,0,0,-
BRDA:279,0,1,-
BRDA:280,0,0,-
BRDA:280,0,1,-
BRDA:285,0,0,-
BRDA:285,0,1,-
BRDA:286,0,0,-
BRDA:286,0,1,-
BRDA:287,0,0,-
BRDA:287,0,1,-
BRDA:288,0,0,-
BRDA:288,0,1,-
BRDA:297,0,0,-
BRDA:297,0,1,-
BRDA:298,0,0,-
BRDA:298,0,1,-
BRDA:309,0,0,-
BRDA:309,0,1,-
BRDA:310,0,0,-
BRDA:310,0,1,-
BRDA:310,0,2,-
BRDA:310,0,3,-
BRDA:316,0,0,-
BRDA:316,0,1,-
BRDA:316,0,2,-
BRDA:316,0,3,-
BRDA:316,0,4,-
BRDA:316,0,5,-
BRDA:317,0,0,-
BRDA:317,0,1,-
BRDA:317,0,2,-
BRDA:317,0,3,-
BRDA:322,0,0,-
BRDA:322,0,1,-
BRDA:329,0,0,-
BRDA:329,0,1,-
BRDA:329,0,2,-
BRDA:329,0,3,-
BRDA:329,0,4,-
BRDA:329,0,5,-
BRDA:331,0,0,-
BRDA:331,0,1,-
BRDA:331,0,2,-
BRDA:331,0,3,-
BRDA:332,0,0,-
BRDA:332,0,1,-
BRDA:332,0,2,-
BRDA:332,0,3,-
BRDA:335,0,0,-
BRDA:335,0,1,-
BRDA:338,0,0,-
BRDA:338,0,1,-
BRDA:339,0,0,-
BRDA:339,0,1,-
BRDA:341,0,0,-
BRDA:341,0,1,-
BRDA:341,0,2,-
BRDA:341,0,3,-
BRDA:341,0,4,-
BRDA:341,0,5,-
BRDA:342,0,0,-
BRDA:342,0,1,-
BRDA:342,0,2,-
BRDA:342,0,3,-
BRDA:343,0,0,-
BRDA:343,0,1,-
BRDA:343,0,2,-
BRDA:343,0,3,-
BRDA:346,0,0,-
BRDA:346,0,1,-
BRDA:350,0,0,-
BRDA:350,0,1,-
BRDA:354,0,0,-
BRDA:354,0,1,-
BRDA:355,0,0,-
BRDA:355,0,1,-
BRDA:355,0,2,-
BRDA:355,0,3,-
BRDA:356,0,0,-
BRDA:356,0,1,-
BRDA:363,0,0,-
BRDA:363,0,1,-
BRDA:364,0,0,-
BRDA:364,0,1,-
BRDA:368,0,0,-
BRDA:368,0,1,-
BRDA:368,0,2,-
BRDA:368,0,3,-
BRDA:373,0,0,-
BRDA:373,0,1,-
BRDA:374,0,0,-
BRDA:374,0,1,-
BRDA:374,0,2,-
BRDA:374,0,3,-
BRDA:375,0,0,-
BRDA:375,0,1,-
BRDA:378,0,0,-
BRDA:378,0,1,-
BRDA:379,0,0,-
BRDA:379,0,1,-
BRDA:386,0,0,-
BRDA:386,0,1,-
BRDA:387,0,0,-
BRDA:387,0,1,-
BRDA:387,0,2,-
BRDA:387,0,3,-
BRDA:388,0,0,-
BRDA:388,0,1,-
BRDA:395,0,0,-
BRDA:395,0,1,-
BRDA:396,0,0,-
BRDA:396,0,1,-
BRDA:398,0,0,-
BRDA:398,0,1,-
BRDA:398,0,2,-
BRDA:398,0,3,-
BRDA:398,0,4,-
BRDA:398,0,5,-
BRDA:398,0,6,-
BRDA:398,0,7,-
BRDA:398,0,8,-
BRDA:398,0,9,-
BRDA:400,0,0,-
BRDA:400,0,1,-
BRDA:402,0,0,-
BRDA:402,0,1,-
BRDA:402,0,2,-
BRDA:402,0,3,-
BRDA:402,0,4,-
BRDA:402,0,5,-
BRDA:404,0,0,-
BRDA:404,0,1,-
BRDA:405,0,0,-
BRDA:405,0,1,-
BRDA:409,0,0,-
BRDA:409,0,1,-
BRDA:412,0,0,-
BRDA:412,0,1,-
BRDA:416,0,0,-
BRDA:416,0,1,-
BRDA:416,0,2,-
BRDA:416,0,3,-
BRDA:416,0,4,-
BRDA:416,0,5,-
BRDA:418,0,0,-
BRDA:418,0,1,-
BRDA:419,0,0,-
BRDA:419,0,1,-
BRDA:420,0,0,-
BRDA:420,0,1,-
BRDA:422,0,0,-
BRDA:422,0,1,-
BRDA:422,0,2,-
BRDA:422,0,3,-
BRDA:423,0,0,-
BRDA:423,0,1,-
BRDA:424,0,0,-
BRDA:424,0,1,-
BRDA:428,0,0,-
BRDA:428,0,1,-
BRDA:429,0,0,-
BRDA:429,0,1,-
BRDA:430,0,0,-
BRDA:430,0,1,-
BRDA:435,0,0,-
BRDA:435,0,1,-
BRDA:435,0,2,-
BRDA:435,0,3,-
BRDA:436,0,0,-
BRDA:436,0,1,-
BRDA:441,0,0,-
BRDA:441,0,1,-
BRDA:442,0,0,-
BRDA:442,0,1,-
BRDA:445,0,0,-
BRDA:445,0,1,-
BRDA:446,0,0,-
BRDA:446,0,1,-
BRDA:446,0,2,-
BRDA:446,0,3,-
BRDA:447,0,0,-
BRDA:447,0,1,-
BRDA:450,0,0,-
BRDA:450,0,1,-
BRDA:451,0,0,-
BRDA:451,0,1,-
BRDA:452,0,0,-
BRDA:452,0,1,-
BRDA:452,0,2,-
BRDA:452,0,3,-
BRDA:452,0,4,-
BRDA:452,0,5,-
BRDA:452,0,6,-
BRDA:452,0,7,-
BRDA:452,0,8,-
BRDA:452,0,9,-
BRDA:458,0,0,-
BRDA:458,0,1,-
BRDA:459,0,0,-
BRDA:459,0,1,-
BRDA:459,0,2,-
BRDA:459,0,3,-
BRDA:460,0,0,-
BRDA:460,0,1,-
BRDA:464,0,0,-
BRDA:464,0,1,-
BRDA:465,0,0,-
BRDA:465,0,1,-
BRDA:465,0,2,-
BRDA:465,0,3,-
BRDA:466,0,0,-
BRDA:466,0,1,-
BRDA:472,0,0,-
BRDA:472,0,1,-
BRDA:473,0,0,-
BRDA:473,0,1,-
BRDA:473,0,2,-
BRDA:473,0,3,-
BRDA:474,0,0,-
BRDA:474,0,1,-
BRDA:474,0,2,-
BRDA:474,0,3,-
BRDA:474,0,4,-
BRDA:474,0,5,-
BRDA:474,0,6,-
BRDA:474,0,7,-
BRDA:474,0,8,-
BRDA:474,0,9,-
BRDA:477,0,0,-
BRDA:477,0,1,-
BRDA:478,0,0,-
BRDA:478,0,1,-
BRDA:478,0,2,-
BRDA:478,0,3,-
BRDA:479,0,0,-
BRDA:479,0,1,-
BRDA:479,0,2,-
BRDA:479,0,3,-
BRDA:479,0,4,-
BRDA:479,0,5,-
BRDA:479,0,6,-
BRDA:479,0,7,-
BRDA:479,0,8,-
BRDA:479,0,9,-
BRDA:484,0,0,-
BRDA:484,0,1,-
BRDA:485,0,0,-
BRDA:485,0,1,-
BRDA:486,0,0,-
BRDA:486,0,1,-
BRDA:487,0,0,-
BRDA:487,0,1,-
BRDA:490,0,0,-
BRDA:490,0,1,-
BRDA:490,0,2,-
BRDA:490,0,3,-
BRDA:491,0,0,-
BRDA:491,0,1,-
BRDA:491,0,2,-
BRDA:491,0,3,-
BRDA:496,0,0,-
BRDA:496,0,1,-
BRDA:498,0,0,-
BRDA:498,0,1,-
BRDA:503,0,0,-
BRDA:503,0,1,-
BRDA:503,0,2,-
BRDA:503,0,3,-
BRDA:505,0,0,-
BRDA:505,0,1,-
BRDA:506,0,0,-
BRDA:506,0,1,-
BRDA:519,0,0,-
BRDA:519,0,1,-
BRDA:524,0,0,-
BRDA:524,0,1,-
BRDA:527,0,0,-
BRDA:527,0,1,-
BRDA:530,0,0,-
BRDA:530,0,1,-
BRF:564
BRH:4
DA:18,27
DA:19,16
DA:20,27
DA:22,16
DA:23,16
DA:24,16
DA:25,16
DA:26,16
DA:28,0
DA:29,0
DA:30,0
DA:31,0
DA:32,0
DA:33,0
DA:35,0
DA:36,0
DA:38,0
DA:40,0
DA:45,0
DA:46,0
DA:47,0
DA:50,0
DA:53,0
DA:56,0
DA:58,0
DA:60,0
DA:63,0
DA:65,0
DA:68,0
DA:72,0
DA:75,0
DA:78,0
DA:79,0
DA:81,0
DA:83,0
DA:86,0
DA:87,0
DA:88,0
DA:89,0
DA:90,0
DA:91,0
DA:92,0
DA:93,0
DA:94,0
DA:95,0
DA:96,0
DA:98,0
DA:99,0
DA:100,0
DA:102,0
DA:103,0
DA:104,0
DA:105,0
DA:107,0
DA:108,0
DA:109,0
DA:110,0
DA:111,0
DA:112,0
DA:113,0
DA:114,0
DA:115,0
DA:118,0
DA:119,0
DA:120,0
DA:122,0
DA:123,0
DA:124,0
DA:125,0
DA:127,0
DA:128,0
DA:129,0
DA:131,0
DA:132,0
DA:135,0
DA:137,0
DA:138,0
DA:140,0
DA:141,0
DA:142,0
DA:143,0
DA:145,0
DA:146,0
DA:147,0
DA:148,0
DA:149,0
DA:150,0
DA:151,0
DA:153,0
DA:154,0
DA:155,0
DA:156,0
DA:157,0
DA:160,0
DA:161,0
DA:162,0
DA:163,0
DA:164,0
DA:167,0
DA:168,0
DA:170,0
DA:171,0
DA:172,0
DA:174,0
DA:177,16
DA:178,16
DA:180,0
DA:181,0
DA:182,0
DA:184,0
DA:185,0
DA:186,0
DA:187,0
DA:190,0
DA:191,0
DA:192,0
DA:193,0
DA:195,0
DA:197,0
DA:198,0
DA:199,0
DA:201,0
DA:203,0
DA:204,0
DA:207,0
DA:208,0
DA:209,0
DA:210,0
DA:214,0
DA:215,0
DA:216,0
DA:217,0
DA:218,0
DA:220,0
DA:222,0
DA:223,0
DA:225,0
DA:226,0
DA:229,0
DA:230,0
DA:232,0
DA:233,0
DA:236,0
DA:237,0
DA:238,0
DA:239,0
DA:242,0
DA:243,0
DA:244,0
DA:245,0
DA:246,0
DA:249,0
DA:250,0
DA:251,0
DA:252,0
DA:253,0
DA:254,0
DA:257,0
DA:258,0
DA:259,0
DA:260,0
DA:263,0
DA:265,0
DA:266,0
DA:267,0
DA:268,0
DA:270,0
DA:271,0
DA:272,0
DA:273,0
DA:277,0
DA:278,0
DA:279,0
DA:280,0
DA:281,0
DA:285,0
DA:286,0
DA:287,0
DA:288,0
DA:289,0
DA:297,0
DA:298,0
DA:300,0
DA:301,0
DA:304,0
DA:306,0
DA:308,0
DA:309,0
DA:310,0
DA:311,0
DA:314,0
DA:316,0
DA:317,0
DA:318,0
DA:322,0
DA:325,0
DA:326,0
DA:327,0
DA:329,0
DA:331,0
DA:332,0
DA:333,0
DA:335,0
DA:338,0
DA:339,0
DA:341,0
DA:342,0
DA:343,0
DA:344,0
DA:346,0
DA:349,0
DA:350,0
DA:352,0
DA:354,0
DA:355,0
DA:356,0
DA:357,0
DA:363,0
DA:364,0
DA:367,0
DA:368,0
DA:369,0
DA:373,0
DA:374,0
DA:375,0
DA:376,0
DA:378,0
DA:379,0
DA:381,0
DA:383,0
DA:385,0
DA:386,0
DA:387,0
DA:388,0
DA:389,0
DA:395,0
DA:396,0
DA:398,0
DA:400,0
DA:402,0
DA:404,0
DA:405,0
DA:406,0
DA:409,0
DA:411,0
DA:412,0
DA:413,0
DA:416,0
DA:418,0
DA:419,0
DA:420,0
DA:422,0
DA:423,0
DA:424,0
DA:425,0
DA:428,0
DA:429,0
DA:430,0
DA:431,0
DA:433,0
DA:435,0
DA:436,0
DA:437,0
DA:439,0
DA:441,0
DA:442,0
DA:445,0
DA:446,0
DA:447,0
DA:448,0
DA:450,0
DA:451,0
DA:452,0
DA:453,0
DA:454,0
DA:456,0
DA:458,0
DA:459,0
DA:460,0
DA:461,0
DA:464,0
DA:465,0
DA:466,0
DA:467,0
DA:472,0
DA:473,0
DA:474,0
DA:475,0
DA:477,0
DA:478,0
DA:479,0
DA:480,0
DA:484,0
DA:485,0
DA:486,0
DA:487,0
DA:488,0
DA:490,0
DA:491,0
DA:494,0
DA:496,0
DA:498,0
DA:503,0
DA:505,0
DA:506,0
DA:508,0
DA:510,0
DA:512,0
DA:515,0
DA:518,0
DA:519,0
DA:524,0
DA:527,0
DA:530,0
DA:532,0
DA:533,0
LF:316
LH:10
end_of_record
TN:
SF:/home/xucong/caicAD/01datainfra/Aurora/aurora-edge-runtime/src/data_collection/uploader/data_encryption.h
FN:40,_ZN6aurora9collector14DataEncryptionC2Ev
FNDA:16,_ZN6aurora9collector14DataEncryptionC2Ev
FNF:1
FNH:1
BRDA:40,0,0,16
BRDA:40,0,1,0
BRF:2
BRH:1
DA:40,16
LF:1
LH:1
end_of_record
TN:
SF:/home/xucong/caicAD/01datainfra/Aurora/aurora-edge-runtime/src/data_collection/uploader/data_uploader.cc
FN:20,_ZN6aurora9collector12DataUploader4InitERKNS0_13AppConfigData10DataUploadE
FN:42,_ZN6aurora9collector12DataUploaderD2Ev
FN:49,_ZN6aurora9collector12DataUploader5StartEv
FN:59,_ZN6aurora9collector12DataUploader13GetUploadInfoERKNSt7__cxx1112basic_stringIcSt11char_traitsIcESaIcEEENS0_10UploadTypeEiRNS0_16FileUploadRecordE
FN:141,_ZN6aurora9collector12DataUploader16GetUploadBagInfoERNS0_18FileUploadProgressE
FN:167,_ZN6aurora9collector12DataUploader10UploadFileERKNSt7__cxx1112basic_stringIcSt11char_traitsIcESaIcEEENS0_10UploadTypeE
FN:290,_ZN6aurora9collector12DataUploader12LoadFileListEv
FN:332,_ZN6aurora9collector12DataUploader3RunEv
FN:342,_ZN6aurora9collector12DataUploader4StopEv
FN:354,_ZN6aurora9collector12DataUploader12ProcessQueueEv
FNDA:0,_ZN6aurora9collector12DataUploader13GetUploadInfoERKNSt7__cxx1112basic_stringIcSt11char_traitsIcESaIcEEENS0_10UploadTypeEiRNS0_16FileUploadRecordE
FNDA:0,_ZN6aurora9collector12DataUploader4InitERKNS0_13AppConfigData10DataUploadE
FNDA:0,_ZN6aurora9collector12DataUploader12ProcessQueueEv
FNDA:0,_ZN6aurora9collector12DataUploader5StartEv
FNDA:0,_ZN6aurora9collector12DataUploader10UploadFileERKNSt7__cxx1112basic_stringIcSt11char_traitsIcESaIcEEENS0_10UploadTypeE
FNDA:0,_ZN6aurora9collector12DataUploader3RunEv
FNDA:0,_ZN6aurora9collector12DataUploader12LoadFileListEv
FNDA:0,_ZN6aurora9collector12DataUploader16GetUploadBagInfoERNS0_18FileUploadProgressE
FNDA:0,_ZN6aurora9collector12DataUploader4StopEv
FNDA:0,_ZN6aurora9collector12DataUploaderD2Ev
FNF:10
FNH:0
BRDA:21,0,0,-
BRDA:21,0,1,-
BRDA:24,0,0,-
BRDA:24,0,1,-
BRDA:24,0,2,-
BRDA:24,0,3,-
BRDA:25,0,0,-
BRDA:25,0,1,-
BRDA:27,0,0,-
BRDA:27,0,1,-
BRDA:28,0,0,-
BRDA:28,0,1,-
BRDA:28,0,2,-
BRDA:28,0,3,-
BRDA:29,0,0,-
BRDA:29,0,1,-
BRDA:29,0,2,-
BRDA:29,0,3,-
BRDA:34,0,0,-
BRDA:34,0,1,-
BRDA:34,0,2,-
BRDA:34,0,3,-
BRDA:36,0,0,-
BRDA:36,0,1,-
BRDA:37,0,0,-
BRDA:37,0,1,-
BRDA:38,0,0,-
BRDA:38,0,1,-
BRDA:44,0,0,-
BRDA:44,0,1,-
BRDA:51,0,0,-
BRDA:51,0,1,-
BRDA:62,0,0,-
BRDA:62,0,1,-
BRDA:63,0,0,-
BRDA:63,0,1,-
BRDA:63,0,2,-
BRDA:63,0,3,-
BRDA:66,0,0,-
BRDA:66,0,1,-
BRDA:67,0,0,-
BRDA:67,0,1,-
BRDA:68,0,0,-
BRDA:68,0,1,-
BRDA:68,0,2,-
BRDA:68,0,3,-
BRDA:92,0,0,-
BRDA:92,0,1,-
BRDA:96,0,0,-
BRDA:96,0,1,-
BRDA:96,0,2,-
BRDA:96,0,3,-
BRDA:96,0,4,-
BRDA:96,0,5,-
BRDA:97,0,0,-
BRDA:97,0,1,-
BRDA:112,0,0,-
BRDA:112,0,1,-
BRDA:113,0,0,-
BRDA:113,0,1,-
BRDA:114,0,0,-
BRDA:114,0,1,-
BRDA:114,0,2,-
BRDA:114,0,3,-
BRDA:132,0,0,-
BRDA:132,0,1,-
BRDA:133,0,0,-
BRDA:133,0,1,-
BRDA:143,0,0,-
BRDA:143,0,1,-
BRDA:147,0,0,-
BRDA:147,0,1,-
BRDA:147,0,2,-
BRDA:147,0,3,-
BRDA:147,0,4,-
BRDA:147,0,5,-
BRDA:149,0,0,-
BRDA:149,0,1,-
BRDA:150,0,0,-
BRDA:150,0,1,-
BRDA:150,0,2,-
BRDA:150,0,3,-
BRDA:150,0,4,-
BRDA:150,0,5,-
BRDA:156,0,0,-
BRDA:156,0,1,-
BRDA:158,0,0,0
BRDA:158,0,1,0
BRDA:159,0,0,0
BRDA:159,0,1,0
BRDA:159,0,2,0
BRDA:159,0,3,0
BRDA:159,0,4,0
BRDA:159,0,5,0
BRDA:159,0,6,0
BRDA:159,0,7,0
BRDA:162,0,0,-
BRDA:162,0,1,-
BRDA:162,0,2,-
BRDA:162,0,3,-
BRDA:162,0,4,-
BRDA:162,0,5,-
BRDA:164,0,0,-
BRDA:164,0,1,-
BRDA:164,0,2,-
BRDA:164,0,3,-
BRDA:169,0,0,-
BRDA:169,0,1,-
BRDA:170,0,0,-
BRDA:170,0,1,-
BRDA:171,0,0,-
BRDA:171,0,1,-
BRDA:171,0,2,-
BRDA:171,0,3,-
BRDA:178,0,0,-
BRDA:178,0,1,-
BRDA:179,0,0,-
BRDA:179,0,1,-
BRDA:180,0,0,-
BRDA:180,0,1,-
BRDA:180,0,2,-
BRDA:180,0,3,-
BRDA:184,0,0,-
BRDA:184,0,1,-
BRDA:185,0,0,-
BRDA:185,0,1,-
BRDA:186,0,0,-
BRDA:186,0,1,-
BRDA:186,0,2,-
BRDA:186,0,3,-
BRDA:194,0,0,-
BRDA:194,0,1,-
BRDA:194,0,2,-
BRDA:194,0,3,-
BRDA:194,0,4,-
BRDA:194,0,5,-
BRDA:195,0,0,-
BRDA:195,0,1,-
BRDA:198,0,0,-
BRDA:198,0,1,-
BRDA:199,0,0,-
BRDA:199,0,1,-
BRDA:199,0,2,-
BRDA:199,0,3,-
BRDA:200,0,0,-
BRDA:200,0,1,-
BRDA:203,0,0,-
BRDA:203,0,1,-
BRDA:203,0,2,-
BRDA:203,0,3,-
BRDA:204,0,0,-
BRDA:204,0,1,-
BRDA:204,0,2,-
BRDA:204,0,3,-
BRDA:209,0,0,-
BRDA:209,0,1,-
BRDA:209,0,2,-
BRDA:209,0,3,-
BRDA:210,0,0,-
BRDA:210,0,1,-
BRDA:210,0,2,-
BRDA:210,0,3,-
BRDA:213,0,0,-
BRDA:213,0,1,-
BRDA:214,0,0,-
BRDA:214,0,1,-
BRDA:215,0,0,-
BRDA:215,0,1,-
BRDA:216,0,0,-
BRDA:216,0,1,-
BRDA:216,0,2,-
BRDA:216,0,3,-
BRDA:220,0,0,-
BRDA:220,0,1,-
BRDA:221,0,0,-
BRDA:221,0,1,-
BRDA:222,0,0,-
BRDA:222,0,1,-
BRDA:222,0,2,-
BRDA:222,0,3,-
BRDA:224,0,0,-
BRDA:224,0,1,-
BRDA:224,0,2,-
BRDA:224,0,3,-
BRDA:255,0,0,-
BRDA:255,0,1,-
BRDA:256,0,0,-
BRDA:256,0,1,-
BRDA:257,0,0,-
BRDA:257,0,1,-
BRDA:257,0,2,-
BRDA:257,0,3,-
BRDA:260,0,0,-
BRDA:260,0,1,-
BRDA:261,0,0,-
BRDA:261,0,1,-
BRDA:261,0,2,-
BRDA:261,0,3,-
BRDA:261,0,4,-
BRDA:261,0,5,-
BRDA:261,0,6,-
BRDA:264,0,0,-
BRDA:264,0,1,-
BRDA:265,0,0,-
BRDA:265,0,1,-
BRDA:266,0,0,-
BRDA:266,0,1,-
BRDA:267,0,0,-
BRDA:267,0,1,-
BRDA:270,0,0,-
BRDA:270,0,1,-
BRDA:272,0,0,-
BRDA:272,0,1,-
BRDA:272,0,2,-
BRDA:272,0,3,-
BRDA:273,0,0,-
BRDA:273,0,1,-
BRDA:273,0,2,-
BRDA:273,0,3,-
BRDA:275,0,0,-
BRDA:275,0,1,-
BRDA:276,0,0,-
BRDA:276,0,1,-
BRDA:276,0,2,-
BRDA:276,0,3,-
BRDA:279,0,0,-
BRDA:279,0,1,-
BRDA:280,0,0,-
BRDA:280,0,1,-
BRDA:280,0,2,-
BRDA:280,0,3,-
BRDA:284,0,0,-
BRDA:284,0,1,-
BRDA:291,0,0,-
BRDA:291,0,1,-
BRDA:292,0,0,-
BRDA:292,0,1,-
BRDA:297,0,0,-
BRDA:297,0,1,-
BRDA:297,0,2,-
BRDA:297,0,3,-
BRDA:298,0,0,-
BRDA:298,0,1,-
BRDA:300,0,0,-
BRDA:300,0,1,-
BRDA:301,0,0,-
BRDA:301,0,1,-
BRDA:303,0,0,-
BRDA:303,0,1,-
BRDA:303,0,2,-
BRDA:303,0,3,-
BRDA:305,0,0,-
BRDA:305,0,1,-
BRDA:305,0,2,-
BRDA:305,0,3,-
BRDA:306,0,0,-
BRDA:306,0,1,-
BRDA:306,0,2,-
BRDA:306,0,3,-
BRDA:310,0,0,-
BRDA:310,0,1,-
BRDA:310,0,2,-
BRDA:310,0,3,-
BRDA:310,0,4,-
BRDA:310,0,5,-
BRDA:310,0,6,-
BRDA:310,0,7,-
BRDA:311,0,0,-
BRDA:311,0,1,-
BRDA:311,0,2,-
BRDA:311,0,3,-
BRDA:311,0,4,-
BRDA:311,0,5,-
BRDA:311,0,6,-
BRDA:311,0,7,-
BRDA:311,0,8,-
BRDA:311,0,9,-
BRDA:311,0,10,-
BRDA:311,0,11,-
BRDA:311,0,12,-
BRDA:311,0,13,-
BRDA:311,0,14,-
BRDA:311,0,15,-
BRDA:311,0,16,-
BRDA:311,0,17,-
BRDA:311,0,18,-
BRDA:311,0,19,-
BRDA:311,0,20,-
BRDA:311,0,21,-
BRDA:312,0,0,-
BRDA:312,0,1,-
BRDA:312,0,2,-
BRDA:312,0,3,-
BRDA:312,0,4,-
BRDA:312,0,5,-
BRDA:313,0,0,-
BRDA:313,0,1,-
BRDA:313,0,2,-
BRDA:313,0,3,-
BRDA:313,0,4,-
BRDA:313,0,5,-
BRDA:313,0,6,-
BRDA:313,0,7,-
BRDA:316,0,0,-
BRDA:316,0,1,-
BRDA:319,0,0,-
BRDA:319,0,1,-
BRDA:321,0,0,-
BRDA:321,0,1,-
BRDA:321,0,2,-
BRDA:321,0,3,-
BRDA:323,0,0,-
BRDA:323,0,1,-
BRDA:323,0,2,-
BRDA:323,0,3,-
BRDA:323,0,4,-
BRDA:323,0,5,-
BRDA:323,0,6,-
BRDA:323,0,7,-
BRDA:324,0,0,-
BRDA:324,0,1,-
BRDA:324,0,2,-
BRDA:324,0,3,-
BRDA:324,0,4,-
BRDA:324,0,5,-
BRDA:324,0,6,-
BRDA:324,0,7,-
BRDA:324,0,8,-
BRDA:324,0,9,-
BRDA:324,0,10,-
BRDA:324,0,11,-
BRDA:324,0,12,-
BRDA:324,0,13,-
BRDA:324,0,14,-
BRDA:324,0,15,-
BRDA:324,0,16,-
BRDA:324,0,17,-
BRDA:324,0,18,-
BRDA:324,0,19,-
BRDA:324,0,20,-
BRDA:324,0,21,-
BRDA:325,0,0,-
BRDA:325,0,1,-
BRDA:325,0,2,-
BRDA:325,0,3,-
BRDA:325,0,4,-
BRDA:325,0,5,-
BRDA:326,0,0,-
BRDA:326,0,1,-
BRDA:326,0,2,-
BRDA:326,0,3,-
BRDA:326,0,4,-
BRDA:326,0,5,-
BRDA:326,0,6,-
BRDA:326,0,7,-
BRDA:329,0,0,-
BRDA:329,0,1,-
BRDA:329,0,2,-
BRDA:329,0,3,-
BRDA:329,0,4,-
BRDA:329,0,5,-
BRDA:333,0,0,-
BRDA:333,0,1,-
BRDA:334,0,0,-
BRDA:334,0,1,-
BRDA:335,0,0,-
BRDA:335,0,1,-
BRDA:336,0,0,-
BRDA:336,0,1,-
BRDA:337,0,0,-
BRDA:337,0,1,-
BRDA:338,0,0,-
BRDA:338,0,1,-
BRDA:343,0,0,-
BRDA:343,0,1,-
BRDA:343,0,2,-
BRDA:343,0,3,-
BRDA:345,0,0,-
BRDA:345,0,1,-
BRDA:345,0,2,-
BRDA:345,0,3,-
BRDA:346,0,0,-
BRDA:346,0,1,-
BRDA:346,0,2,-
BRDA:346,0,3,-
BRDA:355,0,0,-
BRDA:355,0,1,-
BRDA:356,0,0,-
BRDA:356,0,1,-
BRDA:356,0,2,-
BRDA:356,0,3,-
BRDA:357,0,0,-
BRDA:357,0,1,-
BRDA:358,0,0,-
BRDA:358,0,1,-
BRDA:358,0,2,-
BRDA:358,0,3,-
BRDA:359,0,0,-
BRDA:359,0,1,-
BRDA:359,0,2,-
BRDA:359,0,3,-
BRDA:363,0,0,-
BRDA:363,0,1,-
BRDA:363,0,2,-
BRDA:363,0,3,-
BRDA:364,0,0,-
BRDA:364,0,1,-
BRDA:364,0,2,-
BRDA:364,0,3,-
BRDA:366,0,0,-
BRDA:366,0,1,-
BRDA:366,0,2,-
BRDA:366,0,3,-
BRDA:367,0,0,-
BRDA:367,0,1,-
BRDA:369,0,0,-
BRDA:369,0,1,-
BRDA:370,0,0,-
BRDA:370,0,1,-
BRDA:370,0,2,-
BRDA:370,0,3,-
BRDA:370,0,4,-
BRDA:370,0,5,-
BRDA:370,0,6,-
BRDA:370,0,7,-
BRDA:370,0,8,-
BRDA:370,0,9,-
BRDA:372,0,0,-
BRDA:372,0,1,-
BRDA:372,0,2,-
BRDA:372,0,3,-
BRDA:373,0,0,-
BRDA:373,0,1,-
BRDA:373,0,2,-
BRDA:373,0,3,-
BRDA:373,0,4,-
BRDA:373,0,5,-
BRDA:374,0,0,-
BRDA:374,0,1,-
BRDA:374,0,2,-
BRDA:374,0,3,-
BRDA:374,0,4,-
BRDA:374,0,5,-
BRDA:374,0,6,-
BRDA:374,0,7,-
BRDA:374,0,8,-
BRDA:374,0,9,-
BRDA:375,0,0,-
BRDA:375,0,1,-
BRDA:377,0,0,-
BRDA:377,0,1,-
BRDA:378,0,0,-
BRDA:378,0,1,-
BRDA:378,0,2,-
BRDA:378,0,3,-
BRDA:379,0,0,-
BRDA:379,0,1,-
BRDA:380,0,0,-
BRDA:380,0,1,-
BRDA:380,0,2,-
BRDA:380,0,3,-
BRDA:382,0,0,-
BRDA:382,0,1,-
BRDA:384,0,0,-
BRDA:384,0,1,-
BRDA:384,0,2,-
BRDA:384,0,3,-
BRDA:388,0,0,-
BRDA:388,0,1,-
BRDA:389,0,0,-
BRDA:389,0,1,-
BRDA:389,0,2,-
BRDA:389,0,3,-
BRDA:392,0,0,-
BRDA:392,0,1,-
BRDA:393,0,0,-
BRDA:393,0,1,-
BRDA:393,0,2,-
BRDA:393,0,3,-
BRDA:395,0,0,-
BRDA:395,0,1,-
BRDA:397,0,0,-
BRDA:397,0,1,-
BRDA:397,0,2,-
BRDA:397,0,3,-
BRDA:399,0,0,-
BRDA:399,0,1,-
BRDA:400,0,0,-
BRDA:400,0,1,-
BRDA:400,0,2,-
BRDA:400,0,3,-
BRDA:401,0,0,-
BRDA:401,0,1,-
BRDA:402,0,0,-
BRDA:402,0,1,-
BRDA:403,0,0,-
BRDA:403,0,1,-
BRDA:405,0,0,-
BRDA:405,0,1,-
BRDA:406,0,0,-
BRDA:406,0,1,-
BRDA:406,0,2,-
BRDA:406,0,3,-
BRDA:408,0,0,-
BRDA:408,0,1,-
BRDA:410,0,0,-
BRDA:410,0,1,-
BRDA:410,0,2,-
BRDA:410,0,3,-
BRF:509
BRH:0
DA:20,0
DA:21,0
DA:22,0
DA:24,0
DA:25,0
DA:27,0
DA:28,0
DA:29,0
DA:30,0
DA:34,0
DA:36,0
DA:37,0
DA:38,0
DA:39,0
DA:40,0
DA:42,0
DA:43,0
DA:44,0
DA:45,0
DA:47,0
DA:49,0
DA:51,0
DA:53,0
DA:59,0
DA:60,0
DA:62,0
DA:63,0
DA:64,0
DA:65,0
DA:66,0
DA:67,0
DA:68,0
DA:69,0
DA:92,0
DA:93,0
DA:94,0
DA:95,0
DA:96,0
DA:97,0
DA:111,0
DA:112,0
DA:113,0
DA:114,0
DA:115,0
DA:132,0
DA:133,0
DA:134,0
DA:135,0
DA:136,0
DA:137,0
DA:138,0
DA:141,0
DA:143,0
DA:144,0
DA:145,0
DA:147,0
DA:148,0
DA:149,0
DA:150,0
DA:151,0
DA:156,0
DA:158,0
DA:159,0
DA:160,0
DA:161,0
DA:162,0
DA:164,0
DA:167,0
DA:169,0
DA:170,0
DA:171,0
DA:172,0
DA:176,0
DA:178,0
DA:179,0
DA:180,0
DA:181,0
DA:184,0
DA:185,0
DA:186,0
DA:187,0
DA:190,0
DA:191,0
DA:192,0
DA:193,0
DA:194,0
DA:195,0
DA:196,0
DA:197,0
DA:198,0
DA:199,0
DA:200,0
DA:203,0
DA:204,0
DA:205,0
DA:207,0
DA:209,0
DA:210,0
DA:211,0
DA:213,0
DA:214,0
DA:215,0
DA:216,0
DA:219,0
DA:220,0
DA:221,0
DA:222,0
DA:223,0
DA:224,0
DA:225,0
DA:227,0
DA:255,0
DA:256,0
DA:257,0
DA:258,0
DA:260,0
DA:261,0
DA:263,0
DA:264,0
DA:265,0
DA:266,0
DA:267,0
DA:269,0
DA:270,0
DA:272,0
DA:273,0
DA:274,0
DA:275,0
DA:276,0
DA:277,0
DA:279,0
DA:280,0
DA:282,0
DA:284,0
DA:286,0
DA:287,0
DA:290,0
DA:291,0
DA:292,0
DA:297,0
DA:298,0
DA:300,0
DA:301,0
DA:303,0
DA:305,0
DA:306,0
DA:307,0
DA:310,0
DA:311,0
DA:312,0
DA:313,0
DA:315,0
DA:316,0
DA:319,0
DA:321,0
DA:323,0
DA:324,0
DA:325,0
DA:326,0
DA:328,0
DA:329,0
DA:330,0
DA:332,0
DA:333,0
DA:334,0
DA:335,0
DA:336,0
DA:337,0
DA:338,0
DA:339,0
DA:340,0
DA:342,0
DA:343,0
DA:345,0
DA:346,0
DA:348,0
DA:349,0
DA:350,0
DA:351,0
DA:354,0
DA:355,0
DA:356,0
DA:357,0
DA:358,0
DA:359,0
DA:360,0
DA:363,0
DA:364,0
DA:366,0
DA:367,0
DA:369,0
DA:370,0
DA:372,0
DA:373,0
DA:374,0
DA:375,0
DA:377,0
DA:378,0
DA:379,0
DA:380,0
DA:382,0
DA:384,0
DA:385,0
DA:388,0
DA:389,0
DA:392,0
DA:393,0
DA:395,0
DA:397,0
DA:399,0
DA:400,0
DA:401,0
DA:402,0
DA:403,0
DA:405,0
DA:406,0
DA:408,0
DA:409,0
DA:410,0
DA:411,0
LF:220
LH:0
end_of_record
TN:
SF:/home/xucong/caicAD/01datainfra/Aurora/aurora-edge-runtime/src/data_collection/uploader/data_uploader_interface.h
FN:12,_ZN6aurora9collector13IDataUploaderD2Ev
FN:12,_ZN6aurora9collector13IDataUploaderD0Ev
FNDA:0,_ZN6aurora9collector13IDataUploaderD2Ev
FNDA:0,_ZN6aurora9collector13IDataUploaderD0Ev
FNF:2
FNH:0
DA:12,0
LF:1
LH:0
end_of_record
TN:
SF:/home/xucong/caicAD/01datainfra/Aurora/aurora-edge-runtime/src/data_collection/uploader/protocol/curl_wrapper.cpp
FN:7,_ZN6aurora9collector11CurlWrapper4InitERKNSt7__cxx1112basic_stringIcSt11char_traitsIcESaIcEEES9_S9_
FN:20,_ZNK6aurora9collector11CurlWrapper8IsInitedEv
FN:24,_ZN6aurora9collector11CurlWrapper14SetupMutualTLSEv
FN:51,_ZN6aurora9collector11CurlWrapper8HttpPostERKNSt7__cxx1112basic_stringIcSt11char_traitsIcESaIcEEES9_RS7_RKSt6vectorIS7_SaIS7_EE
FN:86,_ZN6aurora9collector11CurlWrapper7HttpGetERKNSt7__cxx1112basic_stringIcSt11char_traitsIcESaIcEEERS7_RKSt6vectorIS7_SaIS7_EE
FN:117,_ZN6aurora9collector11CurlWrapper7HttpPutERKNSt7__cxx1112basic_stringIcSt11char_traitsIcESaIcEEERKSt6vectorIcS6_ERS7_RKSA_IS7_SaIS7_EE
FNDA:0,_ZN6aurora9collector11CurlWrapper7HttpPutERKNSt7__cxx1112basic_stringIcSt11char_traitsIcESaIcEEERKSt6vectorIcS6_ERS7_RKSA_IS7_SaIS7_EE
FNDA:0,_ZN6aurora9collector11CurlWrapper7HttpGetERKNSt7__cxx1112basic_stringIcSt11char_traitsIcESaIcEEERS7_RKSt6vectorIS7_SaIS7_EE
FNDA:0,_ZN6aurora9collector11CurlWrapper8HttpPostERKNSt7__cxx1112basic_stringIcSt11char_traitsIcESaIcEEES9_RS7_RKSt6vectorIS7_SaIS7_EE
FNDA:0,_ZN6aurora9collector11CurlWrapper14SetupMutualTLSEv
FNDA:0,_ZNK6aurora9collector11CurlWrapper8IsInitedEv
FNDA:0,_ZN6aurora9collector11CurlWrapper4InitERKNSt7__cxx1112basic_stringIcSt11char_traitsIcESaIcEEES9_S9_
FNF:6
FNH:0
BRDA:13,0,0,-
BRDA:13,0,1,-
BRDA:14,0,0,-
BRDA:14,0,1,-
BRDA:21,0,0,-
BRDA:21,0,1,-
BRDA:25,0,0,-
BRDA:25,0,1,-
BRDA:25,0,2,-
BRDA:25,0,3,-
BRDA:25,0,4,-
BRDA:25,0,5,-
BRDA:37,0,0,-
BRDA:37,0,1,-
BRDA:52,0,0,-
BRDA:52,0,1,-
BRDA:53,0,0,-
BRDA:53,0,1,-
BRDA:70,0,0,-
BRDA:70,0,1,-
BRDA:71,0,0,-
BRDA:71,0,1,-
BRDA:80,0,0,-
BRDA:80,0,1,-
BRDA:81,0,0,-
BRDA:81,0,1,-
BRDA:87,0,0,-
BRDA:87,0,1,-
BRDA:88,0,0,-
BRDA:88,0,1,-
BRDA:101,0,0,-
BRDA:101,0,1,-
BRDA:102,0,0,-
BRDA:102,0,1,-
BRDA:111,0,0,-
BRDA:111,0,1,-
BRDA:112,0,0,-
BRDA:112,0,1,-
BRDA:118,0,0,-
BRDA:118,0,1,-
BRDA:118,0,2,-
BRDA:118,0,3,-
BRDA:119,0,0,-
BRDA:119,0,1,-
BRDA:119,0,2,-
BRDA:119,0,3,-
BRDA:126,0,0,-
BRDA:126,0,1,-
BRDA:127,0,0,-
BRDA:127,0,1,-
BRDA:128,0,0,-
BRDA:128,0,1,-
BRDA:131,0,0,-
BRDA:131,0,1,-
BRDA:133,0,0,-
BRDA:133,0,1,-
BRDA:134,0,0,-
BRDA:134,0,1,-
BRDA:136,0,0,-
BRDA:136,0,1,-
BRDA:137,0,0,-
BRDA:137,0,1,-
BRDA:138,0,0,-
BRDA:138,0,1,-
BRDA:140,0,0,-
BRDA:140,0,1,-
BRDA:154,0,0,-
BRDA:154,0,1,-
BRDA:155,0,0,-
BRDA:155,0,1,-
BRDA:161,0,0,-
BRDA:161,0,1,-
BRDA:163,0,0,-
BRDA:163,0,1,-
BRDA:166,0,0,-
BRDA:166,0,1,-
BRDA:171,0,0,-
BRDA:171,0,1,-
BRDA:172,0,0,0
BRDA:172,0,1,0
BRDA:174,0,0,0
BRDA:174,0,1,0
BRDA:174,0,2,0
BRDA:174,0,3,0
BRDA:174,0,4,0
BRDA:174,0,5,0
BRDA:177,0,0,0
BRDA:177,0,1,0
BRDA:177,0,2,0
BRDA:177,0,3,0
BRDA:178,0,0,0
BRDA:178,0,1,0
BRDA:183,0,0,-
BRDA:183,0,1,-
BRDA:185,0,0,-
BRDA:185,0,1,-
BRDA:186,0,0,-
BRDA:186,0,1,-
BRDA:186,0,2,-
BRDA:186,0,3,-
BRDA:186,0,4,-
BRDA:186,0,5,-
BRDA:190,0,0,-
BRDA:190,0,1,-
BRDA:191,0,0,-
BRDA:191,0,1,-
BRDA:193,0,0,-
BRDA:193,0,1,-
BRDA:193,0,2,-
BRDA:193,0,3,-
BRDA:196,0,0,-
BRDA:196,0,1,-
BRF:112
BRH:0
DA:7,0
DA:8,0
DA:9,0
DA:10,0
DA:11,0
DA:12,0
DA:13,0
DA:14,0
DA:15,0
DA:17,0
DA:20,0
DA:21,0
DA:24,0
DA:25,0
DA:27,0
DA:28,0
DA:37,0
DA:39,0
DA:44,0
DA:45,0
DA:49,0
DA:51,0
DA:52,0
DA:53,0
DA:54,0
DA:61,0
DA:62,0
DA:65,0
DA:66,0
DA:67,0
DA:68,0
DA:69,0
DA:70,0
DA:71,0
DA:73,0
DA:74,0
DA:75,0
DA:77,0
DA:78,0
DA:80,0
DA:81,0
DA:83,0
DA:86,0
DA:87,0
DA:88,0
DA:89,0
DA:95,0
DA:96,0
DA:98,0
DA:99,0
DA:100,0
DA:101,0
DA:102,0
DA:104,0
DA:105,0
DA:106,0
DA:108,0
DA:109,0
DA:111,0
DA:112,0
DA:114,0
DA:117,0
DA:118,0
DA:119,0
DA:120,0
DA:126,0
DA:127,0
DA:128,0
DA:131,0
DA:132,0
DA:133,0
DA:134,0
DA:136,0
DA:137,0
DA:138,0
DA:140,0
DA:151,0
DA:154,0
DA:155,0
DA:161,0
DA:163,0
DA:166,0
DA:168,0
DA:171,0
DA:172,0
DA:174,0
DA:175,0
DA:177,0
DA:178,0
DA:183,0
DA:185,0
DA:186,0
DA:190,0
DA:191,0
DA:193,0
DA:196,0
DA:198,0
DA:199,0
LF:98
LH:0
end_of_record
TN:
SF:/home/xucong/caicAD/01datainfra/Aurora/aurora-edge-runtime/src/data_collection/uploader/protocol/curl_wrapper.h
FN:13,_ZN6aurora9collector11CurlWrapperC2Ev
FN:14,_ZN6aurora9collector11CurlWrapperD2Ev
FN:35,_ZN6aurora9collector11CurlWrapper13WriteCallbackEPvmmS2_
FN:49,_ZN6aurora9collector11CurlWrapper18WriteHeadCallback1EPvmmS2_
FNDA:0,_ZN6aurora9collector11CurlWrapper18WriteHeadCallback1EPvmmS2_
FNDA:0,_ZN6aurora9collector11CurlWrapperD2Ev
FNDA:0,_ZN6aurora9collector11CurlWrapper13WriteCallbackEPvmmS2_
FNDA:0,_ZN6aurora9collector11CurlWrapperC2Ev
FNF:4
FNH:0
BRDA:15,0,0,-
BRDA:15,0,1,-
BRDA:61,0,0,-
BRDA:61,0,1,-
BRF:4
BRH:0
DA:13,0
DA:14,0
DA:15,0
DA:16,0
DA:17,0
DA:18,0
DA:20,0
DA:35,0
DA:36,0
DA:37,0
DA:49,0
DA:51,0
DA:52,0
DA:61,0
DA:63,0
DA:64,0
DA:65,0
DA:67,0
DA:70,0
LF:19
LH:0
end_of_record
TN:
SF:/home/xucong/caicAD/01datainfra/Aurora/aurora-edge-runtime/src/data_collection/uploader/protocol/data_protocol.cpp
FN:14,_ZN6aurora9collector16CurlErrorMappingE8CURLcode
FN:29,_ZN6aurora9collector9DataProto4InitERKNSt7__cxx1112basic_stringIcSt11char_traitsIcESaIcEEES9_S9_S9_
FN:42,_ZN6aurora9collector9DataProto12GetQueryTaskERKNSt7__cxx1112basic_stringIcSt11char_traitsIcESaIcEEERNS0_13QueryTaskRespE
FN:54,_ZN6aurora9collector9DataProto17SendUploadMqttCmdERSt6atomicIbE
FN:73,_ZZN6aurora9collector9DataProto17SendUploadMqttCmdERSt6atomicIbEENKUlRKNSt7__cxx1112basic_stringIcSt11char_traitsIcESaIcEEESC_E_clESC_SC_
FN:107,_ZN6aurora9collector9DataProto12GetUploadUrlERKNS0_12UploadUrlReqERNS0_13UploadUrlRespE
FN:131,_ZN6aurora9collector9DataProto15UploadFileChunkERKSt6vectorIcSaIcEERKNSt7__cxx1112basic_stringIcSt11char_traitsIcES3_EERSB_
FN:151,_ZN6aurora9collector9DataProto14CompleteUploadERKNS0_17CompleteUploadReqERNS0_18CompleteUploadRespE
FN:175,_ZN6aurora9collector9DataProto15GetUploadStatusERKNSt7__cxx1112basic_stringIcSt11char_traitsIcESaIcEEERNS0_16UploadStatusRespE
FNDA:0,_ZN6aurora9collector9DataProto17SendUploadMqttCmdERSt6atomicIbE
FNDA:0,_ZN6aurora9collector9DataProto14CompleteUploadERKNS0_17CompleteUploadReqERNS0_18CompleteUploadRespE
FNDA:0,_ZN6aurora9collector9DataProto12GetQueryTaskERKNSt7__cxx1112basic_stringIcSt11char_traitsIcESaIcEEERNS0_13QueryTaskRespE
FNDA:0,_ZN6aurora9collector9DataProto12GetUploadUrlERKNS0_12UploadUrlReqERNS0_13UploadUrlRespE
FNDA:0,_ZN6aurora9collector9DataProto15GetUploadStatusERKNSt7__cxx1112basic_stringIcSt11char_traitsIcESaIcEEERNS0_16UploadStatusRespE
FNDA:0,_ZN6aurora9collector9DataProto15UploadFileChunkERKSt6vectorIcSaIcEERKNSt7__cxx1112basic_stringIcSt11char_traitsIcES3_EERSB_
FNDA:0,_ZN6aurora9collector16CurlErrorMappingE8CURLcode
FNDA:0,_ZZN6aurora9collector9DataProto17SendUploadMqttCmdERSt6atomicIbEENKUlRKNSt7__cxx1112basic_stringIcSt11char_traitsIcESaIcEEESC_E_clESC_SC_
FNDA:0,_ZN6aurora9collector9DataProto4InitERKNSt7__cxx1112basic_stringIcSt11char_traitsIcESaIcEEES9_S9_S9_
FNF:9
FNH:0
BRDA:15,0,0,-
BRDA:15,0,1,-
BRDA:15,0,2,-
BRDA:15,0,3,-
BRDA:15,0,4,-
BRDA:39,0,0,-
BRDA:39,0,1,-
BRDA:39,0,2,-
BRDA:39,0,3,-
BRDA:43,0,0,-
BRDA:43,0,1,-
BRDA:43,0,2,-
BRDA:43,0,3,-
BRDA:43,0,4,-
BRDA:43,0,5,-
BRDA:45,0,0,-
BRDA:45,0,1,-
BRDA:45,0,2,-
BRDA:45,0,3,-
BRDA:45,0,4,-
BRDA:45,0,5,-
BRDA:45,0,6,-
BRDA:45,0,7,-
BRDA:45,0,8,-
BRDA:45,0,9,-
BRDA:46,0,0,-
BRDA:46,0,1,-
BRDA:46,0,2,-
BRDA:46,0,3,-
BRDA:47,0,0,-
BRDA:47,0,1,-
BRDA:48,0,0,-
BRDA:48,0,1,-
BRDA:51,0,0,-
BRDA:51,0,1,-
BRDA:56,0,0,-
BRDA:56,0,1,-
BRDA:56,0,2,-
BRDA:56,0,3,-
BRDA:59,0,0,-
BRDA:59,0,1,-
BRDA:60,0,0,-
BRDA:60,0,1,-
BRDA:61,0,0,-
BRDA:61,0,1,-
BRDA:63,0,0,-
BRDA:63,0,1,-
BRDA:64,0,0,-
BRDA:64,0,1,-
BRDA:65,0,0,-
BRDA:65,0,1,-
BRDA:67,0,0,-
BRDA:67,0,1,-
BRDA:68,0,0,-
BRDA:68,0,1,-
BRDA:69,0,0,-
BRDA:69,0,1,-
BRDA:69,0,2,-
BRDA:69,0,3,-
BRDA:73,0,0,-
BRDA:73,0,1,-
BRDA:74,0,0,-
BRDA:74,0,1,-
BRDA:74,0,2,-
BRDA:74,0,3,-
BRDA:78,0,0,-
BRDA:78,0,1,-
BRDA:79,0,0,-
BRDA:79,0,1,-
BRDA:80,0,0,-
BRDA:80,0,1,-
BRDA:81,0,0,-
BRDA:81,0,1,-
BRDA:81,0,2,-
BRDA:81,0,3,-
BRDA:84,0,0,-
BRDA:84,0,1,-
BRDA:85,0,0,-
BRDA:85,0,1,-
BRDA:86,0,0,-
BRDA:86,0,1,-
BRDA:86,0,2,-
BRDA:86,0,3,-
BRDA:90,0,0,-
BRDA:90,0,1,-
BRDA:90,0,2,-
BRDA:90,0,3,-
BRDA:93,0,0,-
BRDA:93,0,1,-
BRDA:93,0,2,-
BRDA:93,0,3,-
BRDA:94,0,0,-
BRDA:94,0,1,-
BRDA:97,0,0,-
BRDA:97,0,1,-
BRDA:98,0,0,-
BRDA:98,0,1,-
BRDA:102,0,0,-
BRDA:102,0,1,-
BRDA:116,0,0,-
BRDA:116,0,1,-
BRDA:116,0,2,-
BRDA:116,0,3,-
BRDA:116,0,4,-
BRDA:116,0,5,-
BRDA:116,0,6,-
BRDA:116,0,7,-
BRDA:116,0,8,-
BRDA:116,0,9,-
BRDA:116,0,10,-
BRDA:116,0,11,-
BRDA:116,0,12,-
BRDA:116,0,13,-
BRDA:116,0,14,-
BRDA:116,0,15,-
BRDA:116,0,16,-
BRDA:116,0,17,-
BRDA:116,0,18,-
BRDA:116,0,19,-
BRDA:116,0,20,-
BRDA:116,0,21,-
BRDA:118,0,0,-
BRDA:118,0,1,-
BRDA:118,0,2,-
BRDA:118,0,3,-
BRDA:120,0,0,-
BRDA:120,0,1,-
BRDA:120,0,2,-
BRDA:120,0,3,-
BRDA:120,0,4,-
BRDA:120,0,5,-
BRDA:120,0,6,-
BRDA:120,0,7,-
BRDA:120,0,8,-
BRDA:120,0,9,-
BRDA:121,0,0,-
BRDA:121,0,1,-
BRDA:121,0,2,-
BRDA:121,0,3,-
BRDA:122,0,0,-
BRDA:122,0,1,-
BRDA:122,0,2,-
BRDA:122,0,3,-
BRDA:123,0,0,-
BRDA:123,0,1,-
BRDA:123,0,2,-
BRDA:123,0,3,-
BRDA:124,0,0,-
BRDA:124,0,1,-
BRDA:125,0,0,-
BRDA:125,0,1,-
BRDA:128,0,0,-
BRDA:128,0,1,-
BRDA:134,0,0,-
BRDA:134,0,1,-
BRDA:134,0,2,-
BRDA:134,0,3,-
BRDA:134,0,4,-
BRDA:134,0,5,-
BRDA:134,0,6,-
BRDA:134,0,7,-
BRDA:134,0,8,-
BRDA:134,0,9,-
BRDA:136,0,0,-
BRDA:136,0,1,-
BRDA:136,0,2,-
BRDA:136,0,3,-
BRDA:137,0,0,-
BRDA:137,0,1,-
BRDA:138,0,0,-
BRDA:138,0,1,-
BRDA:138,0,2,-
BRDA:138,0,3,-
BRDA:141,0,0,-
BRDA:141,0,1,-
BRDA:141,0,2,-
BRDA:141,0,3,-
BRDA:141,0,4,-
BRDA:141,0,5,-
BRDA:142,0,0,-
BRDA:142,0,1,-
BRDA:142,0,2,-
BRDA:142,0,3,-
BRDA:142,0,4,-
BRDA:142,0,5,-
BRDA:142,0,6,-
BRDA:142,0,7,-
BRDA:142,0,8,-
BRDA:142,0,9,-
BRDA:142,0,10,-
BRDA:142,0,11,-
BRDA:143,0,0,-
BRDA:143,0,1,-
BRDA:144,0,0,-
BRDA:144,0,1,-
BRDA:144,0,2,-
BRDA:144,0,3,-
BRDA:148,0,0,-
BRDA:148,0,1,-
BRDA:152,0,0,-
BRDA:152,0,1,-
BRDA:152,0,2,-
BRDA:152,0,3,-
BRDA:161,0,0,-
BRDA:161,0,1,-
BRDA:162,0,0,-
BRDA:162,0,1,-
BRDA:162,0,2,-
BRDA:162,0,3,-
BRDA:162,0,4,-
BRDA:162,0,5,-
BRDA:162,0,6,-
BRDA:162,0,7,-
BRDA:162,0,8,-
BRDA:162,0,9,-
BRDA:162,0,10,-
BRDA:162,0,11,-
BRDA:162,0,12,-
BRDA:162,0,13,-
BRDA:162,0,14,-
BRDA:162,0,15,-
BRDA:162,0,16,-
BRDA:162,0,17,-
BRDA:162,0,18,-
BRDA:162,0,19,-
BRDA:162,0,20,-
BRDA:162,0,21,-
BRDA:162,0,22,-
BRDA:162,0,23,-
BRDA:162,0,24,-
BRDA:162,0,25,-
BRDA:162,0,26,-
BRDA:162,0,27,-
BRDA:162,0,28,-
BRDA:162,0,29,-
BRDA:162,0,30,-
BRDA:162,0,31,-
BRDA:162,0,32,-
BRDA:162,0,33,-
BRDA:165,0,0,-
BRDA:165,0,1,-
BRDA:165,0,2,-
BRDA:165,0,3,-
BRDA:165,0,4,-
BRDA:165,0,5,-
BRDA:165,0,6,-
BRDA:165,0,7,-
BRDA:165,0,8,-
BRDA:165,0,9,-
BRDA:166,0,0,-
BRDA:166,0,1,-
BRDA:166,0,2,-
BRDA:166,0,3,-
BRDA:167,0,0,-
BRDA:167,0,1,-
BRDA:167,0,2,-
BRDA:167,0,3,-
BRDA:168,0,0,-
BRDA:168,0,1,-
BRDA:169,0,0,-
BRDA:169,0,1,-
BRDA:172,0,0,-
BRDA:172,0,1,-
BRDA:177,0,0,-
BRDA:177,0,1,-
BRDA:177,0,2,-
BRDA:177,0,3,-
BRDA:178,0,0,-
BRDA:178,0,1,-
BRDA:178,0,2,-
BRDA:178,0,3,-
BRDA:178,0,4,-
BRDA:178,0,5,-
BRDA:178,0,6,-
BRDA:178,0,7,-
BRDA:179,0,0,-
BRDA:179,0,1,-
BRDA:179,0,2,-
BRDA:179,0,3,-
BRDA:179,0,4,-
BRDA:179,0,5,-
BRDA:179,0,6,-
BRDA:179,0,7,-
BRDA:179,0,8,-
BRDA:179,0,9,-
BRDA:180,0,0,-
BRDA:180,0,1,-
BRDA:180,0,2,-
BRDA:180,0,3,-
BRDA:181,0,0,-
BRDA:181,0,1,-
BRDA:181,0,2,-
BRDA:181,0,3,-
BRDA:182,0,0,-
BRDA:182,0,1,-
BRDA:183,0,0,-
BRDA:183,0,1,-
BRDA:186,0,0,-
BRDA:186,0,1,-
BRF:299
BRH:0
DA:14,0
DA:15,0
DA:16,0
DA:17,0
DA:18,0
DA:19,0
DA:20,0
DA:21,0
DA:22,0
DA:23,0
DA:24,0
DA:25,0
DA:29,0
DA:33,0
DA:38,0
DA:39,0
DA:42,0
DA:43,0
DA:44,0
DA:45,0
DA:46,0
DA:47,0
DA:48,0
DA:49,0
DA:51,0
DA:52,0
DA:54,0
DA:56,0
DA:59,0
DA:60,0
DA:61,0
DA:63,0
DA:64,0
DA:65,0
DA:67,0
DA:68,0
DA:69,0
DA:73,0
DA:74,0
DA:76,0
DA:78,0
DA:79,0
DA:80,0
DA:81,0
DA:82,0
DA:84,0
DA:85,0
DA:86,0
DA:87,0
DA:90,0
DA:93,0
DA:94,0
DA:97,0
DA:98,0
DA:102,0
DA:104,0
DA:105,0
DA:107,0
DA:110,0
DA:111,0
DA:112,0
DA:113,0
DA:116,0
DA:118,0
DA:119,0
DA:120,0
DA:121,0
DA:122,0
DA:123,0
DA:124,0
DA:125,0
DA:126,0
DA:128,0
DA:129,0
DA:131,0
DA:132,0
DA:133,0
DA:134,0
DA:136,0
DA:137,0
DA:138,0
DA:140,0
DA:141,0
DA:142,0
DA:143,0
DA:144,0
DA:145,0
DA:148,0
DA:149,0
DA:151,0
DA:152,0
DA:155,0
DA:156,0
DA:157,0
DA:158,0
DA:159,0
DA:161,0
DA:162,0
DA:164,0
DA:165,0
DA:166,0
DA:167,0
DA:168,0
DA:169,0
DA:170,0
DA:172,0
DA:173,0
DA:175,0
DA:176,0
DA:177,0
DA:178,0
DA:179,0
DA:180,0
DA:181,0
DA:182,0
DA:183,0
DA:184,0
DA:186,0
DA:187,0
LF:119
LH:0
end_of_record
TN:
SF:/home/xucong/caicAD/01datainfra/Aurora/aurora-edge-runtime/src/data_collection/uploader/protocol/data_protocol.h
FN:40,_ZN6aurora9collector9DataProtoC2Ev
FN:41,_ZN6aurora9collector9DataProtoD2Ev
FNDA:0,_ZN6aurora9collector9DataProtoC2Ev
FNDA:0,_ZN6aurora9collector9DataProtoD2Ev
FNF:2
FNH:0
DA:40,0
DA:41,0
LF:2
LH:0
end_of_record
TN:
SF:/home/xucong/caicAD/01datainfra/Aurora/aurora-edge-runtime/src/data_collection/uploader/protocol/mqtt_wrapper.cpp
FN:12,_ZN6aurora9collector11MqttWrapperC2Ev
FN:14,_ZN6aurora9collector11MqttWrapperD2Ev
FN:19,_ZN6aurora9collector11MqttWrapper4InitERKNSt7__cxx1112basic_stringIcSt11char_traitsIcESaIcEEES9_S9_S9_i
FN:46,_ZN6aurora9collector11MqttWrapper4InitERKNSt7__cxx1112basic_stringIcSt11char_traitsIcESaIcEEES9_S9_S9_S9_S9_S9_i
FN:83,_ZN6aurora9collector11MqttWrapper7ConnectEi
FN:100,_ZN6aurora9collector11MqttWrapper10DisconnectEv
FN:110,_ZN6aurora9collector11MqttWrapper7PublishERKNSt7__cxx1112basic_stringIcSt11char_traitsIcESaIcEEES9_ib
FN:128,_ZN6aurora9collector11MqttWrapper9SubscribeERKNSt7__cxx1112basic_stringIcSt11char_traitsIcESaIcEEEi
FN:147,_ZN6aurora9collector11MqttWrapper16MqttCallbackImplC2EPS1_
FN:147,_ZN6aurora9collector11MqttWrapper16MqttCallbackImplC1EPS1_
FN:151,_ZN6aurora9collector11MqttWrapper16MqttCallbackImpl15message_arrivedESt10shared_ptrIKN4mqtt7messageEE
FN:158,_ZN6aurora9collector11MqttWrapper16MqttCallbackImpl15connection_lostERKNSt7__cxx1112basic_stringIcSt11char_traitsIcESaIcEEE
FN:164,_ZZN6aurora9collector11MqttWrapper16MqttCallbackImpl15connection_lostERKNSt7__cxx1112basic_stringIcSt11char_traitsIcESaIcEEEENKUlvE_clEv
FN:193,_ZN6aurora9collector11MqttWrapper18SetMessageCallbackESt8functionIFvRKNSt7__cxx1112basic_stringIcSt11char_traitsIcESaIcEEESA_EE
FNDA:0,_ZN6aurora9collector11MqttWrapperC2Ev
FNDA:0,_ZN6aurora9collector11MqttWrapper7ConnectEi
FNDA:0,_ZZN6aurora9collector11MqttWrapper16MqttCallbackImpl15connection_lostERKNSt7__cxx1112basic_stringIcSt11char_traitsIcESaIcEEEENKUlvE_clEv
FNDA:0,_ZN6aurora9collector11MqttWrapper16MqttCallbackImplC2EPS1_
FNDA:0,_ZN6aurora9collector11MqttWrapper16MqttCallbackImplC1EPS1_
FNDA:0,_ZN6aurora9collector11MqttWrapper4InitERKNSt7__cxx1112basic_stringIcSt11char_traitsIcESaIcEEES9_S9_S9_i
FNDA:0,_ZN6aurora9collector11MqttWrapper9SubscribeERKNSt7__cxx1112basic_stringIcSt11char_traitsIcESaIcEEEi
FNDA:0,_ZN6aurora9collector11MqttWrapper16MqttCallbackImpl15message_arrivedESt10shared_ptrIKN4mqtt7messageEE
FNDA:0,_ZN6aurora9collector11MqttWrapper7PublishERKNSt7__cxx1112basic_stringIcSt11char_traitsIcESaIcEEES9_ib
FNDA:0,_ZN6aurora9collector11MqttWrapper10DisconnectEv
FNDA:0,_ZN6aurora9collector11MqttWrapper16MqttCallbackImpl15connection_lostERKNSt7__cxx1112basic_stringIcSt11char_traitsIcESaIcEEE
FNDA:0,_ZN6aurora9collector11MqttWrapper4InitERKNSt7__cxx1112basic_stringIcSt11char_traitsIcESaIcEEES9_S9_S9_S9_S9_S9_i
FNDA:0,_ZN6aurora9collector11MqttWrapperD2Ev
FNDA:0,_ZN6aurora9collector11MqttWrapper18SetMessageCallbackESt8functionIFvRKNSt7__cxx1112basic_stringIcSt11char_traitsIcESaIcEEESA_EE
FNF:14
FNH:0
BRDA:12,0,0,-
BRDA:12,0,1,-
BRDA:15,0,0,-
BRDA:15,0,1,-
BRDA:24,0,0,-
BRDA:24,0,1,-
BRDA:24,0,2,-
BRDA:24,0,3,-
BRDA:24,0,4,-
BRDA:24,0,5,-
BRDA:24,0,6,-
BRDA:24,0,7,-
BRDA:30,0,0,-
BRDA:30,0,1,-
BRDA:36,0,0,-
BRDA:36,0,1,-
BRDA:37,0,0,-
BRDA:37,0,1,-
BRDA:38,0,0,-
BRDA:38,0,1,-
BRDA:38,0,2,-
BRDA:38,0,3,-
BRDA:39,0,0,-
BRDA:39,0,1,-
BRDA:39,0,2,-
BRDA:39,0,3,-
BRDA:40,0,0,-
BRDA:40,0,1,-
BRDA:40,0,2,-
BRDA:40,0,3,-
BRDA:54,0,0,-
BRDA:54,0,1,-
BRDA:54,0,2,-
BRDA:54,0,3,-
BRDA:54,0,4,-
BRDA:54,0,5,-
BRDA:54,0,6,-
BRDA:54,0,7,-
BRDA:58,0,0,-
BRDA:58,0,1,-
BRDA:59,0,0,-
BRDA:59,0,1,-
BRDA:60,0,0,-
BRDA:60,0,1,-
BRDA:61,0,0,-
BRDA:61,0,1,-
BRDA:62,0,0,-
BRDA:62,0,1,-
BRDA:65,0,0,-
BRDA:65,0,1,-
BRDA:66,0,0,-
BRDA:66,0,1,-
BRDA:67,0,0,-
BRDA:67,0,1,-
BRDA:68,0,0,-
BRDA:68,0,1,-
BRDA:70,0,0,-
BRDA:70,0,1,-
BRDA:72,0,0,-
BRDA:72,0,1,-
BRDA:73,0,0,-
BRDA:73,0,1,-
BRDA:74,0,0,-
BRDA:74,0,1,-
BRDA:75,0,0,-
BRDA:75,0,1,-
BRDA:76,0,0,-
BRDA:76,0,1,-
BRDA:76,0,2,-
BRDA:76,0,3,-
BRDA:77,0,0,-
BRDA:77,0,1,-
BRDA:77,0,2,-
BRDA:77,0,3,-
BRDA:78,0,0,-
BRDA:78,0,1,-
BRDA:78,0,2,-
BRDA:78,0,3,-
BRDA:84,0,0,-
BRDA:84,0,1,-
BRDA:85,0,0,-
BRDA:85,0,1,-
BRDA:85,0,2,-
BRDA:85,0,3,-
BRDA:85,0,4,-
BRDA:85,0,5,-
BRDA:86,0,0,-
BRDA:86,0,1,-
BRDA:90,0,0,-
BRDA:90,0,1,-
BRDA:90,0,2,-
BRDA:90,0,3,-
BRDA:91,0,0,-
BRDA:91,0,1,-
BRDA:95,0,0,-
BRDA:95,0,1,-
BRDA:101,0,0,-
BRDA:101,0,1,-
BRDA:102,0,0,-
BRDA:102,0,1,-
BRDA:102,0,2,-
BRDA:102,0,3,-
BRDA:102,0,4,-
BRDA:102,0,5,-
BRDA:104,0,0,-
BRDA:104,0,1,-
BRDA:104,0,2,-
BRDA:104,0,3,-
BRDA:105,0,0,0
BRDA:105,0,1,0
BRDA:114,0,0,-
BRDA:114,0,1,-
BRDA:115,0,0,-
BRDA:115,0,1,-
BRDA:115,0,2,-
BRDA:115,0,3,-
BRDA:115,0,4,-
BRDA:115,0,5,-
BRDA:115,0,6,-
BRDA:115,0,7,-
BRDA:115,0,8,-
BRDA:115,0,9,-
BRDA:120,0,0,-
BRDA:120,0,1,-
BRDA:120,0,2,-
BRDA:120,0,3,-
BRDA:120,0,4,-
BRDA:120,0,5,-
BRDA:121,0,0,-
BRDA:121,0,1,-
BRDA:121,0,2,-
BRDA:121,0,3,-
BRDA:123,0,0,-
BRDA:123,0,1,-
BRDA:129,0,0,-
BRDA:129,0,1,-
BRDA:130,0,0,-
BRDA:130,0,1,-
BRDA:130,0,2,-
BRDA:130,0,3,-
BRDA:130,0,4,-
BRDA:130,0,5,-
BRDA:130,0,6,-
BRDA:130,0,7,-
BRDA:130,0,8,-
BRDA:130,0,9,-
BRDA:135,0,0,-
BRDA:135,0,1,-
BRDA:135,0,2,-
BRDA:135,0,3,-
BRDA:136,0,0,-
BRDA:136,0,1,-
BRDA:138,0,0,-
BRDA:138,0,1,-
BRDA:138,0,2,-
BRDA:138,0,3,-
BRDA:139,0,0,-
BRDA:139,0,1,-
BRDA:142,0,0,-
BRDA:142,0,1,-
BRDA:142,0,2,-
BRDA:142,0,3,-
BRDA:145,0,0,-
BRDA:145,0,1,-
BRDA:152,0,0,-
BRDA:152,0,1,-
BRDA:153,0,0,-
BRDA:153,0,1,-
BRDA:153,0,2,-
BRDA:153,0,3,-
BRDA:159,0,0,-
BRDA:159,0,1,-
BRDA:161,0,0,-
BRDA:161,0,1,-
BRDA:161,0,2,-
BRDA:161,0,3,-
BRDA:163,0,0,-
BRDA:163,0,1,-
BRDA:164,0,0,-
BRDA:164,0,1,-
BRDA:169,0,0,-
BRDA:169,0,1,-
BRDA:169,0,2,-
BRDA:169,0,3,-
BRDA:170,0,0,-
BRDA:170,0,1,-
BRDA:172,0,0,-
BRDA:172,0,1,-
BRDA:174,0,0,-
BRDA:174,0,1,-
BRDA:175,0,0,-
BRDA:175,0,1,-
BRDA:176,0,0,-
BRDA:176,0,1,-
BRDA:177,0,0,-
BRDA:177,0,1,-
BRDA:177,0,2,-
BRDA:177,0,3,-
BRDA:177,0,4,-
BRDA:177,0,5,-
BRDA:179,0,0,-
BRDA:179,0,1,-
BRDA:179,0,2,-
BRDA:179,0,3,-
BRDA:186,0,0,-
BRDA:186,0,1,-
BRDA:186,0,2,-
BRDA:186,0,3,-
BRDA:187,0,0,-
BRDA:187,0,1,-
BRDA:189,0,0,-
BRDA:189,0,1,-
BRDA:194,0,0,-
BRDA:194,0,1,-
BRF:214
BRH:0
DA:12,0
DA:14,0
DA:15,0
DA:16,0
DA:17,0
DA:19,0
DA:24,0
DA:25,0
DA:28,0
DA:29,0
DA:30,0
DA:31,0
DA:32,0
DA:35,0
DA:36,0
DA:37,0
DA:38,0
DA:39,0
DA:40,0
DA:42,0
DA:46,0
DA:54,0
DA:55,0
DA:58,0
DA:59,0
DA:60,0
DA:61,0
DA:62,0
DA:65,0
DA:66,0
DA:67,0
DA:68,0
DA:69,0
DA:70,0
DA:72,0
DA:73,0
DA:74,0
DA:75,0
DA:76,0
DA:77,0
DA:78,0
DA:80,0
DA:81,0
DA:83,0
DA:84,0
DA:85,0
DA:86,0
DA:90,0
DA:91,0
DA:93,0
DA:94,0
DA:95,0
DA:96,0
DA:97,0
DA:98,0
DA:100,0
DA:101,0
DA:102,0
DA:104,0
DA:105,0
DA:106,0
DA:108,0
DA:110,0
DA:114,0
DA:115,0
DA:116,0
DA:120,0
DA:121,0
DA:122,0
DA:123,0
DA:124,0
DA:125,0
DA:126,0
DA:128,0
DA:129,0
DA:130,0
DA:131,0
DA:135,0
DA:136,0
DA:138,0
DA:139,0
DA:140,0
DA:142,0
DA:143,0
DA:144,0
DA:145,0
DA:147,0
DA:148,0
DA:149,0
DA:151,0
DA:152,0
DA:153,0
DA:156,0
DA:158,0
DA:159,0
DA:160,0
DA:161,0
DA:163,0
DA:164,0
DA:165,0
DA:166,0
DA:167,0
DA:169,0
DA:170,0
DA:171,0
DA:172,0
DA:174,0
DA:175,0
DA:176,0
DA:177,0
DA:179,0
DA:180,0
DA:181,0
DA:182,0
DA:183,0
DA:186,0
DA:187,0
DA:189,0
DA:191,0
DA:193,0
DA:194,0
DA:195,0
DA:196,0
LF:123
LH:0
end_of_record
TN:
SF:/home/xucong/caicAD/01datainfra/Aurora/aurora-edge-runtime/src/data_collection_planner.cpp
FN:21,_ZN6aurora21DataCollectionPlannerD0Ev
FN:21,_ZN6aurora21DataCollectionPlannerD2Ev
FN:26,_ZN6aurora21DataCollectionPlannerC2ERKNSt7__cxx1112basic_stringIcSt11char_traitsIcESaIcEEES8_NS_7planner11PlannerModeE
FN:52,_ZZN6aurora21DataCollectionPlannerC4ERKNSt7__cxx1112basic_stringIcSt11char_traitsIcESaIcEEES8_NS_7planner11PlannerModeEENKUlRKNS_9collector17EnvironmentChangeEE_clESE_
FN:56,_ZZN6aurora21DataCollectionPlannerC4ERKNSt7__cxx1112basic_stringIcSt11char_traitsIcESaIcEEES8_NS_7planner11PlannerModeEENKUlRKSt6vectorINS_9collector18ExperienceMetadataESaISD_EEE0_clESH_
FN:77,_ZN6aurora21DataCollectionPlanner10initializeEv
FN:93,_ZZN6aurora21DataCollectionPlanner10initializeEvENKUlRKSt6vectorINS_9collector9DataPointESaIS3_EEE_clES7_
FN:124,_ZN6aurora21DataCollectionPlanner14setMissionAreaERKNS_9collector11MissionAreaE
FN:147,_ZN6aurora21DataCollectionPlanner25planDataCollectionMissionEv
FN:203,_ZN6aurora21DataCollectionPlanner17updateWithNewDataERKSt6vectorINS_9collector9DataPointESaIS3_EE
FN:228,_ZN6aurora21DataCollectionPlanner19uploadCollectedDataEv
FN:241,_ZN6aurora21DataCollectionPlanner21reportCoverageMetricsEv
FN:272,_ZN6aurora21DataCollectionPlanner10getCostMapEv
FN:281,_ZN6aurora21DataCollectionPlanner17calculateDistanceERK5PointS3_
FN:287,_ZN6aurora21DataCollectionPlanner20createTriggerContextERK5PointmRKNSt7__cxx1112basic_stringIcSt11char_traitsIcESaIcEEE
FN:297,_ZN6aurora21DataCollectionPlanner17collectAtWaypointERK5PointmS3_RKNSt6chrono10time_pointINS4_3_V212steady_clockENS4_8durationIlSt5ratioILl1ELl1000000000EEEEEE
FN:365,_ZN6aurora21DataCollectionPlanner25updateReachabilityForPathERKSt6vectorI5PointSaIS2_EERKS1_INS_9collector9DataPointESaIS8_EEPNS_7planner7CostMapE
FN:422,_ZN6aurora21DataCollectionPlanner19executeWithFeedbackERKSt6vectorI5PointSaIS2_EE
FN:546,_ZN6aurora21DataCollectionPlanner27executeWithVelocityCommandsEv
FN:648,_ZN6aurora21DataCollectionPlanner22createCollectionResultERKSt6vectorI5PointSaIS2_EERKS1_INS_9collector9DataPointESaIS8_EEd
FN:700,_ZN6aurora21DataCollectionPlanner17onReplanTriggeredERKNS_9collector17EnvironmentChangeE
FN:737,_ZNK6aurora21DataCollectionPlanner16getLearningStatsEv
FN:744,_ZN6aurora21DataCollectionPlanner23setVisualizationEnabledEb
FN:754,_ZN6aurora21DataCollectionPlanner21setVisualizationFrameERKNSt7__cxx1112basic_stringIcSt11char_traitsIcESaIcEEE
FN:761,_ZN6aurora21DataCollectionPlanner28publishPlanningVisualizationERKSt6vectorI5PointSaIS2_EE
FN:779,_ZN6aurora21DataCollectionPlanner29publishCollectedVisualizationERKSt6vectorI5PointSaIS2_EE
FN:789,_ZN6aurora21DataCollectionPlanner27clearCollectedVisualizationEv
FN:799,_ZN6aurora21DataCollectionPlanner18setupConfigWatcherEv
FN:809,_ZZN6aurora21DataCollectionPlanner18setupConfigWatcherEvENKUlRKNSt7__cxx1112basic_stringIcSt11char_traitsIcESaIcEEEE_clES8_
FN:820,_ZN6aurora21DataCollectionPlanner15onConfigChangedERKNSt7__cxx1112basic_stringIcSt11char_traitsIcESaIcEEE
FN:853,_ZN6aurora21DataCollectionPlanner16setHumanoidStateERKNS_7planner17HumanoidStateInfoE
FN:864,_ZN6aurora21DataCollectionPlanner19planHumanoidMissionERKNS_7planner17HumanoidStateInfoE
FN:891,_ZN6aurora21DataCollectionPlanner27executeHumanoidWithFeedbackERKSt6vectorI5PointSaIS2_EERKNS_7planner17HumanoidStateInfoE
FN:1020,_ZN6aurora21DataCollectionPlanner20addHumanoidDataPointERKNS_7planner17DataPointMetadataE
FN:1038,_ZN6aurora21DataCollectionPlanner21evaluateLocationValueEddNS_7planner9SceneTypeE
FN:1051,_ZN6aurora21DataCollectionPlanner23setupOdometrySubscriberEv
FN:1062,_ZZN6aurora21DataCollectionPlanner23setupOdometrySubscriberEvENKUlSt10shared_ptrIN8nav_msgs3msg9Odometry_ISaIvEEEEE_clES7_
FN:1071,_ZN6aurora21DataCollectionPlanner16odometryCallbackESt10shared_ptrIN8nav_msgs3msg9Odometry_ISaIvEEEE
FN:1114,_ZNK6aurora21DataCollectionPlanner23getCurrentRobotPositionEv
FN:1144,_ZN6aurora21DataCollectionPlanner27waitForRobotToReachWaypointERK5Pointd
FN:1176,_ZZN6aurora21DataCollectionPlanner27waitForRobotToReachWaypointERK5PointdENKUlvE_clEv
FNDA:0,_ZNK6aurora21DataCollectionPlanner16getLearningStatsEv
FNDA:0,_ZN6aurora21DataCollectionPlannerC2ERKNSt7__cxx1112basic_stringIcSt11char_traitsIcESaIcEEES8_NS_7planner11PlannerModeE
FNDA:0,_ZN6aurora21DataCollectionPlanner27waitForRobotToReachWaypointERK5Pointd
FNDA:0,_ZZN6aurora21DataCollectionPlanner27waitForRobotToReachWaypointERK5PointdENKUlvE_clEv
FNDA:0,_ZN6aurora21DataCollectionPlanner17calculateDistanceERK5PointS3_
FNDA:0,_ZN6aurora21DataCollectionPlanner25updateReachabilityForPathERKSt6vectorI5PointSaIS2_EERKS1_INS_9collector9DataPointESaIS8_EEPNS_7planner7CostMapE
FNDA:0,_ZZN6aurora21DataCollectionPlannerC4ERKNSt7__cxx1112basic_stringIcSt11char_traitsIcESaIcEEES8_NS_7planner11PlannerModeEENKUlRKNS_9collector17EnvironmentChangeEE_clESE_
FNDA:0,_ZN6aurora21DataCollectionPlannerD0Ev
FNDA:0,_ZN6aurora21DataCollectionPlanner29publishCollectedVisualizationERKSt6vectorI5PointSaIS2_EE
FNDA:0,_ZN6aurora21DataCollectionPlanner14setMissionAreaERKNS_9collector11MissionAreaE
FNDA:0,_ZN6aurora21DataCollectionPlanner17collectAtWaypointERK5PointmS3_RKNSt6chrono10time_pointINS4_3_V212steady_clockENS4_8durationIlSt5ratioILl1ELl1000000000EEEEEE
FNDA:0,_ZZN6aurora21DataCollectionPlannerC4ERKNSt7__cxx1112basic_stringIcSt11char_traitsIcESaIcEEES8_NS_7planner11PlannerModeEENKUlRKSt6vectorINS_9collector18ExperienceMetadataESaISD_EEE0_clESH_
FNDA:0,_ZN6aurora21DataCollectionPlanner10getCostMapEv
FNDA:0,_ZN6aurora21DataCollectionPlanner17updateWithNewDataERKSt6vectorINS_9collector9DataPointESaIS3_EE
FNDA:0,_ZN6aurora21DataCollectionPlanner27executeWithVelocityCommandsEv
FNDA:0,_ZZN6aurora21DataCollectionPlanner23setupOdometrySubscriberEvENKUlSt10shared_ptrIN8nav_msgs3msg9Odometry_ISaIvEEEEE_clES7_
FNDA:0,_ZN6aurora21DataCollectionPlanner19executeWithFeedbackERKSt6vectorI5PointSaIS2_EE
FNDA:0,_ZN6aurora21DataCollectionPlanner21reportCoverageMetricsEv
FNDA:0,_ZN6aurora21DataCollectionPlanner25planDataCollectionMissionEv
FNDA:0,_ZN6aurora21DataCollectionPlanner19uploadCollectedDataEv
FNDA:0,_ZZN6aurora21DataCollectionPlanner18setupConfigWatcherEvENKUlRKNSt7__cxx1112basic_stringIcSt11char_traitsIcESaIcEEEE_clES8_
FNDA:0,_ZN6aurora21DataCollectionPlanner16setHumanoidStateERKNS_7planner17HumanoidStateInfoE
FNDA:0,_ZN6aurora21DataCollectionPlanner10initializeEv
FNDA:0,_ZN6aurora21DataCollectionPlanner23setupOdometrySubscriberEv
FNDA:0,_ZNK6aurora21DataCollectionPlanner23getCurrentRobotPositionEv
FNDA:0,_ZN6aurora21DataCollectionPlanner16odometryCallbackESt10shared_ptrIN8nav_msgs3msg9Odometry_ISaIvEEEE
FNDA:0,_ZN6aurora21DataCollectionPlanner18setupConfigWatcherEv
FNDA:0,_ZN6aurora21DataCollectionPlanner27clearCollectedVisualizationEv
FNDA:0,_ZN6aurora21DataCollectionPlanner15onConfigChangedERKNSt7__cxx1112basic_stringIcSt11char_traitsIcESaIcEEE
FNDA:0,_ZN6aurora21DataCollectionPlanner20createTriggerContextERK5PointmRKNSt7__cxx1112basic_stringIcSt11char_traitsIcESaIcEEE
FNDA:0,_ZN6aurora21DataCollectionPlanner28publishPlanningVisualizationERKSt6vectorI5PointSaIS2_EE
FNDA:0,_ZN6aurora21DataCollectionPlanner17onReplanTriggeredERKNS_9collector17EnvironmentChangeE
FNDA:0,_ZN6aurora21DataCollectionPlanner19planHumanoidMissionERKNS_7planner17HumanoidStateInfoE
FNDA:0,_ZZN6aurora21DataCollectionPlanner10initializeEvENKUlRKSt6vectorINS_9collector9DataPointESaIS3_EEE_clES7_
FNDA:0,_ZN6aurora21DataCollectionPlannerD2Ev
FNDA:0,_ZN6aurora21DataCollectionPlanner22createCollectionResultERKSt6vectorI5PointSaIS2_EERKS1_INS_9collector9DataPointESaIS8_EEd
FNDA:0,_ZN6aurora21DataCollectionPlanner27executeHumanoidWithFeedbackERKSt6vectorI5PointSaIS2_EERKNS_7planner17HumanoidStateInfoE
FNDA:0,_ZN6aurora21DataCollectionPlanner20addHumanoidDataPointERKNS_7planner17DataPointMetadataE
FNDA:0,_ZN6aurora21DataCollectionPlanner21evaluateLocationValueEddNS_7planner9SceneTypeE
FNDA:0,_ZN6aurora21DataCollectionPlanner23setVisualizationEnabledEb
FNDA:0,_ZN6aurora21DataCollectionPlanner21setVisualizationFrameERKNSt7__cxx1112basic_stringIcSt11char_traitsIcESaIcEEE
FNF:41
FNH:0
BRDA:29,0,0,-
BRDA:29,0,1,-
BRDA:29,0,2,-
BRDA:29,0,3,-
BRDA:29,0,4,-
BRDA:29,0,5,-
BRDA:29,0,6,-
BRDA:29,0,7,-
BRDA:29,0,8,-
BRDA:29,0,9,-
BRDA:29,0,10,-
BRDA:29,0,11,-
BRDA:31,0,0,-
BRDA:31,0,1,-
BRDA:35,0,0,-
BRDA:35,0,1,-
BRDA:36,0,0,-
BRDA:36,0,1,-
BRDA:37,0,0,-
BRDA:37,0,1,-
BRDA:39,0,0,-
BRDA:39,0,1,-
BRDA:45,0,0,-
BRDA:45,0,1,-
BRDA:47,0,0,-
BRDA:47,0,1,-
BRDA:50,0,0,-
BRDA:50,0,1,-
BRDA:52,0,0,-
BRDA:52,0,1,-
BRDA:56,0,0,-
BRDA:56,0,1,-
BRDA:58,0,0,-
BRDA:58,0,1,-
BRDA:64,0,0,-
BRDA:64,0,1,-
BRDA:66,0,0,-
BRDA:66,0,1,-
BRDA:70,0,0,-
BRDA:70,0,1,-
BRDA:71,0,0,-
BRDA:71,0,1,-
BRDA:78,0,0,-
BRDA:78,0,1,-
BRDA:78,0,2,-
BRDA:78,0,3,-
BRDA:78,0,4,-
BRDA:78,0,5,-
BRDA:81,0,0,-
BRDA:81,0,1,-
BRDA:81,0,2,-
BRDA:81,0,3,-
BRDA:81,0,4,-
BRDA:81,0,5,-
BRDA:82,0,0,-
BRDA:82,0,1,-
BRDA:83,0,0,-
BRDA:83,0,1,-
BRDA:84,0,0,-
BRDA:84,0,1,-
BRDA:87,0,0,-
BRDA:87,0,1,-
BRDA:88,0,0,-
BRDA:88,0,1,-
BRDA:88,0,2,-
BRDA:88,0,3,-
BRDA:92,0,0,-
BRDA:92,0,1,-
BRDA:92,0,2,-
BRDA:92,0,3,-
BRDA:93,0,0,-
BRDA:93,0,1,-
BRDA:96,0,0,-
BRDA:96,0,1,-
BRDA:96,0,2,-
BRDA:96,0,3,-
BRDA:97,0,0,-
BRDA:97,0,1,-
BRDA:97,0,2,-
BRDA:97,0,3,-
BRDA:101,0,0,-
BRDA:101,0,1,-
BRDA:101,0,2,-
BRDA:101,0,3,-
BRDA:102,0,0,-
BRDA:102,0,1,-
BRDA:102,0,2,-
BRDA:102,0,3,-
BRDA:103,0,0,-
BRDA:103,0,1,-
BRDA:103,0,2,-
BRDA:103,0,3,-
BRDA:107,0,0,-
BRDA:107,0,1,-
BRDA:107,0,2,-
BRDA:107,0,3,-
BRDA:108,0,0,-
BRDA:108,0,1,-
BRDA:110,0,0,-
BRDA:110,0,1,-
BRDA:111,0,0,-
BRDA:111,0,1,-
BRDA:113,0,0,-
BRDA:113,0,1,-
BRDA:113,0,2,-
BRDA:113,0,3,-
BRDA:114,0,0,-
BRDA:114,0,1,-
BRDA:114,0,2,-
BRDA:114,0,3,-
BRDA:117,0,0,-
BRDA:117,0,1,-
BRDA:117,0,2,-
BRDA:117,0,3,-
BRDA:117,0,4,-
BRDA:117,0,5,-
BRDA:118,0,0,-
BRDA:118,0,1,-
BRDA:118,0,2,-
BRDA:118,0,3,-
BRDA:120,0,0,-
BRDA:120,0,1,-
BRDA:120,0,2,-
BRDA:120,0,3,-
BRDA:125,0,0,-
BRDA:125,0,1,-
BRDA:125,0,2,-
BRDA:125,0,3,-
BRDA:132,0,0,-
BRDA:132,0,1,-
BRDA:134,0,0,-
BRDA:134,0,1,-
BRDA:134,0,2,-
BRDA:134,0,3,-
BRDA:134,0,4,-
BRDA:134,0,5,-
BRDA:135,0,0,-
BRDA:135,0,1,-
BRDA:135,0,2,-
BRDA:135,0,3,-
BRDA:136,0,0,-
BRDA:136,0,1,-
BRDA:140,0,0,-
BRDA:140,0,1,-
BRDA:140,0,2,-
BRDA:140,0,3,-
BRDA:140,0,4,-
BRDA:140,0,5,-
BRDA:140,0,6,-
BRDA:140,0,7,-
BRDA:140,0,8,-
BRDA:140,0,9,-
BRDA:148,0,0,-
BRDA:148,0,1,-
BRDA:150,0,0,-
BRDA:150,0,1,-
BRDA:150,0,2,-
BRDA:150,0,3,-
BRDA:150,0,4,-
BRDA:150,0,5,-
BRDA:151,0,0,-
BRDA:151,0,1,-
BRDA:151,0,2,-
BRDA:151,0,3,-
BRDA:158,0,0,-
BRDA:158,0,1,-
BRDA:159,0,0,-
BRDA:159,0,1,-
BRDA:162,0,0,-
BRDA:162,0,1,-
BRDA:162,0,2,-
BRDA:162,0,3,-
BRDA:166,0,0,-
BRDA:166,0,1,-
BRDA:169,0,0,-
BRDA:169,0,1,-
BRDA:172,0,0,-
BRDA:172,0,1,-
BRDA:173,0,0,-
BRDA:173,0,1,-
BRDA:174,0,0,-
BRDA:174,0,1,-
BRDA:177,0,0,-
BRDA:177,0,1,-
BRDA:177,0,2,-
BRDA:177,0,3,-
BRDA:178,0,0,-
BRDA:178,0,1,-
BRDA:182,0,0,-
BRDA:182,0,1,-
BRDA:182,0,2,-
BRDA:182,0,3,-
BRDA:182,0,4,-
BRDA:182,0,5,-
BRDA:183,0,0,-
BRDA:183,0,1,-
BRDA:183,0,2,-
BRDA:183,0,3,-
BRDA:189,0,0,-
BRDA:189,0,1,-
BRDA:192,0,0,-
BRDA:192,0,1,-
BRDA:192,0,2,-
BRDA:192,0,3,-
BRDA:193,0,0,-
BRDA:193,0,1,-
BRDA:197,0,0,-
BRDA:197,0,1,-
BRDA:204,0,0,-
BRDA:204,0,1,-
BRDA:206,0,0,-
BRDA:206,0,1,-
BRDA:207,0,0,-
BRDA:207,0,1,-
BRDA:212,0,0,-
BRDA:212,0,1,-
BRDA:212,0,2,-
BRDA:212,0,3,-
BRDA:212,0,4,-
BRDA:212,0,5,-
BRDA:214,0,0,-
BRDA:214,0,1,-
BRDA:218,0,0,-
BRDA:218,0,1,-
BRDA:222,0,0,-
BRDA:222,0,1,-
BRDA:225,0,0,-
BRDA:225,0,1,-
BRDA:229,0,0,-
BRDA:229,0,1,-
BRDA:232,0,0,-
BRDA:232,0,1,-
BRDA:233,0,0,-
BRDA:233,0,1,-
BRDA:237,0,0,-
BRDA:237,0,1,-
BRDA:242,0,0,-
BRDA:242,0,1,-
BRDA:245,0,0,-
BRDA:245,0,1,-
BRDA:245,0,2,-
BRDA:245,0,3,-
BRDA:245,0,4,-
BRDA:245,0,5,-
BRDA:247,0,0,-
BRDA:247,0,1,-
BRDA:252,0,0,-
BRDA:252,0,1,-
BRDA:255,0,0,-
BRDA:255,0,1,-
BRDA:261,0,0,-
BRDA:261,0,1,-
BRDA:262,0,0,-
BRDA:262,0,1,-
BRDA:263,0,0,-
BRDA:263,0,1,-
BRDA:264,0,0,-
BRDA:264,0,1,-
BRDA:266,0,0,-
BRDA:266,0,1,-
BRDA:267,0,0,-
BRDA:267,0,1,-
BRDA:269,0,0,-
BRDA:269,0,1,-
BRDA:273,0,0,-
BRDA:273,0,1,-
BRDA:273,0,2,-
BRDA:273,0,3,-
BRDA:273,0,4,-
BRDA:273,0,5,-
BRDA:275,0,0,-
BRDA:275,0,1,-
BRDA:291,0,0,-
BRDA:291,0,1,-
BRDA:292,0,0,-
BRDA:292,0,1,-
BRDA:292,0,2,-
BRDA:292,0,3,-
BRDA:292,0,4,-
BRDA:292,0,5,-
BRDA:292,0,6,-
BRDA:292,0,7,-
BRDA:292,0,8,-
BRDA:292,0,9,-
BRDA:292,0,10,-
BRDA:292,0,11,-
BRDA:292,0,12,-
BRDA:292,0,13,-
BRDA:292,0,14,-
BRDA:292,0,15,-
BRDA:293,0,0,-
BRDA:293,0,1,-
BRDA:303,0,0,-
BRDA:303,0,1,-
BRDA:306,0,0,-
BRDA:306,0,1,-
BRDA:306,0,2,-
BRDA:306,0,3,-
BRDA:307,0,0,-
BRDA:307,0,1,-
BRDA:308,0,0,-
BRDA:308,0,1,-
BRDA:309,0,0,-
BRDA:309,0,1,-
BRDA:309,0,2,-
BRDA:309,0,3,-
BRDA:314,0,0,-
BRDA:314,0,1,-
BRDA:314,0,2,-
BRDA:314,0,3,-
BRDA:315,0,0,-
BRDA:315,0,1,-
BRDA:315,0,2,-
BRDA:315,0,3,-
BRDA:319,0,0,-
BRDA:319,0,1,-
BRDA:319,0,2,-
BRDA:319,0,3,-
BRDA:320,0,0,-
BRDA:320,0,1,-
BRDA:320,0,2,-
BRDA:320,0,3,-
BRDA:325,0,0,-
BRDA:325,0,1,-
BRDA:326,0,0,-
BRDA:326,0,1,-
BRDA:326,0,2,-
BRDA:326,0,3,-
BRDA:330,0,0,-
BRDA:330,0,1,-
BRDA:330,0,2,-
BRDA:330,0,3,-
BRDA:332,0,0,-
BRDA:332,0,1,-
BRDA:332,0,2,-
BRDA:332,0,3,-
BRDA:333,0,0,-
BRDA:333,0,1,-
BRDA:333,0,2,-
BRDA:333,0,3,-
BRDA:337,0,0,-
BRDA:337,0,1,-
BRDA:338,0,0,-
BRDA:338,0,1,-
BRDA:339,0,0,-
BRDA:339,0,1,-
BRDA:341,0,0,-
BRDA:341,0,1,-
BRDA:347,0,0,-
BRDA:347,0,1,-
BRDA:348,0,0,-
BRDA:348,0,1,-
BRDA:349,0,0,-
BRDA:349,0,1,-
BRDA:350,0,0,-
BRDA:350,0,1,-
BRDA:350,0,2,-
BRDA:350,0,3,-
BRDA:354,0,0,-
BRDA:354,0,1,-
BRDA:355,0,0,-
BRDA:355,0,1,-
BRDA:356,0,0,-
BRDA:356,0,1,-
BRDA:356,0,2,-
BRDA:356,0,3,-
BRDA:361,0,0,-
BRDA:361,0,1,-
BRDA:361,0,2,-
BRDA:361,0,3,-
BRDA:361,0,4,-
BRDA:361,0,5,-
BRDA:361,0,6,-
BRDA:361,0,7,-
BRDA:361,0,8,-
BRDA:361,0,9,-
BRDA:362,0,0,-
BRDA:362,0,1,-
BRDA:370,0,0,-
BRDA:370,0,1,-
BRDA:370,0,2,-
BRDA:370,0,3,-
BRDA:370,0,4,-
BRDA:370,0,5,-
BRDA:379,0,0,-
BRDA:379,0,1,-
BRDA:379,0,2,-
BRDA:379,0,3,-
BRDA:379,0,4,-
BRDA:379,0,5,-
BRDA:382,0,0,-
BRDA:382,0,1,-
BRDA:384,0,0,-
BRDA:384,0,1,-
BRDA:387,0,0,-
BRDA:387,0,1,-
BRDA:391,0,0,-
BRDA:391,0,1,-
BRDA:395,0,0,-
BRDA:395,0,1,-
BRDA:396,0,0,-
BRDA:396,0,1,-
BRDA:397,0,0,-
BRDA:397,0,1,-
BRDA:400,0,0,-
BRDA:400,0,1,-
BRDA:400,0,2,-
BRDA:400,0,3,-
BRDA:402,0,0,-
BRDA:402,0,1,-
BRDA:402,0,2,-
BRDA:402,0,3,-
BRDA:408,0,0,-
BRDA:408,0,1,-
BRDA:409,0,0,-
BRDA:409,0,1,-
BRDA:410,0,0,-
BRDA:410,0,1,-
BRDA:410,0,2,-
BRDA:410,0,3,-
BRDA:412,0,0,-
BRDA:412,0,1,-
BRDA:416,0,0,-
BRDA:416,0,1,-
BRDA:416,0,2,-
BRDA:416,0,3,-
BRDA:417,0,0,-
BRDA:417,0,1,-
BRDA:417,0,2,-
BRDA:417,0,3,-
BRDA:418,0,0,-
BRDA:418,0,1,-
BRDA:418,0,2,-
BRDA:418,0,3,-
BRDA:423,0,0,-
BRDA:423,0,1,-
BRDA:423,0,2,-
BRDA:423,0,3,-
BRDA:427,0,0,-
BRDA:427,0,1,-
BRDA:428,0,0,-
BRDA:428,0,1,-
BRDA:430,0,0,-
BRDA:430,0,1,-
BRDA:431,0,0,-
BRDA:431,0,1,-
BRDA:432,0,0,-
BRDA:432,0,1,-
BRDA:432,0,2,-
BRDA:432,0,3,-
BRDA:435,0,0,-
BRDA:435,0,1,-
BRDA:435,0,2,-
BRDA:435,0,3,-
BRDA:439,0,0,-
BRDA:439,0,1,-
BRDA:440,0,0,-
BRDA:440,0,1,-
BRDA:440,0,2,-
BRDA:440,0,3,-
BRDA:445,0,0,-
BRDA:445,0,1,-
BRDA:446,0,0,-
BRDA:446,0,1,-
BRDA:446,0,2,-
BRDA:446,0,3,-
BRDA:449,0,0,-
BRDA:449,0,1,-
BRDA:449,0,2,-
BRDA:449,0,3,-
BRDA:449,0,4,-
BRDA:449,0,5,-
BRDA:449,0,6,-
BRDA:449,0,7,-
BRDA:450,0,0,-
BRDA:450,0,1,-
BRDA:450,0,2,-
BRDA:450,0,3,-
BRDA:454,0,0,-
BRDA:454,0,1,-
BRDA:454,0,2,-
BRDA:454,0,3,-
BRDA:454,0,4,-
BRDA:454,0,5,-
BRDA:455,0,0,-
BRDA:455,0,1,-
BRDA:455,0,2,-
BRDA:455,0,3,-
BRDA:458,0,0,-
BRDA:458,0,1,-
BRDA:458,0,2,-
BRDA:458,0,3,-
BRDA:458,0,4,-
BRDA:458,0,5,-
BRDA:459,0,0,-
BRDA:459,0,1,-
BRDA:459,0,2,-
BRDA:459,0,3,-
BRDA:468,0,0,-
BRDA:468,0,1,-
BRDA:470,0,0,-
BRDA:470,0,1,-
BRDA:470,0,2,-
BRDA:470,0,3,-
BRDA:473,0,0,-
BRDA:473,0,1,-
BRDA:477,0,0,-
BRDA:477,0,1,-
BRDA:479,0,0,-
BRDA:479,0,1,-
BRDA:480,0,0,-
BRDA:480,0,1,-
BRDA:480,0,2,-
BRDA:480,0,3,-
BRDA:485,0,0,-
BRDA:485,0,1,-
BRDA:486,0,0,-
BRDA:486,0,1,-
BRDA:487,0,0,-
BRDA:487,0,1,-
BRDA:487,0,2,-
BRDA:487,0,3,-
BRDA:491,0,0,-
BRDA:491,0,1,-
BRDA:491,0,2,-
BRDA:491,0,3,-
BRDA:495,0,0,-
BRDA:495,0,1,-
BRDA:498,0,0,-
BRDA:498,0,1,-
BRDA:498,0,2,-
BRDA:498,0,3,-
BRDA:502,0,0,-
BRDA:502,0,1,-
BRDA:504,0,0,-
BRDA:504,0,1,-
BRDA:505,0,0,-
BRDA:505,0,1,-
BRDA:506,0,0,-
BRDA:506,0,1,-
BRDA:508,0,0,-
BRDA:508,0,1,-
BRDA:512,0,0,-
BRDA:512,0,1,-
BRDA:512,0,2,-
BRDA:512,0,3,-
BRDA:515,0,0,-
BRDA:515,0,1,-
BRDA:516,0,0,-
BRDA:516,0,1,-
BRDA:516,0,2,-
BRDA:516,0,3,-
BRDA:516,0,4,-
BRDA:516,0,5,-
BRDA:519,0,0,-
BRDA:519,0,1,-
BRDA:525,0,0,-
BRDA:525,0,1,-
BRDA:526,0,0,-
BRDA:526,0,1,-
BRDA:526,0,2,-
BRDA:526,0,3,-
BRDA:531,0,0,-
BRDA:531,0,1,-
BRDA:532,0,0,-
BRDA:532,0,1,-
BRDA:533,0,0,-
BRDA:533,0,1,-
BRDA:534,0,0,-
BRDA:534,0,1,-
BRDA:535,0,0,-
BRDA:535,0,1,-
BRDA:539,0,0,-
BRDA:539,0,1,-
BRDA:540,0,0,-
BRDA:540,0,1,-
BRDA:542,0,0,-
BRDA:542,0,1,-
BRDA:542,0,2,-
BRDA:542,0,3,-
BRDA:544,0,0,-
BRDA:544,0,1,-
BRDA:549,0,0,-
BRDA:549,0,1,-
BRDA:550,0,0,-
BRDA:550,0,1,-
BRDA:550,0,2,-
BRDA:550,0,3,-
BRDA:552,0,0,-
BRDA:552,0,1,-
BRDA:553,0,0,-
BRDA:553,0,1,-
BRDA:558,0,0,-
BRDA:558,0,1,-
BRDA:558,0,2,-
BRDA:558,0,3,-
BRDA:565,0,0,-
BRDA:565,0,1,-
BRDA:568,0,0,-
BRDA:568,0,1,-
BRDA:572,0,0,-
BRDA:572,0,1,-
BRDA:573,0,0,-
BRDA:573,0,1,-
BRDA:577,0,0,-
BRDA:577,0,1,-
BRDA:580,0,0,-
BRDA:580,0,1,-
BRDA:583,0,0,-
BRDA:583,0,1,-
BRDA:585,0,0,-
BRDA:585,0,1,-
BRDA:586,0,0,-
BRDA:586,0,1,-
BRDA:587,0,0,-
BRDA:587,0,1,-
BRDA:587,0,2,-
BRDA:587,0,3,-
BRDA:591,0,0,-
BRDA:591,0,1,-
BRDA:591,0,2,-
BRDA:591,0,3,-
BRDA:604,0,0,-
BRDA:604,0,1,-
BRDA:608,0,0,-
BRDA:608,0,1,-
BRDA:610,0,0,-
BRDA:610,0,1,-
BRDA:610,0,2,-
BRDA:610,0,3,-
BRDA:614,0,0,-
BRDA:614,0,1,-
BRDA:616,0,0,-
BRDA:616,0,1,-
BRDA:617,0,0,-
BRDA:617,0,1,-
BRDA:618,0,0,-
BRDA:618,0,1,-
BRDA:620,0,0,-
BRDA:620,0,1,-
BRDA:624,0,0,-
BRDA:624,0,1,-
BRDA:624,0,2,-
BRDA:624,0,3,-
BRDA:627,0,0,-
BRDA:627,0,1,-
BRDA:633,0,0,-
BRDA:633,0,1,-
BRDA:634,0,0,-
BRDA:634,0,1,-
BRDA:635,0,0,-
BRDA:635,0,1,-
BRDA:636,0,0,-
BRDA:636,0,1,-
BRDA:637,0,0,-
BRDA:637,0,1,-
BRDA:641,0,0,-
BRDA:641,0,1,-
BRDA:642,0,0,-
BRDA:642,0,1,-
BRDA:644,0,0,-
BRDA:644,0,1,-
BRDA:644,0,2,-
BRDA:644,0,3,-
BRDA:656,0,0,-
BRDA:656,0,1,-
BRDA:660,0,0,-
BRDA:660,0,1,-
BRDA:664,0,0,-
BRDA:664,0,1,-
BRDA:665,0,0,-
BRDA:665,0,1,-
BRDA:666,0,0,-
BRDA:666,0,1,-
BRDA:667,0,0,-
BRDA:667,0,1,-
BRDA:670,0,0,-
BRDA:670,0,1,-
BRDA:677,0,0,-
BRDA:677,0,1,-
BRDA:679,0,0,-
BRDA:679,0,1,-
BRDA:683,0,0,-
BRDA:683,0,1,-
BRDA:684,0,0,-
BRDA:684,0,1,-
BRDA:693,0,0,-
BRDA:693,0,1,-
BRDA:694,0,0,-
BRDA:694,0,1,-
BRDA:701,0,0,-
BRDA:701,0,1,-
BRDA:704,0,0,-
BRDA:704,0,1,-
BRDA:704,0,2,-
BRDA:704,0,3,-
BRDA:706,0,0,-
BRDA:706,0,1,-
BRDA:710,0,0,-
BRDA:710,0,1,-
BRDA:712,0,0,-
BRDA:712,0,1,-
BRDA:715,0,0,-
BRDA:715,0,1,-
BRDA:720,0,0,-
BRDA:720,0,1,-
BRDA:726,0,0,-
BRDA:726,0,1,-
BRDA:731,0,0,-
BRDA:731,0,1,-
BRDA:738,0,0,-
BRDA:738,0,1,-
BRDA:746,0,0,-
BRDA:746,0,1,-
BRDA:747,0,0,-
BRDA:747,0,1,-
BRDA:751,0,0,-
BRDA:751,0,1,-
BRDA:751,0,2,-
BRDA:751,0,3,-
BRDA:756,0,0,-
BRDA:756,0,1,-
BRDA:762,0,0,-
BRDA:762,0,1,-
BRDA:762,0,2,-
BRDA:762,0,3,-
BRDA:762,0,4,-
BRDA:762,0,5,-
BRDA:762,0,6,-
BRDA:762,0,7,-
BRDA:769,0,0,-
BRDA:769,0,1,-
BRDA:771,0,0,-
BRDA:771,0,1,-
BRDA:773,0,0,-
BRDA:773,0,1,-
BRDA:776,0,0,-
BRDA:776,0,1,-
BRDA:780,0,0,-
BRDA:780,0,1,-
BRDA:780,0,2,-
BRDA:780,0,3,-
BRDA:780,0,4,-
BRDA:780,0,5,-
BRDA:780,0,6,-
BRDA:780,0,7,-
BRDA:786,0,0,-
BRDA:786,0,1,-
BRDA:790,0,0,-
BRDA:790,0,1,-
BRDA:796,0,0,-
BRDA:796,0,1,-
BRDA:800,0,0,-
BRDA:800,0,1,-
BRDA:801,0,0,-
BRDA:801,0,1,-
BRDA:807,0,0,-
BRDA:807,0,1,-
BRDA:809,0,0,-
BRDA:809,0,1,-
BRDA:813,0,0,-
BRDA:813,0,1,-
BRDA:814,0,0,-
BRDA:814,0,1,-
BRDA:816,0,0,-
BRDA:816,0,1,-
BRDA:821,0,0,-
BRDA:821,0,1,-
BRDA:822,0,0,-
BRDA:822,0,1,-
BRDA:824,0,0,-
BRDA:824,0,1,-
BRDA:825,0,0,-
BRDA:825,0,1,-
BRDA:826,0,0,-
BRDA:826,0,1,-
BRDA:829,0,0,-
BRDA:829,0,1,-
BRDA:830,0,0,-
BRDA:830,0,1,-
BRDA:832,0,0,-
BRDA:832,0,1,-
BRDA:833,0,0,-
BRDA:833,0,1,-
BRDA:834,0,0,-
BRDA:834,0,1,-
BRDA:834,0,2,-
BRDA:834,0,3,-
BRDA:835,0,0,-
BRDA:835,0,1,-
BRDA:835,0,2,-
BRDA:835,0,3,-
BRDA:835,0,4,-
BRDA:835,0,5,-
BRDA:838,0,0,-
BRDA:838,0,1,-
BRDA:838,0,2,-
BRDA:838,0,3,-
BRDA:845,0,0,-
BRDA:845,0,1,-
BRDA:848,0,0,-
BRDA:848,0,1,-
BRDA:856,0,0,-
BRDA:856,0,1,-
BRDA:856,0,2,-
BRDA:856,0,3,-
BRDA:856,0,4,-
BRDA:856,0,5,-
BRDA:860,0,0,-
BRDA:860,0,1,-
BRDA:865,0,0,-
BRDA:865,0,1,-
BRDA:865,0,2,-
BRDA:865,0,3,-
BRDA:865,0,4,-
BRDA:865,0,5,-
BRDA:866,0,0,-
BRDA:866,0,1,-
BRDA:866,0,2,-
BRDA:866,0,3,-
BRDA:867,0,0,-
BRDA:867,0,1,-
BRDA:870,0,0,-
BRDA:870,0,1,-
BRDA:870,0,2,-
BRDA:870,0,3,-
BRDA:873,0,0,-
BRDA:873,0,1,-
BRDA:879,0,0,-
BRDA:879,0,1,-
BRDA:882,0,0,-
BRDA:882,0,1,-
BRDA:883,0,0,-
BRDA:883,0,1,-
BRDA:884,0,0,-
BRDA:884,0,1,-
BRDA:887,0,0,-
BRDA:887,0,1,-
BRDA:887,0,2,-
BRDA:887,0,3,-
BRDA:895,0,0,-
BRDA:895,0,1,-
BRDA:895,0,2,-
BRDA:895,0,3,-
BRDA:895,0,4,-
BRDA:895,0,5,-
BRDA:896,0,0,-
BRDA:896,0,1,-
BRDA:896,0,2,-
BRDA:896,0,3,-
BRDA:897,0,0,-
BRDA:897,0,1,-
BRDA:901,0,0,-
BRDA:901,0,1,-
BRDA:901,0,2,-
BRDA:901,0,3,-
BRDA:908,0,0,-
BRDA:908,0,1,-
BRDA:910,0,0,-
BRDA:910,0,1,-
BRDA:913,0,0,-
BRDA:913,0,1,-
BRDA:915,0,0,-
BRDA:915,0,1,-
BRDA:920,0,0,-
BRDA:920,0,1,-
BRDA:922,0,0,-
BRDA:922,0,1,-
BRDA:922,0,2,-
BRDA:922,0,3,-
BRDA:923,0,0,-
BRDA:923,0,1,-
BRDA:923,0,2,-
BRDA:923,0,3,-
BRDA:926,0,0,-
BRDA:926,0,1,-
BRDA:929,0,0,-
BRDA:929,0,1,-
BRDA:943,0,0,-
BRDA:943,0,1,-
BRDA:944,0,0,-
BRDA:944,0,1,-
BRDA:945,0,0,-
BRDA:945,0,1,-
BRDA:951,0,0,-
BRDA:951,0,1,-
BRDA:955,0,0,-
BRDA:955,0,1,-
BRDA:956,0,0,-
BRDA:956,0,1,-
BRDA:964,0,0,-
BRDA:964,0,1,-
BRDA:965,0,0,-
BRDA:965,0,1,-
BRDA:966,0,0,-
BRDA:966,0,1,-
BRDA:969,0,0,-
BRDA:969,0,1,-
BRDA:971,0,0,-
BRDA:971,0,1,-
BRDA:973,0,0,-
BRDA:973,0,1,-
BRDA:979,0,0,-
BRDA:979,0,1,-
BRDA:980,0,0,-
BRDA:980,0,1,-
BRDA:980,0,2,-
BRDA:980,0,3,-
BRDA:988,0,0,-
BRDA:988,0,1,-
BRDA:994,0,0,-
BRDA:994,0,1,-
BRDA:995,0,0,-
BRDA:995,0,1,-
BRDA:998,0,0,-
BRDA:998,0,1,-
BRDA:999,0,0,-
BRDA:999,0,1,-
BRDA:1003,0,0,-
BRDA:1003,0,1,-
BRDA:1003,0,2,-
BRDA:1003,0,3,-
BRDA:1006,0,0,-
BRDA:1006,0,1,-
BRDA:1007,0,0,-
BRDA:1007,0,1,-
BRDA:1008,0,0,-
BRDA:1008,0,1,-
BRDA:1008,0,2,-
BRDA:1008,0,3,-
BRDA:1008,0,4,-
BRDA:1008,0,5,-
BRDA:1008,0,6,-
BRDA:1008,0,7,-
BRDA:1008,0,8,-
BRDA:1008,0,9,-
BRDA:1009,0,0,-
BRDA:1009,0,1,-
BRDA:1012,0,0,-
BRDA:1012,0,1,-
BRDA:1014,0,0,-
BRDA:1014,0,1,-
BRDA:1016,0,0,-
BRDA:1016,0,1,-
BRDA:1016,0,2,-
BRDA:1016,0,3,-
BRDA:1021,0,0,-
BRDA:1021,0,1,-
BRDA:1021,0,2,-
BRDA:1021,0,3,-
BRDA:1021,0,4,-
BRDA:1021,0,5,-
BRDA:1022,0,0,-
BRDA:1022,0,1,-
BRDA:1025,0,0,-
BRDA:1025,0,1,-
BRDA:1026,0,0,-
BRDA:1026,0,1,-
BRDA:1026,0,2,-
BRDA:1026,0,3,-
BRDA:1026,0,4,-
BRDA:1026,0,5,-
BRDA:1026,0,6,-
BRDA:1026,0,7,-
BRDA:1027,0,0,-
BRDA:1027,0,1,-
BRDA:1030,0,0,-
BRDA:1030,0,1,-
BRDA:1030,0,2,-
BRDA:1030,0,3,-
BRDA:1030,0,4,-
BRDA:1030,0,5,-
BRDA:1034,0,0,-
BRDA:1034,0,1,-
BRDA:1041,0,0,-
BRDA:1041,0,1,-
BRDA:1041,0,2,-
BRDA:1041,0,3,-
BRDA:1041,0,4,-
BRDA:1041,0,5,-
BRDA:1042,0,0,-
BRDA:1042,0,1,-
BRDA:1054,0,0,-
BRDA:1054,0,1,-
BRDA:1057,0,0,-
BRDA:1057,0,1,-
BRDA:1060,0,0,-
BRDA:1060,0,1,-
BRDA:1060,0,2,-
BRDA:1060,0,3,-
BRDA:1060,0,4,-
BRDA:1060,0,5,-
BRDA:1061,0,0,-
BRDA:1061,0,1,-
BRDA:1063,0,0,-
BRDA:1063,0,1,-
BRDA:1068,0,0,-
BRDA:1068,0,1,-
BRDA:1068,0,2,-
BRDA:1068,0,3,-
BRDA:1075,0,0,-
BRDA:1075,0,1,-
BRDA:1092,0,0,-
BRDA:1092,0,1,-
BRDA:1093,0,0,-
BRDA:1093,0,1,-
BRDA:1097,0,0,-
BRDA:1097,0,1,-
BRDA:1104,0,0,-
BRDA:1104,0,1,-
BRDA:1104,0,2,-
BRDA:1104,0,3,-
BRDA:1104,0,4,-
BRDA:1104,0,5,-
BRDA:1104,0,6,-
BRDA:1104,0,7,-
BRDA:1105,0,0,-
BRDA:1105,0,1,-
BRDA:1108,0,0,-
BRDA:1108,0,1,-
BRDA:1115,0,0,-
BRDA:1115,0,1,-
BRDA:1117,0,0,-
BRDA:1117,0,1,-
BRDA:1119,0,0,-
BRDA:1119,0,1,-
BRDA:1120,0,0,-
BRDA:1120,0,1,-
BRDA:1120,0,2,-
BRDA:1120,0,3,-
BRDA:1127,0,0,-
BRDA:1127,0,1,-
BRDA:1128,0,0,-
BRDA:1128,0,1,-
BRDA:1131,0,0,-
BRDA:1131,0,1,-
BRDA:1132,0,0,-
BRDA:1132,0,1,-
BRDA:1133,0,0,-
BRDA:1133,0,1,-
BRDA:1134,0,0,-
BRDA:1134,0,1,-
BRDA:1135,0,0,-
BRDA:1135,0,1,-
BRDA:1135,0,2,-
BRDA:1135,0,3,-
BRDA:1136,0,0,-
BRDA:1136,0,1,-
BRDA:1136,0,2,-
BRDA:1136,0,3,-
BRDA:1148,0,0,-
BRDA:1148,0,1,-
BRDA:1149,0,0,-
BRDA:1149,0,1,-
BRDA:1149,0,2,-
BRDA:1149,0,3,-
BRDA:1155,0,0,-
BRDA:1155,0,1,-
BRDA:1156,0,0,-
BRDA:1156,0,1,-
BRDA:1157,0,0,-
BRDA:1157,0,1,-
BRDA:1158,0,0,-
BRDA:1158,0,1,-
BRDA:1159,0,0,-
BRDA:1159,0,1,-
BRDA:1159,0,2,-
BRDA:1159,0,3,-
BRDA:1162,0,0,-
BRDA:1162,0,1,-
BRDA:1162,0,2,-
BRDA:1162,0,3,-
BRDA:1167,0,0,-
BRDA:1167,0,1,-
BRDA:1173,0,0,-
BRDA:1173,0,1,-
BRDA:1175,0,0,-
BRDA:1175,0,1,-
BRDA:1176,0,0,-
BRDA:1176,0,1,-
BRDA:1183,0,0,-
BRDA:1183,0,1,-
BRDA:1184,0,0,-
BRDA:1184,0,1,-
BRDA:1185,0,0,-
BRDA:1185,0,1,-
BRDA:1186,0,0,-
BRDA:1186,0,1,-
BRDA:1186,0,2,-
BRDA:1186,0,3,-
BRDA:1191,0,0,-
BRDA:1191,0,1,-
BRDA:1192,0,0,-
BRDA:1192,0,1,-
BRDA:1194,0,0,-
BRDA:1194,0,1,-
BRDA:1195,0,0,-
BRDA:1195,0,1,-
BRDA:1196,0,0,-
BRDA:1196,0,1,-
BRDA:1197,0,0,-
BRDA:1197,0,1,-
BRDA:1197,0,2,-
BRDA:1197,0,3,-
BRDA:1199,0,0,-
BRDA:1199,0,1,-
BRDA:1199,0,2,-
BRDA:1199,0,3,-
BRDA:1200,0,0,-
BRDA:1200,0,1,-
BRDA:1200,0,2,-
BRDA:1200,0,3,-
BRDA:1204,0,0,-
BRDA:1204,0,1,-
BRDA:1204,0,2,-
BRDA:1204,0,3,-
BRF:1116
BRH:0
DA:21,0
DA:22,0
DA:23,0
DA:24,0
DA:26,0
DA:27,0
DA:28,0
DA:29,0
DA:31,0
DA:35,0
DA:36,0
DA:37,0
DA:38,0
DA:39,0
DA:45,0
DA:47,0
DA:50,0
DA:52,0
DA:53,0
DA:54,0
DA:56,0
DA:58,0
DA:64,0
DA:65,0
DA:66,0
DA:70,0
DA:71,0
DA:73,0
DA:75,0
DA:77,0
DA:78,0
DA:80,0
DA:81,0
DA:82,0
DA:83,0
DA:84,0
DA:87,0
DA:88,0
DA:89,0
DA:92,0
DA:93,0
DA:94,0
DA:95,0
DA:96,0
DA:97,0
DA:98,0
DA:101,0
DA:102,0
DA:103,0
DA:104,0
DA:107,0
DA:108,0
DA:110,0
DA:111,0
DA:113,0
DA:114,0
DA:117,0
DA:118,0
DA:120,0
DA:121,0
DA:122,0
DA:124,0
DA:125,0
DA:127,0
DA:130,0
DA:131,0
DA:132,0
DA:134,0
DA:135,0
DA:136,0
DA:137,0
DA:140,0
DA:143,0
DA:147,0
DA:148,0
DA:150,0
DA:151,0
DA:153,0
DA:154,0
DA:158,0
DA:159,0
DA:160,0
DA:161,0
DA:162,0
DA:166,0
DA:169,0
DA:171,0
DA:172,0
DA:173,0
DA:174,0
DA:177,0
DA:178,0
DA:179,0
DA:180,0
DA:182,0
DA:183,0
DA:185,0
DA:188,0
DA:189,0
DA:190,0
DA:192,0
DA:193,0
DA:194,0
DA:195,0
DA:197,0
DA:199,0
DA:203,0
DA:204,0
DA:206,0
DA:207,0
DA:208,0
DA:211,0
DA:212,0
DA:213,0
DA:214,0
DA:215,0
DA:218,0
DA:219,0
DA:220,0
DA:222,0
DA:225,0
DA:228,0
DA:229,0
DA:232,0
DA:233,0
DA:235,0
DA:237,0
DA:239,0
DA:241,0
DA:242,0
DA:244,0
DA:245,0
DA:246,0
DA:247,0
DA:248,0
DA:252,0
DA:253,0
DA:255,0
DA:259,0
DA:261,0
DA:262,0
DA:263,0
DA:264,0
DA:266,0
DA:267,0
DA:269,0
DA:270,0
DA:272,0
DA:273,0
DA:274,0
DA:275,0
DA:276,0
DA:278,0
DA:281,0
DA:282,0
DA:283,0
DA:284,0
DA:287,0
DA:289,0
DA:290,0
DA:291,0
DA:292,0
DA:293,0
DA:294,0
DA:295,0
DA:297,0
DA:303,0
DA:305,0
DA:306,0
DA:307,0
DA:308,0
DA:309,0
DA:311,0
DA:314,0
DA:315,0
DA:316,0
DA:319,0
DA:320,0
DA:321,0
DA:325,0
DA:326,0
DA:330,0
DA:332,0
DA:333,0
DA:334,0
DA:337,0
DA:338,0
DA:339,0
DA:340,0
DA:341,0
DA:342,0
DA:343,0
DA:344,0
DA:347,0
DA:348,0
DA:349,0
DA:350,0
DA:351,0
DA:354,0
DA:355,0
DA:356,0
DA:358,0
DA:361,0
DA:362,0
DA:363,0
DA:365,0
DA:370,0
DA:371,0
DA:376,0
DA:377,0
DA:379,0
DA:380,0
DA:381,0
DA:382,0
DA:384,0
DA:385,0
DA:386,0
DA:387,0
DA:388,0
DA:389,0
DA:391,0
DA:395,0
DA:396,0
DA:397,0
DA:400,0
DA:402,0
DA:403,0
DA:404,0
DA:405,0
DA:406,0
DA:408,0
DA:409,0
DA:410,0
DA:411,0
DA:412,0
DA:416,0
DA:417,0
DA:418,0
DA:422,0
DA:423,0
DA:427,0
DA:428,0
DA:429,0
DA:430,0
DA:431,0
DA:432,0
DA:435,0
DA:437,0
DA:439,0
DA:440,0
DA:441,0
DA:445,0
DA:446,0
DA:447,0
DA:449,0
DA:450,0
DA:452,0
DA:454,0
DA:455,0
DA:456,0
DA:458,0
DA:459,0
DA:460,0
DA:463,0
DA:466,0
DA:467,0
DA:468,0
DA:470,0
DA:473,0
DA:474,0
DA:477,0
DA:479,0
DA:480,0
DA:482,0
DA:485,0
DA:486,0
DA:487,0
DA:488,0
DA:489,0
DA:491,0
DA:495,0
DA:496,0
DA:498,0
DA:502,0
DA:503,0
DA:504,0
DA:505,0
DA:506,0
DA:508,0
DA:509,0
DA:511,0
DA:512,0
DA:515,0
DA:516,0
DA:517,0
DA:518,0
DA:519,0
DA:520,0
DA:525,0
DA:526,0
DA:527,0
DA:531,0
DA:532,0
DA:533,0
DA:534,0
DA:535,0
DA:539,0
DA:540,0
DA:542,0
DA:544,0
DA:546,0
DA:547,0
DA:549,0
DA:550,0
DA:552,0
DA:553,0
DA:555,0
DA:558,0
DA:561,0
DA:563,0
DA:564,0
DA:565,0
DA:568,0
DA:569,0
DA:572,0
DA:573,0
DA:574,0
DA:575,0
DA:576,0
DA:577,0
DA:580,0
DA:583,0
DA:585,0
DA:586,0
DA:587,0
DA:588,0
DA:589,0
DA:591,0
DA:596,0
DA:597,0
DA:598,0
DA:599,0
DA:600,0
DA:601,0
DA:604,0
DA:605,0
DA:606,0
DA:607,0
DA:608,0
DA:610,0
DA:614,0
DA:615,0
DA:616,0
DA:617,0
DA:618,0
DA:620,0
DA:621,0
DA:623,0
DA:624,0
DA:627,0
DA:628,0
DA:629,0
DA:633,0
DA:634,0
DA:635,0
DA:636,0
DA:637,0
DA:641,0
DA:642,0
DA:644,0
DA:645,0
DA:646,0
DA:648,0
DA:653,0
DA:656,0
DA:657,0
DA:660,0
DA:661,0
DA:662,0
DA:663,0
DA:664,0
DA:665,0
DA:666,0
DA:667,0
DA:670,0
DA:671,0
DA:672,0
DA:673,0
DA:675,0
DA:676,0
DA:677,0
DA:678,0
DA:679,0
DA:681,0
DA:683,0
DA:684,0
DA:688,0
DA:692,0
DA:693,0
DA:694,0
DA:697,0
DA:698,0
DA:700,0
DA:701,0
DA:704,0
DA:705,0
DA:706,0
DA:709,0
DA:710,0
DA:711,0
DA:712,0
DA:715,0
DA:717,0
DA:719,0
DA:720,0
DA:723,0
DA:725,0
DA:726,0
DA:728,0
DA:730,0
DA:731,0
DA:733,0
DA:735,0
DA:737,0
DA:738,0
DA:739,0
DA:741,0
DA:744,0
DA:745,0
DA:746,0
DA:747,0
DA:748,0
DA:751,0
DA:752,0
DA:754,0
DA:755,0
DA:756,0
DA:757,0
DA:759,0
DA:761,0
DA:762,0
DA:763,0
DA:766,0
DA:767,0
DA:769,0
DA:770,0
DA:771,0
DA:772,0
DA:773,0
DA:776,0
DA:779,0
DA:780,0
DA:781,0
DA:784,0
DA:786,0
DA:789,0
DA:790,0
DA:791,0
DA:794,0
DA:796,0
DA:799,0
DA:800,0
DA:801,0
DA:802,0
DA:805,0
DA:806,0
DA:807,0
DA:808,0
DA:809,0
DA:810,0
DA:811,0
DA:813,0
DA:814,0
DA:816,0
DA:820,0
DA:821,0
DA:822,0
DA:824,0
DA:825,0
DA:826,0
DA:828,0
DA:829,0
DA:830,0
DA:832,0
DA:833,0
DA:834,0
DA:835,0
DA:838,0
DA:845,0
DA:848,0
DA:850,0
DA:853,0
DA:854,0
DA:856,0
DA:857,0
DA:860,0
DA:862,0
DA:864,0
DA:865,0
DA:866,0
DA:867,0
DA:870,0
DA:873,0
DA:876,0
DA:877,0
DA:879,0
DA:881,0
DA:882,0
DA:883,0
DA:884,0
DA:887,0
DA:888,0
DA:889,0
DA:891,0
DA:895,0
DA:896,0
DA:897,0
DA:898,0
DA:901,0
DA:903,0
DA:906,0
DA:907,0
DA:908,0
DA:910,0
DA:912,0
DA:913,0
DA:915,0
DA:916,0
DA:918,0
DA:919,0
DA:920,0
DA:922,0
DA:923,0
DA:926,0
DA:927,0
DA:929,0
DA:931,0
DA:932,0
DA:934,0
DA:936,0
DA:939,0
DA:940,0
DA:941,0
DA:943,0
DA:944,0
DA:945,0
DA:946,0
DA:947,0
DA:948,0
DA:949,0
DA:951,0
DA:952,0
DA:955,0
DA:956,0
DA:964,0
DA:965,0
DA:966,0
DA:967,0
DA:968,0
DA:969,0
DA:971,0
DA:973,0
DA:974,0
DA:975,0
DA:976,0
DA:977,0
DA:979,0
DA:980,0
DA:982,0
DA:984,0
DA:985,0
DA:986,0
DA:988,0
DA:989,0
DA:990,0
DA:992,0
DA:994,0
DA:995,0
DA:998,0
DA:999,0
DA:1002,0
DA:1003,0
DA:1005,0
DA:1006,0
DA:1007,0
DA:1008,0
DA:1009,0
DA:1010,0
DA:1012,0
DA:1014,0
DA:1016,0
DA:1018,0
DA:1020,0
DA:1021,0
DA:1022,0
DA:1024,0
DA:1025,0
DA:1026,0
DA:1027,0
DA:1030,0
DA:1033,0
DA:1034,0
DA:1036,0
DA:1038,0
DA:1041,0
DA:1042,0
DA:1045,0
DA:1046,0
DA:1047,0
DA:1048,0
DA:1049,0
DA:1051,0
DA:1054,0
DA:1055,0
DA:1057,0
DA:1058,0
DA:1060,0
DA:1061,0
DA:1062,0
DA:1063,0
DA:1064,0
DA:1065,0
DA:1067,0
DA:1068,0
DA:1069,0
DA:1071,0
DA:1072,0
DA:1073,0
DA:1075,0
DA:1077,0
DA:1078,0
DA:1079,0
DA:1080,0
DA:1081,0
DA:1082,0
DA:1083,0
DA:1084,0
DA:1086,0
DA:1087,0
DA:1088,0
DA:1089,0
DA:1090,0
DA:1092,0
DA:1093,0
DA:1094,0
DA:1095,0
DA:1097,0
DA:1098,0
DA:1099,0
DA:1102,0
DA:1104,0
DA:1105,0
DA:1108,0
DA:1109,0
DA:1112,0
DA:1114,0
DA:1115,0
DA:1117,0
DA:1119,0
DA:1120,0
DA:1121,0
DA:1123,0
DA:1126,0
DA:1127,0
DA:1128,0
DA:1131,0
DA:1132,0
DA:1133,0
DA:1134,0
DA:1135,0
DA:1136,0
DA:1137,0
DA:1141,0
DA:1142,0
DA:1144,0
DA:1148,0
DA:1149,0
DA:1150,0
DA:1153,0
DA:1155,0
DA:1156,0
DA:1157,0
DA:1158,0
DA:1159,0
DA:1162,0
DA:1164,0
DA:1167,0
DA:1168,0
DA:1169,0
DA:1170,0
DA:1171,0
DA:1173,0
DA:1175,0
DA:1176,0
DA:1177,0
DA:1180,0
DA:1181,0
DA:1183,0
DA:1184,0
DA:1185,0
DA:1186,0
DA:1188,0
DA:1191,0
DA:1192,0
DA:1193,0
DA:1194,0
DA:1195,0
DA:1196,0
DA:1197,0
DA:1199,0
DA:1200,0
DA:1203,0
DA:1204,0
DA:1206,0
DA:1208,0
LF:715
LH:0
end_of_record
TN:
SF:/home/xucong/caicAD/01datainfra/Aurora/aurora-edge-runtime/src/navigation_planner/common/planner_config_manager.cpp
FN:13,_ZN6aurora7planner20PlannerConfigManager11getInstanceEv
FN:18,_ZN6aurora7planner20PlannerConfigManager12loadFromYamlERKNSt7__cxx1112basic_stringIcSt11char_traitsIcESaIcEEERNS0_17PlannerConfigDataE
FN:96,_ZN6aurora7planner20PlannerConfigManager10saveToYamlERKNSt7__cxx1112basic_stringIcSt11char_traitsIcESaIcEEERKNS0_17PlannerConfigDataE
FN:145,_ZN6aurora7planner20PlannerConfigManager13updateFromMapERKSt3mapINSt7__cxx1112basic_stringIcSt11char_traitsIcESaIcEEEdSt4lessIS8_ESaISt4pairIKS8_dEEERNS0_17PlannerConfigDataE
FN:188,_ZN6aurora7planner20PlannerConfigManager16getDefaultConfigENS0_11PlannerModeE
FN:220,_ZN6aurora7planner20PlannerConfigManager16registerCallbackESt8functionIFvRKNS0_17PlannerConfigDataEEE
FN:226,_ZN6aurora7planner20PlannerConfigManager18unregisterCallbackEm
FN:233,_ZN6aurora7planner20PlannerConfigManager15notifyCallbacksERKNS0_17PlannerConfigDataE
FN:246,_ZN6aurora7planner20PlannerConfigManager13getConfigPathENS0_11PlannerModeERKNSt7__cxx1112basic_stringIcSt11char_traitsIcESaIcEEE
FN:256,_ZN6aurora7planner20PlannerConfigManager12getModelPathENS0_11PlannerModeERKNSt7__cxx1112basic_stringIcSt11char_traitsIcESaIcEEE
FNDA:0,_ZN6aurora7planner20PlannerConfigManager18unregisterCallbackEm
FNDA:0,_ZN6aurora7planner20PlannerConfigManager12loadFromYamlERKNSt7__cxx1112basic_stringIcSt11char_traitsIcESaIcEEERNS0_17PlannerConfigDataE
FNDA:0,_ZN6aurora7planner20PlannerConfigManager16getDefaultConfigENS0_11PlannerModeE
FNDA:0,_ZN6aurora7planner20PlannerConfigManager15notifyCallbacksERKNS0_17PlannerConfigDataE
FNDA:0,_ZN6aurora7planner20PlannerConfigManager13getConfigPathENS0_11PlannerModeERKNSt7__cxx1112basic_stringIcSt11char_traitsIcESaIcEEE
FNDA:0,_ZN6aurora7planner20PlannerConfigManager16registerCallbackESt8functionIFvRKNS0_17PlannerConfigDataEEE
FNDA:0,_ZN6aurora7planner20PlannerConfigManager13updateFromMapERKSt3mapINSt7__cxx1112basic_stringIcSt11char_traitsIcESaIcEEEdSt4lessIS8_ESaISt4pairIKS8_dEEERNS0_17PlannerConfigDataE
FNDA:0,_ZN6aurora7planner20PlannerConfigManager12getModelPathENS0_11PlannerModeERKNSt7__cxx1112basic_stringIcSt11char_traitsIcESaIcEEE
FNDA:0,_ZN6aurora7planner20PlannerConfigManager11getInstanceEv
FNDA:0,_ZN6aurora7planner20PlannerConfigManager10saveToYamlERKNSt7__cxx1112basic_stringIcSt11char_traitsIcESaIcEEERKNS0_17PlannerConfigDataE
FNF:10
FNH:0
BRDA:14,0,0,-
BRDA:14,0,1,-
BRDA:14,0,2,-
BRDA:14,0,3,-
BRDA:14,0,4,-
BRDA:14,0,5,-
BRDA:14,0,6,-
BRDA:14,0,7,-
BRDA:91,0,0,-
BRDA:91,0,1,-
BRDA:140,0,0,-
BRDA:140,0,1,-
BRDA:147,0,0,-
BRDA:147,0,1,-
BRDA:149,0,0,-
BRDA:149,0,1,-
BRDA:149,0,2,-
BRDA:149,0,3,-
BRDA:149,0,4,-
BRDA:149,0,5,-
BRDA:151,0,0,-
BRDA:151,0,1,-
BRDA:151,0,2,-
BRDA:151,0,3,-
BRDA:151,0,4,-
BRDA:151,0,5,-
BRDA:153,0,0,-
BRDA:153,0,1,-
BRDA:153,0,2,-
BRDA:153,0,3,-
BRDA:153,0,4,-
BRDA:153,0,5,-
BRDA:155,0,0,-
BRDA:155,0,1,-
BRDA:155,0,2,-
BRDA:155,0,3,-
BRDA:155,0,4,-
BRDA:155,0,5,-
BRDA:157,0,0,-
BRDA:157,0,1,-
BRDA:157,0,2,-
BRDA:157,0,3,-
BRDA:157,0,4,-
BRDA:157,0,5,-
BRDA:159,0,0,-
BRDA:159,0,1,-
BRDA:159,0,2,-
BRDA:159,0,3,-
BRDA:159,0,4,-
BRDA:159,0,5,-
BRDA:164,0,0,-
BRDA:164,0,1,-
BRDA:166,0,0,-
BRDA:166,0,1,-
BRDA:168,0,0,-
BRDA:168,0,1,-
BRDA:170,0,0,-
BRDA:170,0,1,-
BRDA:175,0,0,-
BRDA:175,0,1,-
BRDA:177,0,0,-
BRDA:177,0,1,-
BRDA:179,0,0,-
BRDA:179,0,1,-
BRDA:184,0,0,-
BRDA:184,0,1,-
BRDA:192,0,0,-
BRDA:192,0,1,-
BRDA:192,0,2,-
BRDA:192,0,3,-
BRDA:197,0,0,-
BRDA:197,0,1,-
BRDA:204,0,0,-
BRDA:204,0,1,-
BRDA:221,0,0,-
BRDA:221,0,1,-
BRDA:222,0,0,-
BRDA:222,0,1,-
BRDA:227,0,0,-
BRDA:227,0,1,-
BRDA:228,0,0,-
BRDA:228,0,1,-
BRDA:234,0,0,-
BRDA:234,0,1,-
BRDA:235,0,0,-
BRDA:235,0,1,-
BRDA:236,0,0,-
BRDA:236,0,1,-
BRDA:238,0,0,-
BRDA:238,0,1,-
BRDA:239,0,0,0
BRDA:239,0,1,0
BRDA:240,0,0,0
BRDA:240,0,1,0
BRDA:240,0,2,0
BRDA:240,0,3,0
BRDA:248,0,0,-
BRDA:248,0,1,-
BRDA:248,0,2,-
BRDA:248,0,3,-
BRDA:249,0,0,-
BRDA:249,0,1,-
BRDA:250,0,0,-
BRDA:250,0,1,-
BRDA:251,0,0,-
BRDA:251,0,1,-
BRDA:253,0,0,-
BRDA:253,0,1,-
BRDA:253,0,2,-
BRDA:253,0,3,-
BRDA:253,0,4,-
BRDA:253,0,5,-
BRDA:253,0,6,-
BRDA:253,0,7,-
BRDA:253,0,8,-
BRDA:253,0,9,-
BRDA:253,0,10,-
BRDA:253,0,11,-
BRDA:258,0,0,-
BRDA:258,0,1,-
BRDA:258,0,2,-
BRDA:258,0,3,-
BRDA:259,0,0,-
BRDA:259,0,1,-
BRDA:260,0,0,-
BRDA:260,0,1,-
BRDA:261,0,0,-
BRDA:261,0,1,-
BRDA:263,0,0,-
BRDA:263,0,1,-
BRDA:263,0,2,-
BRDA:263,0,3,-
BRDA:263,0,4,-
BRDA:263,0,5,-
BRDA:263,0,6,-
BRDA:263,0,7,-
BRDA:263,0,8,-
BRDA:263,0,9,-
BRDA:263,0,10,-
BRDA:263,0,11,-
BRF:140
BRH:0
DA:13,0
DA:14,0
DA:15,0
DA:18,0
DA:91,0
DA:92,0
DA:96,0
DA:140,0
DA:141,0
DA:145,0
DA:147,0
DA:149,0
DA:150,0
DA:151,0
DA:152,0
DA:153,0
DA:154,0
DA:155,0
DA:156,0
DA:157,0
DA:158,0
DA:159,0
DA:160,0
DA:164,0
DA:165,0
DA:166,0
DA:167,0
DA:168,0
DA:169,0
DA:170,0
DA:171,0
DA:175,0
DA:176,0
DA:177,0
DA:178,0
DA:179,0
DA:180,0
DA:184,0
DA:186,0
DA:188,0
DA:189,0
DA:190,0
DA:192,0
DA:193,0
DA:194,0
DA:195,0
DA:196,0
DA:197,0
DA:198,0
DA:200,0
DA:201,0
DA:202,0
DA:203,0
DA:204,0
DA:205,0
DA:207,0
DA:209,0
DA:213,0
DA:214,0
DA:215,0
DA:217,0
DA:218,0
DA:220,0
DA:221,0
DA:222,0
DA:223,0
DA:224,0
DA:226,0
DA:227,0
DA:228,0
DA:229,0
DA:231,0
DA:233,0
DA:234,0
DA:235,0
DA:236,0
DA:238,0
DA:239,0
DA:240,0
DA:241,0
DA:244,0
DA:246,0
DA:247,0
DA:248,0
DA:249,0
DA:250,0
DA:251,0
DA:253,0
DA:254,0
DA:256,0
DA:257,0
DA:258,0
DA:259,0
DA:260,0
DA:261,0
DA:263,0
DA:264,0
LF:97
LH:0
end_of_record
TN:
SF:/home/xucong/caicAD/01datainfra/Aurora/aurora-edge-runtime/src/navigation_planner/common/planner_config_manager.h
FN:58,_ZN6aurora7planner17PlannerConfigDataC2Ev
FN:165,_ZN6aurora7planner20PlannerConfigManagerC2Ev
FN:166,_ZN6aurora7planner20PlannerConfigManagerD2Ev
FNDA:0,_ZN6aurora7planner20PlannerConfigManagerC2Ev
FNDA:0,_ZN6aurora7planner20PlannerConfigManagerD2Ev
FNDA:0,_ZN6aurora7planner17PlannerConfigDataC2Ev
FNF:3
FNH:0
BRDA:58,0,0,-
BRDA:58,0,1,-
BRF:2
BRH:0
DA:58,0
DA:165,0
DA:166,0
LF:3
LH:0
end_of_record
TN:
SF:/home/xucong/caicAD/01datainfra/Aurora/aurora-edge-runtime/src/navigation_planner/planner/auto_planner.cpp
FN:14,_ZN6aurora7planner11AutoPlannerC2ERKNSt7__cxx1112basic_stringIcSt11char_traitsIcESaIcEEES9_
FN:46,_ZN6aurora7planner11AutoPlanner10initializeEv
FN:126,_ZN6aurora7planner11AutoPlanner17loadConfigurationERKNSt7__cxx1112basic_stringIcSt11char_traitsIcESaIcEEE
FN:161,_ZZN6aurora7planner11AutoPlanner17loadConfigurationERKNSt7__cxx1112basic_stringIcSt11char_traitsIcESaIcEEEENKUlRKSt6vectorIPKcSaISC_EEdE_clESG_d
FN:200,_ZN6aurora7planner11AutoPlanner20optimizeNextWaypointEv
FN:211,_ZN6aurora7planner11AutoPlanner12validatePathERKSt6vectorI5PointSaIS3_EE
FN:263,_ZN6aurora7planner11AutoPlanner18computeStateRewardERK13AutoStateInfoS4_
FN:304,_ZN6aurora7planner11AutoPlanner19reloadConfigurationEv
FN:333,_ZN6aurora7planner11AutoPlanner14loadPPOWeightsERKNSt7__cxx1112basic_stringIcSt11char_traitsIcESaIcEEE
FN:349,_ZN6aurora7planner11AutoPlanner5resetEv
FN:361,_ZN6aurora7planner11AutoPlanner4planERKNS0_12PlannerInputE
FN:405,_ZN6aurora7planner11AutoPlanner21printPerformanceStatsEv
FN:431,_ZN6aurora7planner11AutoPlanner16updateParametersERKSt3mapINSt7__cxx1112basic_stringIcSt11char_traitsIcESaIcEEEdSt4lessIS8_ESaISt4pairIKS8_dEEE
FN:456,_ZN6aurora7planner11AutoPlanner17buildCurrentStateERK5PointRKNS0_7CostMapERKSt6vectorIiSaIiEE
FNDA:0,_ZN6aurora7planner11AutoPlanner16updateParametersERKSt3mapINSt7__cxx1112basic_stringIcSt11char_traitsIcESaIcEEEdSt4lessIS8_ESaISt4pairIKS8_dEEE
FNDA:0,_ZN6aurora7planner11AutoPlanner5resetEv
FNDA:0,_ZN6aurora7planner11AutoPlanner17loadConfigurationERKNSt7__cxx1112basic_stringIcSt11char_traitsIcESaIcEEE
FNDA:0,_ZN6aurora7planner11AutoPlanner10initializeEv
FNDA:0,_ZN6aurora7planner11AutoPlanner4planERKNS0_12PlannerInputE
FNDA:0,_ZN6aurora7planner11AutoPlanner18computeStateRewardERK13AutoStateInfoS4_
FNDA:0,_ZN6aurora7planner11AutoPlanner17buildCurrentStateERK5PointRKNS0_7CostMapERKSt6vectorIiSaIiEE
FNDA:0,_ZN6aurora7planner11AutoPlanner20optimizeNextWaypointEv
FNDA:0,_ZN6aurora7planner11AutoPlannerC2ERKNSt7__cxx1112basic_stringIcSt11char_traitsIcESaIcEEES9_
FNDA:0,_ZN6aurora7planner11AutoPlanner14loadPPOWeightsERKNSt7__cxx1112basic_stringIcSt11char_traitsIcESaIcEEE
FNDA:0,_ZN6aurora7planner11AutoPlanner12validatePathERKSt6vectorI5PointSaIS3_EE
FNDA:0,_ZN6aurora7planner11AutoPlanner21printPerformanceStatsEv
FNDA:0,_ZN6aurora7planner11AutoPlanner19reloadConfigurationEv
FNDA:0,_ZZN6aurora7planner11AutoPlanner17loadConfigurationERKNSt7__cxx1112basic_stringIcSt11char_traitsIcESaIcEEEENKUlRKSt6vectorIPKcSaISC_EEdE_clESG_d
FNF:14
FNH:0
BRDA:15,0,0,-
BRDA:15,0,1,-
BRDA:16,0,0,-
BRDA:16,0,1,-
BRDA:20,0,0,-
BRDA:20,0,1,-
BRDA:20,0,2,-
BRDA:20,0,3,-
BRDA:23,0,0,-
BRDA:23,0,1,-
BRDA:24,0,0,-
BRDA:24,0,1,-
BRDA:27,0,0,-
BRDA:27,0,1,-
BRDA:29,0,0,-
BRDA:29,0,1,-
BRDA:29,0,2,-
BRDA:29,0,3,-
BRDA:29,0,4,-
BRDA:29,0,5,-
BRDA:29,0,6,-
BRDA:29,0,7,-
BRDA:36,0,0,-
BRDA:36,0,1,-
BRDA:37,0,0,-
BRDA:37,0,1,-
BRDA:38,0,0,-
BRDA:38,0,1,-
BRDA:39,0,0,-
BRDA:39,0,1,-
BRDA:40,0,0,-
BRDA:40,0,1,-
BRDA:41,0,0,-
BRDA:41,0,1,-
BRDA:42,0,0,-
BRDA:42,0,1,-
BRDA:47,0,0,-
BRDA:47,0,1,-
BRDA:47,0,2,-
BRDA:47,0,3,-
BRDA:50,0,0,-
BRDA:50,0,1,-
BRDA:50,0,2,-
BRDA:50,0,3,-
BRDA:51,0,0,-
BRDA:51,0,1,-
BRDA:51,0,2,-
BRDA:51,0,3,-
BRDA:56,0,0,-
BRDA:56,0,1,-
BRDA:60,0,0,-
BRDA:60,0,1,-
BRDA:63,0,0,-
BRDA:63,0,1,-
BRDA:63,0,2,-
BRDA:63,0,3,-
BRDA:63,0,4,-
BRDA:63,0,5,-
BRDA:63,0,6,-
BRDA:63,0,7,-
BRDA:69,0,0,-
BRDA:69,0,1,-
BRDA:69,0,2,-
BRDA:69,0,3,-
BRDA:70,0,0,-
BRDA:70,0,1,-
BRDA:70,0,2,-
BRDA:70,0,3,-
BRDA:71,0,0,-
BRDA:71,0,1,-
BRDA:71,0,2,-
BRDA:71,0,3,-
BRDA:73,0,0,-
BRDA:73,0,1,-
BRDA:73,0,2,-
BRDA:73,0,3,-
BRDA:73,0,4,-
BRDA:73,0,5,-
BRDA:73,0,6,-
BRDA:73,0,7,-
BRDA:74,0,0,-
BRDA:74,0,1,-
BRDA:78,0,0,-
BRDA:78,0,1,-
BRDA:81,0,0,-
BRDA:81,0,1,-
BRDA:84,0,0,-
BRDA:84,0,1,-
BRDA:90,0,0,-
BRDA:90,0,1,-
BRDA:91,0,0,-
BRDA:91,0,1,-
BRDA:92,0,0,-
BRDA:92,0,1,-
BRDA:94,0,0,-
BRDA:94,0,1,-
BRDA:94,0,2,-
BRDA:94,0,3,-
BRDA:95,0,0,-
BRDA:95,0,1,-
BRDA:97,0,0,-
BRDA:97,0,1,-
BRDA:100,0,0,-
BRDA:100,0,1,-
BRDA:103,0,0,-
BRDA:103,0,1,-
BRDA:105,0,0,-
BRDA:105,0,1,-
BRDA:108,0,0,-
BRDA:108,0,1,-
BRDA:108,0,2,-
BRDA:108,0,3,-
BRDA:108,0,4,-
BRDA:108,0,5,-
BRDA:109,0,0,-
BRDA:109,0,1,-
BRDA:109,0,2,-
BRDA:109,0,3,-
BRDA:109,0,4,-
BRDA:109,0,5,-
BRDA:110,0,0,-
BRDA:110,0,1,-
BRDA:110,0,2,-
BRDA:110,0,3,-
BRDA:111,0,0,-
BRDA:111,0,1,-
BRDA:111,0,2,-
BRDA:111,0,3,-
BRDA:113,0,0,-
BRDA:113,0,1,-
BRDA:115,0,0,-
BRDA:115,0,1,-
BRDA:115,0,2,-
BRDA:115,0,3,-
BRDA:115,0,4,-
BRDA:115,0,5,-
BRDA:115,0,6,-
BRDA:115,0,7,-
BRDA:122,0,0,-
BRDA:122,0,1,-
BRDA:122,0,2,-
BRDA:122,0,3,-
BRDA:127,0,0,-
BRDA:127,0,1,-
BRDA:127,0,2,-
BRDA:127,0,3,-
BRDA:130,0,0,-
BRDA:130,0,1,-
BRDA:131,0,0,-
BRDA:131,0,1,-
BRDA:135,0,0,-
BRDA:135,0,1,-
BRDA:135,0,2,-
BRDA:135,0,3,-
BRDA:135,0,4,-
BRDA:135,0,5,-
BRDA:136,0,0,-
BRDA:136,0,1,-
BRDA:136,0,2,-
BRDA:136,0,3,-
BRDA:149,0,0,-
BRDA:149,0,1,-
BRDA:149,0,2,-
BRDA:149,0,3,-
BRDA:150,0,0,-
BRDA:150,0,1,-
BRDA:150,0,2,-
BRDA:150,0,3,-
BRDA:151,0,0,-
BRDA:151,0,1,-
BRDA:151,0,2,-
BRDA:151,0,3,-
BRDA:152,0,0,-
BRDA:152,0,1,-
BRDA:152,0,2,-
BRDA:152,0,3,-
BRDA:153,0,0,-
BRDA:153,0,1,-
BRDA:153,0,2,-
BRDA:153,0,3,-
BRDA:156,0,0,-
BRDA:156,0,1,-
BRDA:162,0,0,-
BRDA:162,0,1,-
BRDA:163,0,0,-
BRDA:163,0,1,-
BRDA:163,0,2,-
BRDA:163,0,3,-
BRDA:164,0,0,-
BRDA:164,0,1,-
BRDA:171,0,0,-
BRDA:171,0,1,-
BRDA:171,0,2,-
BRDA:171,0,3,-
BRDA:175,0,0,-
BRDA:175,0,1,-
BRDA:175,0,2,-
BRDA:175,0,3,-
BRDA:179,0,0,-
BRDA:179,0,1,-
BRDA:179,0,2,-
BRDA:179,0,3,-
BRDA:184,0,0,-
BRDA:184,0,1,-
BRDA:186,0,0,-
BRDA:186,0,1,-
BRDA:186,0,2,-
BRDA:186,0,3,-
BRDA:190,0,0,-
BRDA:190,0,1,-
BRDA:191,0,0,-
BRDA:191,0,1,-
BRDA:191,0,2,-
BRDA:191,0,3,-
BRDA:191,0,4,-
BRDA:191,0,5,-
BRDA:201,0,0,-
BRDA:201,0,1,-
BRDA:201,0,2,-
BRDA:201,0,3,-
BRDA:204,0,0,-
BRDA:204,0,1,-
BRDA:206,0,0,-
BRDA:206,0,1,-
BRDA:206,0,2,-
BRDA:206,0,3,-
BRDA:206,0,4,-
BRDA:206,0,5,-
BRDA:212,0,0,-
BRDA:212,0,1,-
BRDA:216,0,0,-
BRDA:216,0,1,-
BRDA:216,0,2,-
BRDA:216,0,3,-
BRDA:219,0,0,-
BRDA:219,0,1,-
BRDA:219,0,2,-
BRDA:219,0,3,-
BRDA:219,0,4,-
BRDA:219,0,5,-
BRDA:220,0,0,-
BRDA:220,0,1,-
BRDA:220,0,2,-
BRDA:220,0,3,-
BRDA:225,0,0,-
BRDA:225,0,1,-
BRDA:225,0,2,-
BRDA:225,0,3,-
BRDA:226,0,0,-
BRDA:226,0,1,-
BRDA:226,0,2,-
BRDA:226,0,3,-
BRDA:227,0,0,-
BRDA:227,0,1,-
BRDA:227,0,2,-
BRDA:227,0,3,-
BRDA:232,0,0,-
BRDA:232,0,1,-
BRDA:233,0,0,-
BRDA:233,0,1,-
BRDA:234,0,0,-
BRDA:234,0,1,-
BRDA:234,0,2,-
BRDA:234,0,3,-
BRDA:235,0,0,-
BRDA:235,0,1,-
BRDA:236,0,0,-
BRDA:236,0,1,-
BRDA:236,0,2,-
BRDA:236,0,3,-
BRDA:240,0,0,-
BRDA:240,0,1,-
BRDA:241,0,0,-
BRDA:241,0,1,-
BRDA:247,0,0,-
BRDA:247,0,1,-
BRDA:248,0,0,-
BRDA:248,0,1,-
BRDA:248,0,2,-
BRDA:248,0,3,-
BRDA:254,0,0,-
BRDA:254,0,1,-
BRDA:254,0,2,-
BRDA:254,0,3,-
BRDA:256,0,0,-
BRDA:256,0,1,-
BRDA:256,0,2,-
BRDA:256,0,3,-
BRDA:265,0,0,-
BRDA:265,0,1,-
BRDA:265,0,2,-
BRDA:265,0,3,-
BRDA:269,0,0,-
BRDA:269,0,1,-
BRDA:269,0,2,-
BRDA:269,0,3,-
BRDA:269,0,4,-
BRDA:269,0,5,-
BRDA:270,0,0,-
BRDA:270,0,1,-
BRDA:270,0,2,-
BRDA:270,0,3,-
BRDA:272,0,0,-
BRDA:272,0,1,-
BRDA:272,0,2,-
BRDA:272,0,3,-
BRDA:272,0,4,-
BRDA:272,0,5,-
BRDA:273,0,0,-
BRDA:273,0,1,-
BRDA:273,0,2,-
BRDA:273,0,3,-
BRDA:275,0,0,-
BRDA:275,0,1,-
BRDA:275,0,2,-
BRDA:275,0,3,-
BRDA:275,0,4,-
BRDA:275,0,5,-
BRDA:276,0,0,-
BRDA:276,0,1,-
BRDA:276,0,2,-
BRDA:276,0,3,-
BRDA:278,0,0,-
BRDA:278,0,1,-
BRDA:278,0,2,-
BRDA:278,0,3,-
BRDA:278,0,4,-
BRDA:278,0,5,-
BRDA:279,0,0,-
BRDA:279,0,1,-
BRDA:279,0,2,-
BRDA:279,0,3,-
BRDA:281,0,0,-
BRDA:281,0,1,-
BRDA:281,0,2,-
BRDA:281,0,3,-
BRDA:281,0,4,-
BRDA:281,0,5,-
BRDA:282,0,0,-
BRDA:282,0,1,-
BRDA:282,0,2,-
BRDA:282,0,3,-
BRDA:284,0,0,-
BRDA:284,0,1,-
BRDA:284,0,2,-
BRDA:284,0,3,-
BRDA:284,0,4,-
BRDA:284,0,5,-
BRDA:285,0,0,-
BRDA:285,0,1,-
BRDA:285,0,2,-
BRDA:285,0,3,-
BRDA:287,0,0,-
BRDA:287,0,1,-
BRDA:287,0,2,-
BRDA:287,0,3,-
BRDA:287,0,4,-
BRDA:287,0,5,-
BRDA:288,0,0,-
BRDA:288,0,1,-
BRDA:288,0,2,-
BRDA:288,0,3,-
BRDA:290,0,0,-
BRDA:290,0,1,-
BRDA:290,0,2,-
BRDA:290,0,3,-
BRDA:290,0,4,-
BRDA:290,0,5,-
BRDA:291,0,0,-
BRDA:291,0,1,-
BRDA:291,0,2,-
BRDA:291,0,3,-
BRDA:293,0,0,-
BRDA:293,0,1,-
BRDA:293,0,2,-
BRDA:293,0,3,-
BRDA:293,0,4,-
BRDA:293,0,5,-
BRDA:294,0,0,-
BRDA:294,0,1,-
BRDA:294,0,2,-
BRDA:294,0,3,-
BRDA:297,0,0,-
BRDA:297,0,1,-
BRDA:299,0,0,-
BRDA:299,0,1,-
BRDA:299,0,2,-
BRDA:299,0,3,-
BRDA:305,0,0,-
BRDA:305,0,1,-
BRDA:308,0,0,-
BRDA:308,0,1,-
BRDA:308,0,2,-
BRDA:308,0,3,-
BRDA:308,0,4,-
BRDA:308,0,5,-
BRDA:309,0,0,-
BRDA:309,0,1,-
BRDA:313,0,0,-
BRDA:313,0,1,-
BRDA:316,0,0,-
BRDA:316,0,1,-
BRDA:319,0,0,-
BRDA:319,0,1,-
BRDA:320,0,0,-
BRDA:320,0,1,-
BRDA:323,0,0,-
BRDA:323,0,1,-
BRDA:327,0,0,-
BRDA:327,0,1,-
BRDA:327,0,2,-
BRDA:327,0,3,-
BRDA:334,0,0,-
BRDA:334,0,1,-
BRDA:335,0,0,-
BRDA:335,0,1,-
BRDA:337,0,0,-
BRDA:337,0,1,-
BRDA:338,0,0,-
BRDA:338,0,1,-
BRDA:341,0,0,-
BRDA:341,0,1,-
BRDA:345,0,0,-
BRDA:345,0,1,-
BRDA:358,0,0,-
BRDA:358,0,1,-
BRDA:363,0,0,-
BRDA:363,0,1,-
BRDA:363,0,2,-
BRDA:363,0,3,-
BRDA:363,0,4,-
BRDA:363,0,5,-
BRDA:364,0,0,-
BRDA:364,0,1,-
BRDA:364,0,2,-
BRDA:364,0,3,-
BRDA:374,0,0,-
BRDA:374,0,1,-
BRDA:375,0,0,-
BRDA:375,0,1,-
BRDA:378,0,0,-
BRDA:378,0,1,-
BRDA:383,0,0,-
BRDA:383,0,1,-
BRDA:386,0,0,-
BRDA:386,0,1,-
BRDA:386,0,2,-
BRDA:386,0,3,-
BRDA:387,0,0,-
BRDA:387,0,1,-
BRDA:387,0,2,-
BRDA:387,0,3,-
BRDA:391,0,0,-
BRDA:391,0,1,-
BRDA:392,0,0,-
BRDA:392,0,1,-
BRDA:393,0,0,-
BRDA:393,0,1,-
BRDA:399,0,0,-
BRDA:399,0,1,-
BRDA:399,0,2,-
BRDA:399,0,3,-
BRDA:406,0,0,-
BRDA:406,0,1,-
BRDA:408,0,0,-
BRDA:408,0,1,-
BRDA:408,0,2,-
BRDA:408,0,3,-
BRDA:409,0,0,-
BRDA:409,0,1,-
BRDA:409,0,2,-
BRDA:409,0,3,-
BRDA:410,0,0,-
BRDA:410,0,1,-
BRDA:410,0,2,-
BRDA:410,0,3,-
BRDA:411,0,0,-
BRDA:411,0,1,-
BRDA:411,0,2,-
BRDA:411,0,3,-
BRDA:412,0,0,-
BRDA:412,0,1,-
BRDA:412,0,2,-
BRDA:412,0,3,-
BRDA:413,0,0,-
BRDA:413,0,1,-
BRDA:413,0,2,-
BRDA:413,0,3,-
BRDA:414,0,0,-
BRDA:414,0,1,-
BRDA:414,0,2,-
BRDA:414,0,3,-
BRDA:415,0,0,-
BRDA:415,0,1,-
BRDA:415,0,2,-
BRDA:415,0,3,-
BRDA:416,0,0,-
BRDA:416,0,1,-
BRDA:416,0,2,-
BRDA:416,0,3,-
BRDA:419,0,0,-
BRDA:419,0,1,-
BRDA:420,0,0,-
BRDA:420,0,1,-
BRDA:424,0,0,-
BRDA:424,0,1,-
BRDA:426,0,0,-
BRDA:426,0,1,-
BRDA:426,0,2,-
BRDA:426,0,3,-
BRDA:427,0,0,-
BRDA:427,0,1,-
BRDA:427,0,2,-
BRDA:427,0,3,-
BRDA:433,0,0,-
BRDA:433,0,1,-
BRDA:434,0,0,-
BRDA:434,0,1,-
BRDA:438,0,0,-
BRDA:438,0,1,-
BRDA:439,0,0,-
BRDA:439,0,1,-
BRDA:443,0,0,-
BRDA:443,0,1,-
BRDA:443,0,2,-
BRDA:443,0,3,-
BRDA:444,0,0,-
BRDA:444,0,1,-
BRDA:444,0,2,-
BRDA:444,0,3,-
BRDA:445,0,0,-
BRDA:445,0,1,-
BRDA:445,0,2,-
BRDA:445,0,3,-
BRDA:447,0,0,-
BRDA:447,0,1,-
BRDA:447,0,2,-
BRDA:447,0,3,-
BRDA:447,0,4,-
BRDA:447,0,5,-
BRDA:447,0,6,-
BRDA:447,0,7,-
BRDA:448,0,0,-
BRDA:448,0,1,-
BRDA:451,0,0,-
BRDA:451,0,1,-
BRDA:451,0,2,-
BRDA:451,0,3,-
BRDA:470,0,0,-
BRDA:470,0,1,-
BRDA:476,0,0,-
BRDA:476,0,1,-
BRDA:482,0,0,-
BRDA:482,0,1,-
BRDA:483,0,0,-
BRDA:483,0,1,-
BRDA:495,0,0,-
BRDA:495,0,1,-
BRDA:496,0,0,-
BRDA:496,0,1,-
BRDA:499,0,0,-
BRDA:499,0,1,-
BRDA:505,0,0,-
BRDA:505,0,1,-
BRDA:513,0,0,-
BRDA:513,0,1,-
BRF:566
BRH:0
DA:14,0
DA:15,0
DA:16,0
DA:17,0
DA:18,0
DA:19,0
DA:20,0
DA:23,0
DA:24,0
DA:27,0
DA:29,0
DA:32,0
DA:33,0
DA:34,0
DA:36,0
DA:37,0
DA:38,0
DA:39,0
DA:40,0
DA:41,0
DA:42,0
DA:44,0
DA:46,0
DA:47,0
DA:50,0
DA:51,0
DA:52,0
DA:56,0
DA:59,0
DA:60,0
DA:61,0
DA:63,0
DA:69,0
DA:70,0
DA:71,0
DA:73,0
DA:74,0
DA:78,0
DA:79,0
DA:81,0
DA:82,0
DA:84,0
DA:85,0
DA:89,0
DA:90,0
DA:91,0
DA:92,0
DA:94,0
DA:95,0
DA:97,0
DA:100,0
DA:103,0
DA:105,0
DA:108,0
DA:109,0
DA:110,0
DA:111,0
DA:113,0
DA:115,0
DA:120,0
DA:122,0
DA:123,0
DA:126,0
DA:127,0
DA:130,0
DA:131,0
DA:135,0
DA:136,0
DA:137,0
DA:147,0
DA:149,0
DA:150,0
DA:151,0
DA:152,0
DA:153,0
DA:156,0
DA:157,0
DA:161,0
DA:162,0
DA:163,0
DA:164,0
DA:165,0
DA:168,0
DA:169,0
DA:171,0
DA:175,0
DA:177,0
DA:179,0
DA:184,0
DA:186,0
DA:190,0
DA:191,0
DA:194,0
DA:200,0
DA:201,0
DA:204,0
DA:206,0
DA:208,0
DA:211,0
DA:212,0
DA:213,0
DA:216,0
DA:219,0
DA:220,0
DA:221,0
DA:225,0
DA:226,0
DA:227,0
DA:228,0
DA:232,0
DA:233,0
DA:234,0
DA:235,0
DA:236,0
DA:239,0
DA:240,0
DA:241,0
DA:242,0
DA:243,0
DA:247,0
DA:248,0
DA:249,0
DA:254,0
DA:256,0
DA:257,0
DA:258,0
DA:263,0
DA:265,0
DA:268,0
DA:269,0
DA:270,0
DA:272,0
DA:273,0
DA:275,0
DA:276,0
DA:278,0
DA:279,0
DA:281,0
DA:282,0
DA:284,0
DA:285,0
DA:287,0
DA:288,0
DA:290,0
DA:291,0
DA:293,0
DA:294,0
DA:297,0
DA:299,0
DA:301,0
DA:304,0
DA:305,0
DA:308,0
DA:309,0
DA:310,0
DA:313,0
DA:315,0
DA:316,0
DA:319,0
DA:320,0
DA:323,0
DA:327,0
DA:333,0
DA:334,0
DA:335,0
DA:336,0
DA:337,0
DA:338,0
DA:339,0
DA:341,0
DA:342,0
DA:345,0
DA:346,0
DA:349,0
DA:351,0
DA:352,0
DA:353,0
DA:356,0
DA:358,0
DA:359,0
DA:361,0
DA:363,0
DA:364,0
DA:366,0
DA:370,0
DA:371,0
DA:374,0
DA:375,0
DA:378,0
DA:382,0
DA:383,0
DA:386,0
DA:387,0
DA:391,0
DA:392,0
DA:393,0
DA:394,0
DA:399,0
DA:401,0
DA:402,0
DA:405,0
DA:406,0
DA:408,0
DA:409,0
DA:410,0
DA:411,0
DA:412,0
DA:413,0
DA:414,0
DA:415,0
DA:416,0
DA:419,0
DA:420,0
DA:424,0
DA:425,0
DA:426,0
DA:427,0
DA:429,0
DA:431,0
DA:433,0
DA:434,0
DA:438,0
DA:439,0
DA:443,0
DA:444,0
DA:445,0
DA:447,0
DA:448,0
DA:451,0
DA:452,0
DA:456,0
DA:461,0
DA:464,0
DA:465,0
DA:466,0
DA:467,0
DA:470,0
DA:471,0
DA:472,0
DA:473,0
DA:474,0
DA:476,0
DA:477,0
DA:478,0
DA:482,0
DA:483,0
DA:484,0
DA:485,0
DA:490,0
DA:493,0
DA:494,0
DA:495,0
DA:496,0
DA:497,0
DA:498,0
DA:499,0
DA:500,0
DA:501,0
DA:505,0
DA:506,0
DA:508,0
DA:511,0
DA:512,0
DA:513,0
DA:514,0
DA:515,0
DA:517,0
LF:267
LH:0
end_of_record
TN:
SF:/home/xucong/caicAD/01datainfra/Aurora/aurora-edge-runtime/src/navigation_planner/planner/auto_planner.h
FN:91,_ZN6aurora7planner11AutoPlannerD2Ev
FN:91,_ZN6aurora7planner11AutoPlannerD0Ev
FN:104,_ZNK6aurora7planner11AutoPlanner7isReadyEv
FN:105,_ZNK6aurora7planner11AutoPlanner7getModeEv
FN:108,_ZNK6aurora7planner11AutoPlanner8getStatsEv
FN:149,_ZNK6aurora7planner11AutoPlanner18getCurrentPositionEv
FN:154,_ZN6aurora7planner11AutoPlanner18setCurrentPositionERK5Point
FN:159,_ZNK6aurora7planner11AutoPlanner15getGoalPositionEv
FN:164,_ZN6aurora7planner11AutoPlanner15setGoalPositionERK5Point
FN:175,_ZN6aurora7planner11AutoPlanner10getCostMapEv
FNDA:0,_ZNK6aurora7planner11AutoPlanner18getCurrentPositionEv
FNDA:0,_ZN6aurora7planner11AutoPlannerD2Ev
FNDA:0,_ZNK6aurora7planner11AutoPlanner15getGoalPositionEv
FNDA:0,_ZNK6aurora7planner11AutoPlanner8getStatsEv
FNDA:0,_ZN6aurora7planner11AutoPlannerD0Ev
FNDA:0,_ZNK6aurora7planner11AutoPlanner7isReadyEv
FNDA:0,_ZN6aurora7planner11AutoPlanner10getCostMapEv
FNDA:0,_ZN6aurora7planner11AutoPlanner18setCurrentPositionERK5Point
FNDA:0,_ZN6aurora7planner11AutoPlanner15setGoalPositionERK5Point
FNDA:0,_ZNK6aurora7planner11AutoPlanner7getModeEv
FNF:10
FNH:0
DA:91,0
DA:104,0
DA:105,0
DA:108,0
DA:149,0
DA:154,0
DA:159,0
DA:164,0
DA:175,0
LF:9
LH:0
end_of_record
TN:
SF:/home/xucong/caicAD/01datainfra/Aurora/aurora-edge-runtime/src/navigation_planner/planner/humanoid_planner.cpp
FN:14,_ZN6aurora7planner15HumanoidPlannerC2ERKNSt7__cxx1112basic_stringIcSt11char_traitsIcESaIcEEES9_RKNS0_17PlannerModeConfigE
FN:34,_ZN6aurora7planner15HumanoidPlanner10initializeEv
FN:56,_ZN6aurora7planner15HumanoidPlanner5resetEv
FN:64,_ZN6aurora7planner15HumanoidPlanner4planERKNS0_12PlannerInputE
FN:80,_ZN6aurora7planner15HumanoidPlanner11planUnifiedERKNS0_19UnifiedPlannerInputE
FN:195,_ZN6aurora7planner15HumanoidPlanner21planWithHumanoidStateERK5PointS4_RKNS0_17HumanoidStateInfoE
FN:208,_ZN6aurora7planner15HumanoidPlanner12selectActionERKNS0_17HumanoidStateInfoE
FN:221,_ZN6aurora7planner15HumanoidPlanner18evaluateStateValueERKNS0_17HumanoidStateInfoE
FN:231,_ZN6aurora7planner15HumanoidPlanner21evaluateLocationValueEddNS0_9SceneTypeE
FN:239,_ZN6aurora7planner15HumanoidPlanner12addDataPointERKNS0_17DataPointMetadataE
FN:252,_ZN6aurora7planner15HumanoidPlanner23reportExecutionFeedbackERK5PointS4_bd
FN:282,_ZN6aurora7planner15HumanoidPlanner28reportExecutionFeedbackBatchERKSt6vectorINS0_17ExecutionFeedbackESaIS3_EE
FN:318,_ZN6aurora7planner15HumanoidPlanner13computeRewardERKNS0_19HumanoidRewardStateE
FN:322,_ZN6aurora7planner15HumanoidPlanner17loadConfigurationERKNSt7__cxx1112basic_stringIcSt11char_traitsIcESaIcEEE
FN:333,_ZZN6aurora7planner15HumanoidPlanner17loadConfigurationERKNSt7__cxx1112basic_stringIcSt11char_traitsIcESaIcEEEENKUlRKSt6vectorIS7_SaIS7_EEdE_clESE_d
FN:344,_ZZN6aurora7planner15HumanoidPlanner17loadConfigurationERKNSt7__cxx1112basic_stringIcSt11char_traitsIcESaIcEEEENKUlRKSt6vectorIS7_SaIS7_EEE0_clESE_
FN:457,_ZN6aurora7planner15HumanoidPlanner19reloadConfigurationEv
FN:461,_ZN6aurora7planner15HumanoidPlanner12loadPPOModelERKNSt7__cxx1112basic_stringIcSt11char_traitsIcESaIcEEE
FN:468,_ZN6aurora7planner15HumanoidPlanner15updatePPOConfigERKNS0_19ContinuousPPOConfigE
FN:475,_ZN6aurora7planner15HumanoidPlanner18updateRewardConfigERKNS0_20HumanoidRewardConfigE
FN:479,_ZN6aurora7planner15HumanoidPlanner17updateValueConfigERKNS0_15DataValueConfigE
FN:484,_ZNK6aurora7planner15HumanoidPlanner17getInferenceStatsEv
FN:491,_ZN6aurora7planner15HumanoidPlanner21printPerformanceStatsEv
FN:507,_ZN6aurora7planner15HumanoidPlanner13updateCostMapEv
FN:514,_ZN6aurora7planner15HumanoidPlanner18validateTrajectoryERKNS0_17UnifiedTrajectoryE
FN:528,_ZN6aurora7planner15HumanoidPlanner16updateParametersERKSt3mapINSt7__cxx1112basic_stringIcSt11char_traitsIcESaIcEEEdSt4lessIS8_ESaISt4pairIKS8_dEEE
FN:563,_ZN6aurora7planner15HumanoidPlanner17buildCurrentStateERKNS0_17HumanoidStateInfoE
FNDA:0,_ZN6aurora7planner15HumanoidPlanner18validateTrajectoryERKNS0_17UnifiedTrajectoryE
FNDA:0,_ZN6aurora7planner15HumanoidPlanner19reloadConfigurationEv
FNDA:0,_ZN6aurora7planner15HumanoidPlanner13updateCostMapEv
FNDA:0,_ZN6aurora7planner15HumanoidPlanner13computeRewardERKNS0_19HumanoidRewardStateE
FNDA:0,_ZN6aurora7planner15HumanoidPlanner12addDataPointERKNS0_17DataPointMetadataE
FNDA:0,_ZN6aurora7planner15HumanoidPlannerC2ERKNSt7__cxx1112basic_stringIcSt11char_traitsIcESaIcEEES9_RKNS0_17PlannerModeConfigE
FNDA:0,_ZN6aurora7planner15HumanoidPlanner10initializeEv
FNDA:0,_ZN6aurora7planner15HumanoidPlanner5resetEv
FNDA:0,_ZN6aurora7planner15HumanoidPlanner23reportExecutionFeedbackERK5PointS4_bd
FNDA:0,_ZN6aurora7planner15HumanoidPlanner15updatePPOConfigERKNS0_19ContinuousPPOConfigE
FNDA:0,_ZN6aurora7planner15HumanoidPlanner17loadConfigurationERKNSt7__cxx1112basic_stringIcSt11char_traitsIcESaIcEEE
FNDA:0,_ZN6aurora7planner15HumanoidPlanner12loadPPOModelERKNSt7__cxx1112basic_stringIcSt11char_traitsIcESaIcEEE
FNDA:0,_ZZN6aurora7planner15HumanoidPlanner17loadConfigurationERKNSt7__cxx1112basic_stringIcSt11char_traitsIcESaIcEEEENKUlRKSt6vectorIS7_SaIS7_EEdE_clESE_d
FNDA:0,_ZN6aurora7planner15HumanoidPlanner12selectActionERKNS0_17HumanoidStateInfoE
FNDA:0,_ZN6aurora7planner15HumanoidPlanner21printPerformanceStatsEv
FNDA:0,_ZN6aurora7planner15HumanoidPlanner11planUnifiedERKNS0_19UnifiedPlannerInputE
FNDA:0,_ZN6aurora7planner15HumanoidPlanner16updateParametersERKSt3mapINSt7__cxx1112basic_stringIcSt11char_traitsIcESaIcEEEdSt4lessIS8_ESaISt4pairIKS8_dEEE
FNDA:0,_ZN6aurora7planner15HumanoidPlanner4planERKNS0_12PlannerInputE
FNDA:0,_ZN6aurora7planner15HumanoidPlanner21evaluateLocationValueEddNS0_9SceneTypeE
FNDA:0,_ZN6aurora7planner15HumanoidPlanner18evaluateStateValueERKNS0_17HumanoidStateInfoE
FNDA:0,_ZN6aurora7planner15HumanoidPlanner28reportExecutionFeedbackBatchERKSt6vectorINS0_17ExecutionFeedbackESaIS3_EE
FNDA:0,_ZN6aurora7planner15HumanoidPlanner17updateValueConfigERKNS0_15DataValueConfigE
FNDA:0,_ZN6aurora7planner15HumanoidPlanner21planWithHumanoidStateERK5PointS4_RKNS0_17HumanoidStateInfoE
FNDA:0,_ZN6aurora7planner15HumanoidPlanner17buildCurrentStateERKNS0_17HumanoidStateInfoE
FNDA:0,_ZZN6aurora7planner15HumanoidPlanner17loadConfigurationERKNSt7__cxx1112basic_stringIcSt11char_traitsIcESaIcEEEENKUlRKSt6vectorIS7_SaIS7_EEE0_clESE_
FNDA:0,_ZN6aurora7planner15HumanoidPlanner18updateRewardConfigERKNS0_20HumanoidRewardConfigE
FNDA:0,_ZNK6aurora7planner15HumanoidPlanner17getInferenceStatsEv
FNF:27
FNH:0
BRDA:17,0,0,-
BRDA:17,0,1,-
BRDA:18,0,0,-
BRDA:18,0,1,-
BRDA:21,0,0,-
BRDA:21,0,1,-
BRDA:25,0,0,-
BRDA:25,0,1,-
BRDA:27,0,0,-
BRDA:27,0,1,-
BRDA:27,0,2,-
BRDA:27,0,3,-
BRDA:35,0,0,-
BRDA:35,0,1,-
BRDA:39,0,0,-
BRDA:39,0,1,-
BRDA:40,0,0,-
BRDA:40,0,1,-
BRDA:44,0,0,-
BRDA:44,0,1,-
BRDA:47,0,0,-
BRDA:47,0,1,-
BRDA:52,0,0,-
BRDA:52,0,1,-
BRDA:66,0,0,-
BRDA:66,0,1,-
BRDA:70,0,0,-
BRDA:70,0,1,-
BRDA:74,0,0,-
BRDA:74,0,1,-
BRDA:81,0,0,-
BRDA:81,0,1,-
BRDA:87,0,0,-
BRDA:87,0,1,-
BRDA:97,0,0,-
BRDA:97,0,1,-
BRDA:103,0,0,-
BRDA:103,0,1,-
BRDA:116,0,0,-
BRDA:116,0,1,-
BRDA:116,0,2,-
BRDA:116,0,3,-
BRDA:116,0,4,-
BRDA:116,0,5,-
BRDA:116,0,6,-
BRDA:116,0,7,-
BRDA:117,0,0,-
BRDA:117,0,1,-
BRDA:119,0,0,-
BRDA:119,0,1,-
BRDA:119,0,2,-
BRDA:119,0,3,-
BRDA:127,0,0,-
BRDA:127,0,1,-
BRDA:131,0,0,-
BRDA:131,0,1,-
BRDA:132,0,0,-
BRDA:132,0,1,-
BRDA:134,0,0,-
BRDA:134,0,1,-
BRDA:148,0,0,-
BRDA:148,0,1,-
BRDA:148,0,2,-
BRDA:148,0,3,-
BRDA:148,0,4,-
BRDA:148,0,5,-
BRDA:150,0,0,-
BRDA:150,0,1,-
BRDA:154,0,0,-
BRDA:154,0,1,-
BRDA:157,0,0,-
BRDA:157,0,1,-
BRDA:164,0,0,-
BRDA:164,0,1,-
BRDA:165,0,0,-
BRDA:165,0,1,-
BRDA:170,0,0,-
BRDA:170,0,1,-
BRDA:170,0,2,-
BRDA:170,0,3,-
BRDA:171,0,0,-
BRDA:171,0,1,-
BRDA:177,0,0,-
BRDA:177,0,1,-
BRDA:177,0,2,-
BRDA:177,0,3,-
BRDA:181,0,0,-
BRDA:181,0,1,-
BRDA:185,0,0,-
BRDA:185,0,1,-
BRDA:186,0,0,-
BRDA:186,0,1,-
BRDA:189,0,0,-
BRDA:189,0,1,-
BRDA:189,0,2,-
BRDA:189,0,3,-
BRDA:200,0,0,-
BRDA:200,0,1,-
BRDA:203,0,0,-
BRDA:203,0,1,-
BRDA:205,0,0,-
BRDA:205,0,1,-
BRDA:209,0,0,-
BRDA:209,0,1,-
BRDA:211,0,0,-
BRDA:211,0,1,-
BRDA:214,0,0,-
BRDA:214,0,1,-
BRDA:215,0,0,-
BRDA:215,0,1,-
BRDA:222,0,0,-
BRDA:222,0,1,-
BRDA:224,0,0,-
BRDA:224,0,1,-
BRDA:225,0,0,-
BRDA:225,0,1,-
BRDA:233,0,0,-
BRDA:233,0,1,-
BRDA:240,0,0,-
BRDA:240,0,1,-
BRDA:245,0,0,-
BRDA:245,0,1,-
BRDA:246,0,0,-
BRDA:246,0,1,-
BRDA:247,0,0,-
BRDA:247,0,1,-
BRDA:248,0,0,-
BRDA:248,0,1,-
BRDA:256,0,0,-
BRDA:256,0,1,-
BRDA:260,0,0,-
BRDA:260,0,1,-
BRDA:270,0,0,-
BRDA:270,0,1,-
BRDA:272,0,0,-
BRDA:272,0,1,-
BRDA:273,0,0,-
BRDA:273,0,1,-
BRDA:275,0,0,-
BRDA:275,0,1,-
BRDA:275,0,2,-
BRDA:275,0,3,-
BRDA:285,0,0,-
BRDA:285,0,1,-
BRDA:287,0,0,-
BRDA:287,0,1,-
BRDA:296,0,0,-
BRDA:296,0,1,-
BRDA:298,0,0,-
BRDA:298,0,1,-
BRDA:304,0,0,-
BRDA:304,0,1,-
BRDA:305,0,0,-
BRDA:305,0,1,-
BRDA:306,0,0,-
BRDA:306,0,1,-
BRDA:312,0,0,-
BRDA:312,0,1,-
BRDA:323,0,0,-
BRDA:323,0,1,-
BRDA:323,0,2,-
BRDA:323,0,3,-
BRDA:327,0,0,-
BRDA:327,0,1,-
BRDA:327,0,2,-
BRDA:327,0,3,-
BRDA:327,0,4,-
BRDA:327,0,5,-
BRDA:328,0,0,-
BRDA:328,0,1,-
BRDA:328,0,2,-
BRDA:328,0,3,-
BRDA:334,0,0,-
BRDA:334,0,1,-
BRDA:335,0,0,-
BRDA:335,0,1,-
BRDA:336,0,0,-
BRDA:336,0,1,-
BRDA:345,0,0,-
BRDA:345,0,1,-
BRDA:346,0,0,-
BRDA:346,0,1,-
BRDA:346,0,2,-
BRDA:346,0,3,-
BRDA:354,0,0,-
BRDA:354,0,1,-
BRDA:354,0,2,-
BRDA:354,0,3,-
BRDA:354,0,4,-
BRDA:354,0,5,-
BRDA:354,0,6,-
BRDA:354,0,7,-
BRDA:354,0,8,-
BRDA:354,0,9,-
BRDA:354,0,10,-
BRDA:354,0,11,-
BRDA:354,0,12,-
BRDA:354,0,13,-
BRDA:354,0,14,-
BRDA:354,0,15,-
BRDA:354,0,16,-
BRDA:354,0,17,-
BRDA:354,0,18,-
BRDA:354,0,19,-
BRDA:354,0,20,-
BRDA:354,0,21,-
BRDA:355,0,0,-
BRDA:355,0,1,-
BRDA:355,0,2,-
BRDA:355,0,3,-
BRDA:355,0,4,-
BRDA:355,0,5,-
BRDA:355,0,6,-
BRDA:355,0,7,-
BRDA:355,0,8,-
BRDA:355,0,9,-
BRDA:355,0,10,-
BRDA:355,0,11,-
BRDA:355,0,12,-
BRDA:355,0,13,-
BRDA:355,0,14,-
BRDA:355,0,15,-
BRDA:355,0,16,-
BRDA:355,0,17,-
BRDA:355,0,18,-
BRDA:355,0,19,-
BRDA:355,0,20,-
BRDA:355,0,21,-
BRDA:356,0,0,-
BRDA:356,0,1,-
BRDA:356,0,2,-
BRDA:356,0,3,-
BRDA:356,0,4,-
BRDA:356,0,5,-
BRDA:356,0,6,-
BRDA:356,0,7,-
BRDA:356,0,8,-
BRDA:356,0,9,-
BRDA:356,0,10,-
BRDA:356,0,11,-
BRDA:356,0,12,-
BRDA:356,0,13,-
BRDA:356,0,14,-
BRDA:356,0,15,-
BRDA:356,0,16,-
BRDA:356,0,17,-
BRDA:356,0,18,-
BRDA:356,0,19,-
BRDA:356,0,20,-
BRDA:356,0,21,-
BRDA:357,0,0,-
BRDA:357,0,1,-
BRDA:357,0,2,-
BRDA:357,0,3,-
BRDA:357,0,4,-
BRDA:357,0,5,-
BRDA:357,0,6,-
BRDA:357,0,7,-
BRDA:357,0,8,-
BRDA:357,0,9,-
BRDA:357,0,10,-
BRDA:357,0,11,-
BRDA:357,0,12,-
BRDA:357,0,13,-
BRDA:357,0,14,-
BRDA:357,0,15,-
BRDA:357,0,16,-
BRDA:357,0,17,-
BRDA:357,0,18,-
BRDA:357,0,19,-
BRDA:357,0,20,-
BRDA:357,0,21,-
BRDA:358,0,0,-
BRDA:358,0,1,-
BRDA:358,0,2,-
BRDA:358,0,3,-
BRDA:358,0,4,-
BRDA:358,0,5,-
BRDA:358,0,6,-
BRDA:358,0,7,-
BRDA:358,0,8,-
BRDA:358,0,9,-
BRDA:358,0,10,-
BRDA:358,0,11,-
BRDA:358,0,12,-
BRDA:358,0,13,-
BRDA:358,0,14,-
BRDA:358,0,15,-
BRDA:358,0,16,-
BRDA:358,0,17,-
BRDA:358,0,18,-
BRDA:358,0,19,-
BRDA:358,0,20,-
BRDA:358,0,21,-
BRDA:361,0,0,-
BRDA:361,0,1,-
BRDA:361,0,2,-
BRDA:361,0,3,-
BRDA:361,0,4,-
BRDA:361,0,5,-
BRDA:361,0,6,-
BRDA:361,0,7,-
BRDA:361,0,8,-
BRDA:361,0,9,-
BRDA:361,0,10,-
BRDA:361,0,11,-
BRDA:361,0,12,-
BRDA:361,0,13,-
BRDA:361,0,14,-
BRDA:361,0,15,-
BRDA:361,0,16,-
BRDA:361,0,17,-
BRDA:361,0,18,-
BRDA:361,0,19,-
BRDA:361,0,20,-
BRDA:361,0,21,-
BRDA:362,0,0,-
BRDA:362,0,1,-
BRDA:362,0,2,-
BRDA:362,0,3,-
BRDA:362,0,4,-
BRDA:362,0,5,-
BRDA:362,0,6,-
BRDA:362,0,7,-
BRDA:362,0,8,-
BRDA:362,0,9,-
BRDA:362,0,10,-
BRDA:362,0,11,-
BRDA:362,0,12,-
BRDA:362,0,13,-
BRDA:362,0,14,-
BRDA:362,0,15,-
BRDA:362,0,16,-
BRDA:362,0,17,-
BRDA:362,0,18,-
BRDA:362,0,19,-
BRDA:362,0,20,-
BRDA:362,0,21,-
BRDA:363,0,0,-
BRDA:363,0,1,-
BRDA:363,0,2,-
BRDA:363,0,3,-
BRDA:363,0,4,-
BRDA:363,0,5,-
BRDA:363,0,6,-
BRDA:363,0,7,-
BRDA:363,0,8,-
BRDA:363,0,9,-
BRDA:363,0,10,-
BRDA:363,0,11,-
BRDA:363,0,12,-
BRDA:363,0,13,-
BRDA:363,0,14,-
BRDA:363,0,15,-
BRDA:363,0,16,-
BRDA:363,0,17,-
BRDA:363,0,18,-
BRDA:363,0,19,-
BRDA:363,0,20,-
BRDA:363,0,21,-
BRDA:364,0,0,-
BRDA:364,0,1,-
BRDA:364,0,2,-
BRDA:364,0,3,-
BRDA:364,0,4,-
BRDA:364,0,5,-
BRDA:364,0,6,-
BRDA:364,0,7,-
BRDA:364,0,8,-
BRDA:364,0,9,-
BRDA:364,0,10,-
BRDA:364,0,11,-
BRDA:364,0,12,-
BRDA:364,0,13,-
BRDA:364,0,14,-
BRDA:364,0,15,-
BRDA:364,0,16,-
BRDA:364,0,17,-
BRDA:364,0,18,-
BRDA:364,0,19,-
BRDA:364,0,20,-
BRDA:364,0,21,-
BRDA:365,0,0,-
BRDA:365,0,1,-
BRDA:365,0,2,-
BRDA:365,0,3,-
BRDA:365,0,4,-
BRDA:365,0,5,-
BRDA:365,0,6,-
BRDA:365,0,7,-
BRDA:365,0,8,-
BRDA:365,0,9,-
BRDA:365,0,10,-
BRDA:365,0,11,-
BRDA:365,0,12,-
BRDA:365,0,13,-
BRDA:365,0,14,-
BRDA:365,0,15,-
BRDA:365,0,16,-
BRDA:365,0,17,-
BRDA:365,0,18,-
BRDA:365,0,19,-
BRDA:365,0,20,-
BRDA:365,0,21,-
BRDA:366,0,0,-
BRDA:366,0,1,-
BRDA:366,0,2,-
BRDA:366,0,3,-
BRDA:366,0,4,-
BRDA:366,0,5,-
BRDA:366,0,6,-
BRDA:366,0,7,-
BRDA:366,0,8,-
BRDA:366,0,9,-
BRDA:366,0,10,-
BRDA:366,0,11,-
BRDA:366,0,12,-
BRDA:366,0,13,-
BRDA:366,0,14,-
BRDA:366,0,15,-
BRDA:366,0,16,-
BRDA:366,0,17,-
BRDA:366,0,18,-
BRDA:366,0,19,-
BRDA:366,0,20,-
BRDA:366,0,21,-
BRDA:367,0,0,-
BRDA:367,0,1,-
BRDA:367,0,2,-
BRDA:367,0,3,-
BRDA:367,0,4,-
BRDA:367,0,5,-
BRDA:367,0,6,-
BRDA:367,0,7,-
BRDA:367,0,8,-
BRDA:367,0,9,-
BRDA:367,0,10,-
BRDA:367,0,11,-
BRDA:367,0,12,-
BRDA:367,0,13,-
BRDA:367,0,14,-
BRDA:367,0,15,-
BRDA:367,0,16,-
BRDA:367,0,17,-
BRDA:367,0,18,-
BRDA:367,0,19,-
BRDA:367,0,20,-
BRDA:367,0,21,-
BRDA:368,0,0,-
BRDA:368,0,1,-
BRDA:368,0,2,-
BRDA:368,0,3,-
BRDA:368,0,4,-
BRDA:368,0,5,-
BRDA:368,0,6,-
BRDA:368,0,7,-
BRDA:368,0,8,-
BRDA:368,0,9,-
BRDA:368,0,10,-
BRDA:368,0,11,-
BRDA:368,0,12,-
BRDA:368,0,13,-
BRDA:368,0,14,-
BRDA:368,0,15,-
BRDA:368,0,16,-
BRDA:368,0,17,-
BRDA:368,0,18,-
BRDA:368,0,19,-
BRDA:368,0,20,-
BRDA:368,0,21,-
BRDA:369,0,0,-
BRDA:369,0,1,-
BRDA:369,0,2,-
BRDA:369,0,3,-
BRDA:369,0,4,-
BRDA:369,0,5,-
BRDA:369,0,6,-
BRDA:369,0,7,-
BRDA:369,0,8,-
BRDA:369,0,9,-
BRDA:369,0,10,-
BRDA:369,0,11,-
BRDA:369,0,12,-
BRDA:369,0,13,-
BRDA:369,0,14,-
BRDA:369,0,15,-
BRDA:369,0,16,-
BRDA:369,0,17,-
BRDA:369,0,18,-
BRDA:369,0,19,-
BRDA:369,0,20,-
BRDA:369,0,21,-
BRDA:370,0,0,-
BRDA:370,0,1,-
BRDA:370,0,2,-
BRDA:370,0,3,-
BRDA:370,0,4,-
BRDA:370,0,5,-
BRDA:370,0,6,-
BRDA:370,0,7,-
BRDA:370,0,8,-
BRDA:370,0,9,-
BRDA:370,0,10,-
BRDA:370,0,11,-
BRDA:370,0,12,-
BRDA:370,0,13,-
BRDA:370,0,14,-
BRDA:370,0,15,-
BRDA:370,0,16,-
BRDA:370,0,17,-
BRDA:370,0,18,-
BRDA:370,0,19,-
BRDA:370,0,20,-
BRDA:370,0,21,-
BRDA:371,0,0,-
BRDA:371,0,1,-
BRDA:371,0,2,-
BRDA:371,0,3,-
BRDA:371,0,4,-
BRDA:371,0,5,-
BRDA:371,0,6,-
BRDA:371,0,7,-
BRDA:371,0,8,-
BRDA:371,0,9,-
BRDA:371,0,10,-
BRDA:371,0,11,-
BRDA:371,0,12,-
BRDA:371,0,13,-
BRDA:371,0,14,-
BRDA:371,0,15,-
BRDA:371,0,16,-
BRDA:371,0,17,-
BRDA:371,0,18,-
BRDA:371,0,19,-
BRDA:371,0,20,-
BRDA:371,0,21,-
BRDA:372,0,0,-
BRDA:372,0,1,-
BRDA:372,0,2,-
BRDA:372,0,3,-
BRDA:372,0,4,-
BRDA:372,0,5,-
BRDA:372,0,6,-
BRDA:372,0,7,-
BRDA:372,0,8,-
BRDA:372,0,9,-
BRDA:372,0,10,-
BRDA:372,0,11,-
BRDA:372,0,12,-
BRDA:372,0,13,-
BRDA:372,0,14,-
BRDA:372,0,15,-
BRDA:372,0,16,-
BRDA:372,0,17,-
BRDA:372,0,18,-
BRDA:372,0,19,-
BRDA:372,0,20,-
BRDA:372,0,21,-
BRDA:373,0,0,-
BRDA:373,0,1,-
BRDA:373,0,2,-
BRDA:373,0,3,-
BRDA:373,0,4,-
BRDA:373,0,5,-
BRDA:373,0,6,-
BRDA:373,0,7,-
BRDA:373,0,8,-
BRDA:373,0,9,-
BRDA:373,0,10,-
BRDA:373,0,11,-
BRDA:373,0,12,-
BRDA:373,0,13,-
BRDA:373,0,14,-
BRDA:373,0,15,-
BRDA:373,0,16,-
BRDA:373,0,17,-
BRDA:373,0,18,-
BRDA:373,0,19,-
BRDA:373,0,20,-
BRDA:373,0,21,-
BRDA:374,0,0,-
BRDA:374,0,1,-
BRDA:374,0,2,-
BRDA:374,0,3,-
BRDA:374,0,4,-
BRDA:374,0,5,-
BRDA:374,0,6,-
BRDA:374,0,7,-
BRDA:374,0,8,-
BRDA:374,0,9,-
BRDA:374,0,10,-
BRDA:374,0,11,-
BRDA:374,0,12,-
BRDA:374,0,13,-
BRDA:374,0,14,-
BRDA:374,0,15,-
BRDA:374,0,16,-
BRDA:374,0,17,-
BRDA:374,0,18,-
BRDA:374,0,19,-
BRDA:374,0,20,-
BRDA:374,0,21,-
BRDA:375,0,0,-
BRDA:375,0,1,-
BRDA:375,0,2,-
BRDA:375,0,3,-
BRDA:375,0,4,-
BRDA:375,0,5,-
BRDA:375,0,6,-
BRDA:375,0,7,-
BRDA:375,0,8,-
BRDA:375,0,9,-
BRDA:375,0,10,-
BRDA:375,0,11,-
BRDA:375,0,12,-
BRDA:375,0,13,-
BRDA:375,0,14,-
BRDA:375,0,15,-
BRDA:375,0,16,-
BRDA:375,0,17,-
BRDA:375,0,18,-
BRDA:375,0,19,-
BRDA:375,0,20,-
BRDA:375,0,21,-
BRDA:376,0,0,-
BRDA:376,0,1,-
BRDA:376,0,2,-
BRDA:376,0,3,-
BRDA:376,0,4,-
BRDA:376,0,5,-
BRDA:376,0,6,-
BRDA:376,0,7,-
BRDA:376,0,8,-
BRDA:376,0,9,-
BRDA:376,0,10,-
BRDA:376,0,11,-
BRDA:376,0,12,-
BRDA:376,0,13,-
BRDA:376,0,14,-
BRDA:376,0,15,-
BRDA:376,0,16,-
BRDA:376,0,17,-
BRDA:376,0,18,-
BRDA:376,0,19,-
BRDA:376,0,20,-
BRDA:376,0,21,-
BRDA:377,0,0,-
BRDA:377,0,1,-
BRDA:377,0,2,-
BRDA:377,0,3,-
BRDA:377,0,4,-
BRDA:377,0,5,-
BRDA:377,0,6,-
BRDA:377,0,7,-
BRDA:377,0,8,-
BRDA:377,0,9,-
BRDA:377,0,10,-
BRDA:377,0,11,-
BRDA:377,0,12,-
BRDA:377,0,13,-
BRDA:377,0,14,-
BRDA:377,0,15,-
BRDA:377,0,16,-
BRDA:377,0,17,-
BRDA:377,0,18,-
BRDA:377,0,19,-
BRDA:377,0,20,-
BRDA:377,0,21,-
BRDA:378,0,0,-
BRDA:378,0,1,-
BRDA:378,0,2,-
BRDA:378,0,3,-
BRDA:378,0,4,-
BRDA:378,0,5,-
BRDA:378,0,6,-
BRDA:378,0,7,-
BRDA:378,0,8,-
BRDA:378,0,9,-
BRDA:378,0,10,-
BRDA:378,0,11,-
BRDA:378,0,12,-
BRDA:378,0,13,-
BRDA:378,0,14,-
BRDA:378,0,15,-
BRDA:378,0,16,-
BRDA:378,0,17,-
BRDA:378,0,18,-
BRDA:378,0,19,-
BRDA:378,0,20,-
BRDA:378,0,21,-
BRDA:379,0,0,-
BRDA:379,0,1,-
BRDA:379,0,2,-
BRDA:379,0,3,-
BRDA:379,0,4,-
BRDA:379,0,5,-
BRDA:379,0,6,-
BRDA:379,0,7,-
BRDA:379,0,8,-
BRDA:379,0,9,-
BRDA:379,0,10,-
BRDA:379,0,11,-
BRDA:379,0,12,-
BRDA:379,0,13,-
BRDA:379,0,14,-
BRDA:379,0,15,-
BRDA:379,0,16,-
BRDA:379,0,17,-
BRDA:379,0,18,-
BRDA:379,0,19,-
BRDA:379,0,20,-
BRDA:379,0,21,-
BRDA:380,0,0,-
BRDA:380,0,1,-
BRDA:380,0,2,-
BRDA:380,0,3,-
BRDA:380,0,4,-
BRDA:380,0,5,-
BRDA:380,0,6,-
BRDA:380,0,7,-
BRDA:380,0,8,-
BRDA:380,0,9,-
BRDA:380,0,10,-
BRDA:380,0,11,-
BRDA:380,0,12,-
BRDA:380,0,13,-
BRDA:380,0,14,-
BRDA:380,0,15,-
BRDA:380,0,16,-
BRDA:380,0,17,-
BRDA:380,0,18,-
BRDA:380,0,19,-
BRDA:380,0,20,-
BRDA:380,0,21,-
BRDA:381,0,0,-
BRDA:381,0,1,-
BRDA:381,0,2,-
BRDA:381,0,3,-
BRDA:381,0,4,-
BRDA:381,0,5,-
BRDA:381,0,6,-
BRDA:381,0,7,-
BRDA:381,0,8,-
BRDA:381,0,9,-
BRDA:381,0,10,-
BRDA:381,0,11,-
BRDA:381,0,12,-
BRDA:381,0,13,-
BRDA:381,0,14,-
BRDA:381,0,15,-
BRDA:381,0,16,-
BRDA:381,0,17,-
BRDA:381,0,18,-
BRDA:381,0,19,-
BRDA:381,0,20,-
BRDA:381,0,21,-
BRDA:382,0,0,-
BRDA:382,0,1,-
BRDA:382,0,2,-
BRDA:382,0,3,-
BRDA:382,0,4,-
BRDA:382,0,5,-
BRDA:382,0,6,-
BRDA:382,0,7,-
BRDA:382,0,8,-
BRDA:382,0,9,-
BRDA:382,0,10,-
BRDA:382,0,11,-
BRDA:382,0,12,-
BRDA:382,0,13,-
BRDA:382,0,14,-
BRDA:382,0,15,-
BRDA:382,0,16,-
BRDA:382,0,17,-
BRDA:382,0,18,-
BRDA:382,0,19,-
BRDA:382,0,20,-
BRDA:382,0,21,-
BRDA:383,0,0,-
BRDA:383,0,1,-
BRDA:383,0,2,-
BRDA:383,0,3,-
BRDA:383,0,4,-
BRDA:383,0,5,-
BRDA:383,0,6,-
BRDA:383,0,7,-
BRDA:383,0,8,-
BRDA:383,0,9,-
BRDA:383,0,10,-
BRDA:383,0,11,-
BRDA:383,0,12,-
BRDA:383,0,13,-
BRDA:383,0,14,-
BRDA:383,0,15,-
BRDA:383,0,16,-
BRDA:383,0,17,-
BRDA:383,0,18,-
BRDA:383,0,19,-
BRDA:383,0,20,-
BRDA:383,0,21,-
BRDA:384,0,0,-
BRDA:384,0,1,-
BRDA:384,0,2,-
BRDA:384,0,3,-
BRDA:384,0,4,-
BRDA:384,0,5,-
BRDA:384,0,6,-
BRDA:384,0,7,-
BRDA:384,0,8,-
BRDA:384,0,9,-
BRDA:384,0,10,-
BRDA:384,0,11,-
BRDA:384,0,12,-
BRDA:384,0,13,-
BRDA:384,0,14,-
BRDA:384,0,15,-
BRDA:384,0,16,-
BRDA:384,0,17,-
BRDA:384,0,18,-
BRDA:384,0,19,-
BRDA:384,0,20,-
BRDA:384,0,21,-
BRDA:385,0,0,-
BRDA:385,0,1,-
BRDA:385,0,2,-
BRDA:385,0,3,-
BRDA:385,0,4,-
BRDA:385,0,5,-
BRDA:385,0,6,-
BRDA:385,0,7,-
BRDA:385,0,8,-
BRDA:385,0,9,-
BRDA:385,0,10,-
BRDA:385,0,11,-
BRDA:385,0,12,-
BRDA:385,0,13,-
BRDA:385,0,14,-
BRDA:385,0,15,-
BRDA:385,0,16,-
BRDA:385,0,17,-
BRDA:385,0,18,-
BRDA:385,0,19,-
BRDA:385,0,20,-
BRDA:385,0,21,-
BRDA:386,0,0,-
BRDA:386,0,1,-
BRDA:386,0,2,-
BRDA:386,0,3,-
BRDA:386,0,4,-
BRDA:386,0,5,-
BRDA:386,0,6,-
BRDA:386,0,7,-
BRDA:386,0,8,-
BRDA:386,0,9,-
BRDA:386,0,10,-
BRDA:386,0,11,-
BRDA:386,0,12,-
BRDA:386,0,13,-
BRDA:386,0,14,-
BRDA:386,0,15,-
BRDA:386,0,16,-
BRDA:386,0,17,-
BRDA:386,0,18,-
BRDA:386,0,19,-
BRDA:386,0,20,-
BRDA:386,0,21,-
BRDA:387,0,0,-
BRDA:387,0,1,-
BRDA:387,0,2,-
BRDA:387,0,3,-
BRDA:387,0,4,-
BRDA:387,0,5,-
BRDA:387,0,6,-
BRDA:387,0,7,-
BRDA:387,0,8,-
BRDA:387,0,9,-
BRDA:387,0,10,-
BRDA:387,0,11,-
BRDA:387,0,12,-
BRDA:387,0,13,-
BRDA:387,0,14,-
BRDA:387,0,15,-
BRDA:387,0,16,-
BRDA:387,0,17,-
BRDA:387,0,18,-
BRDA:387,0,19,-
BRDA:387,0,20,-
BRDA:387,0,21,-
BRDA:388,0,0,-
BRDA:388,0,1,-
BRDA:388,0,2,-
BRDA:388,0,3,-
BRDA:388,0,4,-
BRDA:388,0,5,-
BRDA:388,0,6,-
BRDA:388,0,7,-
BRDA:388,0,8,-
BRDA:388,0,9,-
BRDA:388,0,10,-
BRDA:388,0,11,-
BRDA:388,0,12,-
BRDA:388,0,13,-
BRDA:388,0,14,-
BRDA:388,0,15,-
BRDA:388,0,16,-
BRDA:388,0,17,-
BRDA:388,0,18,-
BRDA:388,0,19,-
BRDA:388,0,20,-
BRDA:388,0,21,-
BRDA:389,0,0,-
BRDA:389,0,1,-
BRDA:389,0,2,-
BRDA:389,0,3,-
BRDA:389,0,4,-
BRDA:389,0,5,-
BRDA:389,0,6,-
BRDA:389,0,7,-
BRDA:389,0,8,-
BRDA:389,0,9,-
BRDA:389,0,10,-
BRDA:389,0,11,-
BRDA:389,0,12,-
BRDA:389,0,13,-
BRDA:389,0,14,-
BRDA:389,0,15,-
BRDA:389,0,16,-
BRDA:389,0,17,-
BRDA:389,0,18,-
BRDA:389,0,19,-
BRDA:389,0,20,-
BRDA:389,0,21,-
BRDA:390,0,0,-
BRDA:390,0,1,-
BRDA:390,0,2,-
BRDA:390,0,3,-
BRDA:390,0,4,-
BRDA:390,0,5,-
BRDA:390,0,6,-
BRDA:390,0,7,-
BRDA:390,0,8,-
BRDA:390,0,9,-
BRDA:390,0,10,-
BRDA:390,0,11,-
BRDA:390,0,12,-
BRDA:390,0,13,-
BRDA:390,0,14,-
BRDA:390,0,15,-
BRDA:390,0,16,-
BRDA:390,0,17,-
BRDA:390,0,18,-
BRDA:390,0,19,-
BRDA:390,0,20,-
BRDA:390,0,21,-
BRDA:391,0,0,-
BRDA:391,0,1,-
BRDA:391,0,2,-
BRDA:391,0,3,-
BRDA:391,0,4,-
BRDA:391,0,5,-
BRDA:391,0,6,-
BRDA:391,0,7,-
BRDA:391,0,8,-
BRDA:391,0,9,-
BRDA:391,0,10,-
BRDA:391,0,11,-
BRDA:391,0,12,-
BRDA:391,0,13,-
BRDA:391,0,14,-
BRDA:391,0,15,-
BRDA:391,0,16,-
BRDA:391,0,17,-
BRDA:391,0,18,-
BRDA:391,0,19,-
BRDA:391,0,20,-
BRDA:391,0,21,-
BRDA:392,0,0,-
BRDA:392,0,1,-
BRDA:392,0,2,-
BRDA:392,0,3,-
BRDA:392,0,4,-
BRDA:392,0,5,-
BRDA:392,0,6,-
BRDA:392,0,7,-
BRDA:392,0,8,-
BRDA:392,0,9,-
BRDA:392,0,10,-
BRDA:392,0,11,-
BRDA:392,0,12,-
BRDA:392,0,13,-
BRDA:392,0,14,-
BRDA:392,0,15,-
BRDA:392,0,16,-
BRDA:392,0,17,-
BRDA:392,0,18,-
BRDA:392,0,19,-
BRDA:392,0,20,-
BRDA:392,0,21,-
BRDA:393,0,0,-
BRDA:393,0,1,-
BRDA:393,0,2,-
BRDA:393,0,3,-
BRDA:393,0,4,-
BRDA:393,0,5,-
BRDA:393,0,6,-
BRDA:393,0,7,-
BRDA:393,0,8,-
BRDA:393,0,9,-
BRDA:393,0,10,-
BRDA:393,0,11,-
BRDA:393,0,12,-
BRDA:393,0,13,-
BRDA:393,0,14,-
BRDA:393,0,15,-
BRDA:393,0,16,-
BRDA:393,0,17,-
BRDA:393,0,18,-
BRDA:393,0,19,-
BRDA:393,0,20,-
BRDA:393,0,21,-
BRDA:394,0,0,-
BRDA:394,0,1,-
BRDA:394,0,2,-
BRDA:394,0,3,-
BRDA:394,0,4,-
BRDA:394,0,5,-
BRDA:394,0,6,-
BRDA:394,0,7,-
BRDA:394,0,8,-
BRDA:394,0,9,-
BRDA:394,0,10,-
BRDA:394,0,11,-
BRDA:394,0,12,-
BRDA:394,0,13,-
BRDA:394,0,14,-
BRDA:394,0,15,-
BRDA:394,0,16,-
BRDA:394,0,17,-
BRDA:394,0,18,-
BRDA:394,0,19,-
BRDA:394,0,20,-
BRDA:394,0,21,-
BRDA:395,0,0,-
BRDA:395,0,1,-
BRDA:395,0,2,-
BRDA:395,0,3,-
BRDA:395,0,4,-
BRDA:395,0,5,-
BRDA:395,0,6,-
BRDA:395,0,7,-
BRDA:395,0,8,-
BRDA:395,0,9,-
BRDA:395,0,10,-
BRDA:395,0,11,-
BRDA:395,0,12,-
BRDA:395,0,13,-
BRDA:395,0,14,-
BRDA:395,0,15,-
BRDA:395,0,16,-
BRDA:395,0,17,-
BRDA:395,0,18,-
BRDA:395,0,19,-
BRDA:395,0,20,-
BRDA:395,0,21,-
BRDA:396,0,0,-
BRDA:396,0,1,-
BRDA:396,0,2,-
BRDA:396,0,3,-
BRDA:396,0,4,-
BRDA:396,0,5,-
BRDA:396,0,6,-
BRDA:396,0,7,-
BRDA:396,0,8,-
BRDA:396,0,9,-
BRDA:396,0,10,-
BRDA:396,0,11,-
BRDA:396,0,12,-
BRDA:396,0,13,-
BRDA:396,0,14,-
BRDA:396,0,15,-
BRDA:396,0,16,-
BRDA:396,0,17,-
BRDA:396,0,18,-
BRDA:396,0,19,-
BRDA:396,0,20,-
BRDA:396,0,21,-
BRDA:397,0,0,-
BRDA:397,0,1,-
BRDA:397,0,2,-
BRDA:397,0,3,-
BRDA:397,0,4,-
BRDA:397,0,5,-
BRDA:397,0,6,-
BRDA:397,0,7,-
BRDA:397,0,8,-
BRDA:397,0,9,-
BRDA:397,0,10,-
BRDA:397,0,11,-
BRDA:397,0,12,-
BRDA:397,0,13,-
BRDA:397,0,14,-
BRDA:397,0,15,-
BRDA:397,0,16,-
BRDA:397,0,17,-
BRDA:397,0,18,-
BRDA:397,0,19,-
BRDA:397,0,20,-
BRDA:397,0,21,-
BRDA:398,0,0,-
BRDA:398,0,1,-
BRDA:398,0,2,-
BRDA:398,0,3,-
BRDA:398,0,4,-
BRDA:398,0,5,-
BRDA:398,0,6,-
BRDA:398,0,7,-
BRDA:398,0,8,-
BRDA:398,0,9,-
BRDA:398,0,10,-
BRDA:398,0,11,-
BRDA:398,0,12,-
BRDA:398,0,13,-
BRDA:398,0,14,-
BRDA:398,0,15,-
BRDA:398,0,16,-
BRDA:398,0,17,-
BRDA:398,0,18,-
BRDA:398,0,19,-
BRDA:398,0,20,-
BRDA:398,0,21,-
BRDA:401,0,0,-
BRDA:401,0,1,-
BRDA:401,0,2,-
BRDA:401,0,3,-
BRDA:401,0,4,-
BRDA:401,0,5,-
BRDA:401,0,6,-
BRDA:401,0,7,-
BRDA:401,0,8,-
BRDA:401,0,9,-
BRDA:401,0,10,-
BRDA:401,0,11,-
BRDA:401,0,12,-
BRDA:401,0,13,-
BRDA:401,0,14,-
BRDA:401,0,15,-
BRDA:401,0,16,-
BRDA:401,0,17,-
BRDA:401,0,18,-
BRDA:401,0,19,-
BRDA:401,0,20,-
BRDA:401,0,21,-
BRDA:402,0,0,-
BRDA:402,0,1,-
BRDA:402,0,2,-
BRDA:402,0,3,-
BRDA:402,0,4,-
BRDA:402,0,5,-
BRDA:402,0,6,-
BRDA:402,0,7,-
BRDA:402,0,8,-
BRDA:402,0,9,-
BRDA:402,0,10,-
BRDA:402,0,11,-
BRDA:402,0,12,-
BRDA:402,0,13,-
BRDA:402,0,14,-
BRDA:402,0,15,-
BRDA:402,0,16,-
BRDA:402,0,17,-
BRDA:402,0,18,-
BRDA:402,0,19,-
BRDA:402,0,20,-
BRDA:402,0,21,-
BRDA:403,0,0,-
BRDA:403,0,1,-
BRDA:403,0,2,-
BRDA:403,0,3,-
BRDA:403,0,4,-
BRDA:403,0,5,-
BRDA:403,0,6,-
BRDA:403,0,7,-
BRDA:403,0,8,-
BRDA:403,0,9,-
BRDA:403,0,10,-
BRDA:403,0,11,-
BRDA:403,0,12,-
BRDA:403,0,13,-
BRDA:403,0,14,-
BRDA:403,0,15,-
BRDA:403,0,16,-
BRDA:403,0,17,-
BRDA:403,0,18,-
BRDA:403,0,19,-
BRDA:403,0,20,-
BRDA:403,0,21,-
BRDA:404,0,0,-
BRDA:404,0,1,-
BRDA:404,0,2,-
BRDA:404,0,3,-
BRDA:404,0,4,-
BRDA:404,0,5,-
BRDA:404,0,6,-
BRDA:404,0,7,-
BRDA:404,0,8,-
BRDA:404,0,9,-
BRDA:404,0,10,-
BRDA:404,0,11,-
BRDA:404,0,12,-
BRDA:404,0,13,-
BRDA:404,0,14,-
BRDA:404,0,15,-
BRDA:404,0,16,-
BRDA:404,0,17,-
BRDA:404,0,18,-
BRDA:404,0,19,-
BRDA:404,0,20,-
BRDA:404,0,21,-
BRDA:405,0,0,-
BRDA:405,0,1,-
BRDA:405,0,2,-
BRDA:405,0,3,-
BRDA:405,0,4,-
BRDA:405,0,5,-
BRDA:405,0,6,-
BRDA:405,0,7,-
BRDA:405,0,8,-
BRDA:405,0,9,-
BRDA:405,0,10,-
BRDA:405,0,11,-
BRDA:405,0,12,-
BRDA:405,0,13,-
BRDA:405,0,14,-
BRDA:405,0,15,-
BRDA:405,0,16,-
BRDA:405,0,17,-
BRDA:405,0,18,-
BRDA:405,0,19,-
BRDA:405,0,20,-
BRDA:405,0,21,-
BRDA:406,0,0,-
BRDA:406,0,1,-
BRDA:406,0,2,-
BRDA:406,0,3,-
BRDA:406,0,4,-
BRDA:406,0,5,-
BRDA:406,0,6,-
BRDA:406,0,7,-
BRDA:406,0,8,-
BRDA:406,0,9,-
BRDA:406,0,10,-
BRDA:406,0,11,-
BRDA:406,0,12,-
BRDA:406,0,13,-
BRDA:406,0,14,-
BRDA:406,0,15,-
BRDA:406,0,16,-
BRDA:406,0,17,-
BRDA:406,0,18,-
BRDA:406,0,19,-
BRDA:406,0,20,-
BRDA:406,0,21,-
BRDA:407,0,0,-
BRDA:407,0,1,-
BRDA:407,0,2,-
BRDA:407,0,3,-
BRDA:407,0,4,-
BRDA:407,0,5,-
BRDA:407,0,6,-
BRDA:407,0,7,-
BRDA:407,0,8,-
BRDA:407,0,9,-
BRDA:407,0,10,-
BRDA:407,0,11,-
BRDA:407,0,12,-
BRDA:407,0,13,-
BRDA:407,0,14,-
BRDA:407,0,15,-
BRDA:407,0,16,-
BRDA:407,0,17,-
BRDA:407,0,18,-
BRDA:407,0,19,-
BRDA:407,0,20,-
BRDA:407,0,21,-
BRDA:408,0,0,-
BRDA:408,0,1,-
BRDA:408,0,2,-
BRDA:408,0,3,-
BRDA:408,0,4,-
BRDA:408,0,5,-
BRDA:408,0,6,-
BRDA:408,0,7,-
BRDA:408,0,8,-
BRDA:408,0,9,-
BRDA:408,0,10,-
BRDA:408,0,11,-
BRDA:408,0,12,-
BRDA:408,0,13,-
BRDA:408,0,14,-
BRDA:408,0,15,-
BRDA:408,0,16,-
BRDA:408,0,17,-
BRDA:408,0,18,-
BRDA:408,0,19,-
BRDA:408,0,20,-
BRDA:408,0,21,-
BRDA:409,0,0,-
BRDA:409,0,1,-
BRDA:409,0,2,-
BRDA:409,0,3,-
BRDA:409,0,4,-
BRDA:409,0,5,-
BRDA:409,0,6,-
BRDA:409,0,7,-
BRDA:409,0,8,-
BRDA:409,0,9,-
BRDA:409,0,10,-
BRDA:409,0,11,-
BRDA:409,0,12,-
BRDA:409,0,13,-
BRDA:409,0,14,-
BRDA:409,0,15,-
BRDA:409,0,16,-
BRDA:409,0,17,-
BRDA:409,0,18,-
BRDA:409,0,19,-
BRDA:409,0,20,-
BRDA:409,0,21,-
BRDA:410,0,0,-
BRDA:410,0,1,-
BRDA:410,0,2,-
BRDA:410,0,3,-
BRDA:410,0,4,-
BRDA:410,0,5,-
BRDA:410,0,6,-
BRDA:410,0,7,-
BRDA:410,0,8,-
BRDA:410,0,9,-
BRDA:410,0,10,-
BRDA:410,0,11,-
BRDA:410,0,12,-
BRDA:410,0,13,-
BRDA:410,0,14,-
BRDA:410,0,15,-
BRDA:410,0,16,-
BRDA:410,0,17,-
BRDA:410,0,18,-
BRDA:410,0,19,-
BRDA:410,0,20,-
BRDA:410,0,21,-
BRDA:413,0,0,-
BRDA:413,0,1,-
BRDA:413,0,2,-
BRDA:413,0,3,-
BRDA:413,0,4,-
BRDA:413,0,5,-
BRDA:413,0,6,-
BRDA:413,0,7,-
BRDA:413,0,8,-
BRDA:413,0,9,-
BRDA:413,0,10,-
BRDA:413,0,11,-
BRDA:413,0,12,-
BRDA:413,0,13,-
BRDA:413,0,14,-
BRDA:413,0,15,-
BRDA:413,0,16,-
BRDA:413,0,17,-
BRDA:413,0,18,-
BRDA:413,0,19,-
BRDA:413,0,20,-
BRDA:413,0,21,-
BRDA:413,0,22,-
BRDA:413,0,23,-
BRDA:413,0,24,-
BRDA:413,0,25,-
BRDA:413,0,26,-
BRDA:413,0,27,-
BRDA:413,0,28,-
BRDA:413,0,29,-
BRDA:414,0,0,-
BRDA:414,0,1,-
BRDA:414,0,2,-
BRDA:414,0,3,-
BRDA:414,0,4,-
BRDA:414,0,5,-
BRDA:414,0,6,-
BRDA:414,0,7,-
BRDA:414,0,8,-
BRDA:414,0,9,-
BRDA:414,0,10,-
BRDA:414,0,11,-
BRDA:414,0,12,-
BRDA:414,0,13,-
BRDA:414,0,14,-
BRDA:414,0,15,-
BRDA:414,0,16,-
BRDA:414,0,17,-
BRDA:414,0,18,-
BRDA:414,0,19,-
BRDA:414,0,20,-
BRDA:414,0,21,-
BRDA:414,0,22,-
BRDA:414,0,23,-
BRDA:414,0,24,-
BRDA:414,0,25,-
BRDA:414,0,26,-
BRDA:414,0,27,-
BRDA:414,0,28,-
BRDA:414,0,29,-
BRDA:415,0,0,-
BRDA:415,0,1,-
BRDA:415,0,2,-
BRDA:415,0,3,-
BRDA:415,0,4,-
BRDA:415,0,5,-
BRDA:415,0,6,-
BRDA:415,0,7,-
BRDA:415,0,8,-
BRDA:415,0,9,-
BRDA:415,0,10,-
BRDA:415,0,11,-
BRDA:415,0,12,-
BRDA:415,0,13,-
BRDA:415,0,14,-
BRDA:415,0,15,-
BRDA:415,0,16,-
BRDA:415,0,17,-
BRDA:415,0,18,-
BRDA:415,0,19,-
BRDA:415,0,20,-
BRDA:415,0,21,-
BRDA:415,0,22,-
BRDA:415,0,23,-
BRDA:415,0,24,-
BRDA:415,0,25,-
BRDA:415,0,26,-
BRDA:415,0,27,-
BRDA:415,0,28,-
BRDA:415,0,29,-
BRDA:416,0,0,-
BRDA:416,0,1,-
BRDA:416,0,2,-
BRDA:416,0,3,-
BRDA:416,0,4,-
BRDA:416,0,5,-
BRDA:416,0,6,-
BRDA:416,0,7,-
BRDA:416,0,8,-
BRDA:416,0,9,-
BRDA:416,0,10,-
BRDA:416,0,11,-
BRDA:416,0,12,-
BRDA:416,0,13,-
BRDA:416,0,14,-
BRDA:416,0,15,-
BRDA:416,0,16,-
BRDA:416,0,17,-
BRDA:416,0,18,-
BRDA:416,0,19,-
BRDA:416,0,20,-
BRDA:416,0,21,-
BRDA:416,0,22,-
BRDA:416,0,23,-
BRDA:416,0,24,-
BRDA:416,0,25,-
BRDA:416,0,26,-
BRDA:416,0,27,-
BRDA:416,0,28,-
BRDA:416,0,29,-
BRDA:419,0,0,-
BRDA:419,0,1,-
BRDA:419,0,2,-
BRDA:419,0,3,-
BRDA:419,0,4,-
BRDA:419,0,5,-
BRDA:419,0,6,-
BRDA:419,0,7,-
BRDA:419,0,8,-
BRDA:419,0,9,-
BRDA:419,0,10,-
BRDA:419,0,11,-
BRDA:419,0,12,-
BRDA:419,0,13,-
BRDA:419,0,14,-
BRDA:419,0,15,-
BRDA:419,0,16,-
BRDA:419,0,17,-
BRDA:419,0,18,-
BRDA:419,0,19,-
BRDA:419,0,20,-
BRDA:419,0,21,-
BRDA:419,0,22,-
BRDA:419,0,23,-
BRDA:419,0,24,-
BRDA:419,0,25,-
BRDA:420,0,0,-
BRDA:420,0,1,-
BRDA:420,0,2,-
BRDA:420,0,3,-
BRDA:420,0,4,-
BRDA:420,0,5,-
BRDA:420,0,6,-
BRDA:420,0,7,-
BRDA:420,0,8,-
BRDA:420,0,9,-
BRDA:420,0,10,-
BRDA:420,0,11,-
BRDA:420,0,12,-
BRDA:420,0,13,-
BRDA:420,0,14,-
BRDA:420,0,15,-
BRDA:420,0,16,-
BRDA:420,0,17,-
BRDA:420,0,18,-
BRDA:420,0,19,-
BRDA:420,0,20,-
BRDA:420,0,21,-
BRDA:420,0,22,-
BRDA:420,0,23,-
BRDA:420,0,24,-
BRDA:420,0,25,-
BRDA:421,0,0,-
BRDA:421,0,1,-
BRDA:421,0,2,-
BRDA:421,0,3,-
BRDA:421,0,4,-
BRDA:421,0,5,-
BRDA:421,0,6,-
BRDA:421,0,7,-
BRDA:421,0,8,-
BRDA:421,0,9,-
BRDA:421,0,10,-
BRDA:421,0,11,-
BRDA:421,0,12,-
BRDA:421,0,13,-
BRDA:421,0,14,-
BRDA:421,0,15,-
BRDA:421,0,16,-
BRDA:421,0,17,-
BRDA:421,0,18,-
BRDA:421,0,19,-
BRDA:421,0,20,-
BRDA:421,0,21,-
BRDA:421,0,22,-
BRDA:421,0,23,-
BRDA:421,0,24,-
BRDA:421,0,25,-
BRDA:422,0,0,-
BRDA:422,0,1,-
BRDA:422,0,2,-
BRDA:422,0,3,-
BRDA:422,0,4,-
BRDA:422,0,5,-
BRDA:422,0,6,-
BRDA:422,0,7,-
BRDA:422,0,8,-
BRDA:422,0,9,-
BRDA:422,0,10,-
BRDA:422,0,11,-
BRDA:422,0,12,-
BRDA:422,0,13,-
BRDA:422,0,14,-
BRDA:422,0,15,-
BRDA:422,0,16,-
BRDA:422,0,17,-
BRDA:422,0,18,-
BRDA:422,0,19,-
BRDA:422,0,20,-
BRDA:422,0,21,-
BRDA:422,0,22,-
BRDA:422,0,23,-
BRDA:422,0,24,-
BRDA:422,0,25,-
BRDA:423,0,0,-
BRDA:423,0,1,-
BRDA:423,0,2,-
BRDA:423,0,3,-
BRDA:423,0,4,-
BRDA:423,0,5,-
BRDA:423,0,6,-
BRDA:423,0,7,-
BRDA:423,0,8,-
BRDA:423,0,9,-
BRDA:423,0,10,-
BRDA:423,0,11,-
BRDA:423,0,12,-
BRDA:423,0,13,-
BRDA:423,0,14,-
BRDA:423,0,15,-
BRDA:423,0,16,-
BRDA:423,0,17,-
BRDA:423,0,18,-
BRDA:423,0,19,-
BRDA:423,0,20,-
BRDA:423,0,21,-
BRDA:423,0,22,-
BRDA:423,0,23,-
BRDA:423,0,24,-
BRDA:423,0,25,-
BRDA:424,0,0,-
BRDA:424,0,1,-
BRDA:424,0,2,-
BRDA:424,0,3,-
BRDA:424,0,4,-
BRDA:424,0,5,-
BRDA:424,0,6,-
BRDA:424,0,7,-
BRDA:424,0,8,-
BRDA:424,0,9,-
BRDA:424,0,10,-
BRDA:424,0,11,-
BRDA:424,0,12,-
BRDA:424,0,13,-
BRDA:424,0,14,-
BRDA:424,0,15,-
BRDA:424,0,16,-
BRDA:424,0,17,-
BRDA:424,0,18,-
BRDA:424,0,19,-
BRDA:424,0,20,-
BRDA:424,0,21,-
BRDA:425,0,0,-
BRDA:425,0,1,-
BRDA:425,0,2,-
BRDA:425,0,3,-
BRDA:425,0,4,-
BRDA:425,0,5,-
BRDA:425,0,6,-
BRDA:425,0,7,-
BRDA:425,0,8,-
BRDA:425,0,9,-
BRDA:425,0,10,-
BRDA:425,0,11,-
BRDA:425,0,12,-
BRDA:425,0,13,-
BRDA:425,0,14,-
BRDA:425,0,15,-
BRDA:425,0,16,-
BRDA:425,0,17,-
BRDA:425,0,18,-
BRDA:425,0,19,-
BRDA:425,0,20,-
BRDA:425,0,21,-
BRDA:426,0,0,-
BRDA:426,0,1,-
BRDA:426,0,2,-
BRDA:426,0,3,-
BRDA:426,0,4,-
BRDA:426,0,5,-
BRDA:426,0,6,-
BRDA:426,0,7,-
BRDA:426,0,8,-
BRDA:426,0,9,-
BRDA:426,0,10,-
BRDA:426,0,11,-
BRDA:426,0,12,-
BRDA:426,0,13,-
BRDA:426,0,14,-
BRDA:426,0,15,-
BRDA:426,0,16,-
BRDA:426,0,17,-
BRDA:426,0,18,-
BRDA:426,0,19,-
BRDA:426,0,20,-
BRDA:426,0,21,-
BRDA:427,0,0,-
BRDA:427,0,1,-
BRDA:427,0,2,-
BRDA:427,0,3,-
BRDA:427,0,4,-
BRDA:427,0,5,-
BRDA:427,0,6,-
BRDA:427,0,7,-
BRDA:427,0,8,-
BRDA:427,0,9,-
BRDA:427,0,10,-
BRDA:427,0,11,-
BRDA:427,0,12,-
BRDA:427,0,13,-
BRDA:427,0,14,-
BRDA:427,0,15,-
BRDA:427,0,16,-
BRDA:427,0,17,-
BRDA:427,0,18,-
BRDA:427,0,19,-
BRDA:427,0,20,-
BRDA:427,0,21,-
BRDA:430,0,0,-
BRDA:430,0,1,-
BRDA:435,0,0,-
BRDA:435,0,1,-
BRDA:435,0,2,-
BRDA:435,0,3,-
BRDA:435,0,4,-
BRDA:435,0,5,-
BRDA:435,0,6,-
BRDA:435,0,7,-
BRDA:435,0,8,-
BRDA:435,0,9,-
BRDA:435,0,10,-
BRDA:435,0,11,-
BRDA:435,0,12,-
BRDA:435,0,13,-
BRDA:435,0,14,-
BRDA:435,0,15,-
BRDA:435,0,16,-
BRDA:435,0,17,-
BRDA:435,0,18,-
BRDA:435,0,19,-
BRDA:435,0,20,-
BRDA:435,0,21,-
BRDA:436,0,0,-
BRDA:436,0,1,-
BRDA:436,0,2,-
BRDA:436,0,3,-
BRDA:436,0,4,-
BRDA:436,0,5,-
BRDA:436,0,6,-
BRDA:436,0,7,-
BRDA:436,0,8,-
BRDA:436,0,9,-
BRDA:436,0,10,-
BRDA:436,0,11,-
BRDA:436,0,12,-
BRDA:436,0,13,-
BRDA:436,0,14,-
BRDA:436,0,15,-
BRDA:436,0,16,-
BRDA:436,0,17,-
BRDA:436,0,18,-
BRDA:436,0,19,-
BRDA:436,0,20,-
BRDA:436,0,21,-
BRDA:437,0,0,-
BRDA:437,0,1,-
BRDA:437,0,2,-
BRDA:437,0,3,-
BRDA:437,0,4,-
BRDA:437,0,5,-
BRDA:437,0,6,-
BRDA:437,0,7,-
BRDA:437,0,8,-
BRDA:437,0,9,-
BRDA:437,0,10,-
BRDA:437,0,11,-
BRDA:437,0,12,-
BRDA:437,0,13,-
BRDA:437,0,14,-
BRDA:437,0,15,-
BRDA:437,0,16,-
BRDA:437,0,17,-
BRDA:437,0,18,-
BRDA:437,0,19,-
BRDA:437,0,20,-
BRDA:437,0,21,-
BRDA:439,0,0,-
BRDA:439,0,1,-
BRDA:441,0,0,-
BRDA:441,0,1,-
BRDA:441,0,2,-
BRDA:441,0,3,-
BRDA:441,0,4,-
BRDA:441,0,5,-
BRDA:441,0,6,-
BRDA:441,0,7,-
BRDA:441,0,8,-
BRDA:441,0,9,-
BRDA:441,0,10,-
BRDA:441,0,11,-
BRDA:442,0,0,-
BRDA:442,0,1,-
BRDA:442,0,2,-
BRDA:442,0,3,-
BRDA:442,0,4,-
BRDA:442,0,5,-
BRDA:442,0,6,-
BRDA:442,0,7,-
BRDA:442,0,8,-
BRDA:442,0,9,-
BRDA:442,0,10,-
BRDA:442,0,11,-
BRDA:443,0,0,-
BRDA:443,0,1,-
BRDA:443,0,2,-
BRDA:443,0,3,-
BRDA:443,0,4,-
BRDA:443,0,5,-
BRDA:443,0,6,-
BRDA:443,0,7,-
BRDA:443,0,8,-
BRDA:443,0,9,-
BRDA:443,0,10,-
BRDA:443,0,11,-
BRDA:445,0,0,-
BRDA:445,0,1,-
BRDA:449,0,0,-
BRDA:449,0,1,-
BRDA:449,0,2,-
BRDA:449,0,3,-
BRDA:453,0,0,-
BRDA:453,0,1,-
BRDA:453,0,2,-
BRDA:453,0,3,-
BRDA:462,0,0,-
BRDA:462,0,1,-
BRDA:481,0,0,-
BRDA:481,0,1,-
BRDA:485,0,0,-
BRDA:485,0,1,-
BRDA:492,0,0,-
BRDA:492,0,1,-
BRDA:494,0,0,-
BRDA:494,0,1,-
BRDA:494,0,2,-
BRDA:494,0,3,-
BRDA:495,0,0,-
BRDA:495,0,1,-
BRDA:495,0,2,-
BRDA:495,0,3,-
BRDA:496,0,0,-
BRDA:496,0,1,-
BRDA:496,0,2,-
BRDA:496,0,3,-
BRDA:496,0,4,-
BRDA:496,0,5,-
BRDA:499,0,0,-
BRDA:499,0,1,-
BRDA:500,0,0,-
BRDA:500,0,1,-
BRDA:500,0,2,-
BRDA:500,0,3,-
BRDA:501,0,0,-
BRDA:501,0,1,-
BRDA:501,0,2,-
BRDA:501,0,3,-
BRDA:504,0,0,-
BRDA:504,0,1,-
BRDA:504,0,2,-
BRDA:504,0,3,-
BRDA:508,0,0,-
BRDA:508,0,1,-
BRDA:508,0,2,-
BRDA:508,0,3,-
BRDA:508,0,4,-
BRDA:508,0,5,-
BRDA:516,0,0,-
BRDA:516,0,1,-
BRDA:521,0,0,-
BRDA:521,0,1,-
BRDA:530,0,0,-
BRDA:530,0,1,-
BRDA:530,0,2,-
BRDA:530,0,3,-
BRDA:531,0,0,-
BRDA:531,0,1,-
BRDA:535,0,0,-
BRDA:535,0,1,-
BRDA:535,0,2,-
BRDA:535,0,3,-
BRDA:536,0,0,-
BRDA:536,0,1,-
BRDA:541,0,0,-
BRDA:541,0,1,-
BRDA:541,0,2,-
BRDA:541,0,3,-
BRDA:542,0,0,-
BRDA:542,0,1,-
BRDA:546,0,0,-
BRDA:546,0,1,-
BRDA:546,0,2,-
BRDA:546,0,3,-
BRDA:547,0,0,-
BRDA:547,0,1,-
BRDA:552,0,0,-
BRDA:552,0,1,-
BRDA:552,0,2,-
BRDA:552,0,3,-
BRDA:553,0,0,-
BRDA:553,0,1,-
BRDA:553,0,2,-
BRDA:553,0,3,-
BRDA:554,0,0,-
BRDA:554,0,1,-
BRDA:554,0,2,-
BRDA:554,0,3,-
BRDA:556,0,0,-
BRDA:556,0,1,-
BRDA:556,0,2,-
BRDA:556,0,3,-
BRDA:556,0,4,-
BRDA:556,0,5,-
BRDA:556,0,6,-
BRDA:556,0,7,-
BRDA:557,0,0,-
BRDA:557,0,1,-
BRDA:560,0,0,-
BRDA:560,0,1,-
BRDA:560,0,2,-
BRDA:560,0,3,-
BRF:1900
BRH:0
DA:14,0
DA:16,0
DA:17,0
DA:18,0
DA:19,0
DA:20,0
DA:21,0
DA:22,0
DA:23,0
DA:24,0
DA:25,0
DA:27,0
DA:32,0
DA:34,0
DA:35,0
DA:38,0
DA:39,0
DA:40,0
DA:44,0
DA:47,0
DA:50,0
DA:52,0
DA:53,0
DA:56,0
DA:57,0
DA:58,0
DA:59,0
DA:60,0
DA:61,0
DA:62,0
DA:64,0
DA:66,0
DA:67,0
DA:68,0
DA:70,0
DA:73,0
DA:74,0
DA:75,0
DA:77,0
DA:78,0
DA:80,0
DA:81,0
DA:83,0
DA:84,0
DA:86,0
DA:87,0
DA:90,0
DA:91,0
DA:94,0
DA:97,0
DA:99,0
DA:100,0
DA:101,0
DA:103,0
DA:104,0
DA:105,0
DA:109,0
DA:110,0
DA:111,0
DA:114,0
DA:115,0
DA:116,0
DA:117,0
DA:118,0
DA:119,0
DA:122,0
DA:123,0
DA:127,0
DA:130,0
DA:131,0
DA:132,0
DA:134,0
DA:135,0
DA:138,0
DA:139,0
DA:140,0
DA:142,0
DA:143,0
DA:144,0
DA:145,0
DA:148,0
DA:149,0
DA:150,0
DA:152,0
DA:153,0
DA:154,0
DA:157,0
DA:158,0
DA:159,0
DA:164,0
DA:165,0
DA:166,0
DA:167,0
DA:170,0
DA:171,0
DA:173,0
DA:174,0
DA:177,0
DA:178,0
DA:179,0
DA:181,0
DA:184,0
DA:185,0
DA:186,0
DA:187,0
DA:189,0
DA:192,0
DA:193,0
DA:195,0
DA:200,0
DA:201,0
DA:202,0
DA:203,0
DA:205,0
DA:206,0
DA:208,0
DA:209,0
DA:211,0
DA:214,0
DA:215,0
DA:218,0
DA:219,0
DA:221,0
DA:222,0
DA:224,0
DA:225,0
DA:228,0
DA:229,0
DA:231,0
DA:233,0
DA:234,0
DA:236,0
DA:239,0
DA:240,0
DA:241,0
DA:245,0
DA:246,0
DA:247,0
DA:248,0
DA:249,0
DA:250,0
DA:252,0
DA:256,0
DA:257,0
DA:260,0
DA:268,0
DA:269,0
DA:270,0
DA:272,0
DA:273,0
DA:275,0
DA:280,0
DA:282,0
DA:285,0
DA:286,0
DA:287,0
DA:292,0
DA:293,0
DA:294,0
DA:296,0
DA:297,0
DA:298,0
DA:299,0
DA:304,0
DA:305,0
DA:306,0
DA:307,0
DA:312,0
DA:316,0
DA:318,0
DA:319,0
DA:322,0
DA:323,0
DA:326,0
DA:327,0
DA:328,0
DA:329,0
DA:333,0
DA:334,0
DA:335,0
DA:336,0
DA:337,0
DA:340,0
DA:341,0
DA:344,0
DA:345,0
DA:346,0
DA:347,0
DA:350,0
DA:351,0
DA:354,0
DA:355,0
DA:356,0
DA:357,0
DA:358,0
DA:361,0
DA:362,0
DA:363,0
DA:364,0
DA:365,0
DA:366,0
DA:367,0
DA:368,0
DA:369,0
DA:370,0
DA:371,0
DA:372,0
DA:373,0
DA:374,0
DA:375,0
DA:376,0
DA:377,0
DA:378,0
DA:379,0
DA:380,0
DA:381,0
DA:382,0
DA:383,0
DA:384,0
DA:385,0
DA:386,0
DA:387,0
DA:388,0
DA:389,0
DA:390,0
DA:391,0
DA:392,0
DA:393,0
DA:394,0
DA:395,0
DA:396,0
DA:397,0
DA:398,0
DA:401,0
DA:402,0
DA:403,0
DA:404,0
DA:405,0
DA:406,0
DA:407,0
DA:408,0
DA:409,0
DA:410,0
DA:413,0
DA:414,0
DA:415,0
DA:416,0
DA:419,0
DA:420,0
DA:421,0
DA:422,0
DA:423,0
DA:424,0
DA:425,0
DA:426,0
DA:427,0
DA:430,0
DA:431,0
DA:432,0
DA:433,0
DA:435,0
DA:436,0
DA:437,0
DA:439,0
DA:441,0
DA:442,0
DA:443,0
DA:445,0
DA:449,0
DA:453,0
DA:454,0
DA:455,0
DA:457,0
DA:458,0
DA:459,0
DA:461,0
DA:462,0
DA:463,0
DA:465,0
DA:468,0
DA:469,0
DA:471,0
DA:472,0
DA:473,0
DA:475,0
DA:476,0
DA:477,0
DA:479,0
DA:480,0
DA:481,0
DA:482,0
DA:484,0
DA:485,0
DA:486,0
DA:488,0
DA:491,0
DA:492,0
DA:494,0
DA:495,0
DA:496,0
DA:499,0
DA:500,0
DA:501,0
DA:504,0
DA:505,0
DA:507,0
DA:508,0
DA:510,0
DA:512,0
DA:514,0
DA:516,0
DA:517,0
DA:521,0
DA:522,0
DA:525,0
DA:528,0
DA:530,0
DA:531,0
DA:532,0
DA:535,0
DA:536,0
DA:537,0
DA:541,0
DA:542,0
DA:543,0
DA:546,0
DA:547,0
DA:548,0
DA:552,0
DA:553,0
DA:554,0
DA:556,0
DA:557,0
DA:560,0
DA:561,0
DA:563,0
DA:566,0
DA:568,0
LF:338
LH:0
end_of_record
TN:
SF:/home/xucong/caicAD/01datainfra/Aurora/aurora-edge-runtime/src/navigation_planner/planner/humanoid_planner.h
FN:47,_ZN6aurora7planner17PlannerModeConfigC2Ev
FN:64,_ZN6aurora7planner19UnifiedPlannerInputC2Ev
FN:83,_ZN6aurora7planner17UnifiedTrajectoryC2Ev
FN:137,_ZN6aurora7planner15HumanoidPlannerD2Ev
FN:137,_ZN6aurora7planner15HumanoidPlannerD0Ev
FN:160,_ZNK6aurora7planner15HumanoidPlanner7isReadyEv
FN:161,_ZNK6aurora7planner15HumanoidPlanner7getModeEv
FN:164,_ZNK6aurora7planner15HumanoidPlanner8getStatsEv
FN:260,_ZN6aurora7planner15HumanoidPlanner17getDataValueModelEv
FN:263,_ZN6aurora7planner15HumanoidPlanner10getCostMapEv
FN:271,_ZN6aurora7planner15HumanoidPlanner15setCurrentStateERKNS0_17HumanoidStateInfoE
FNDA:0,_ZN6aurora7planner15HumanoidPlannerD2Ev
FNDA:0,_ZNK6aurora7planner15HumanoidPlanner8getStatsEv
FNDA:0,_ZN6aurora7planner17PlannerModeConfigC2Ev
FNDA:0,_ZN6aurora7planner15HumanoidPlannerD0Ev
FNDA:0,_ZN6aurora7planner15HumanoidPlanner10getCostMapEv
FNDA:0,_ZN6aurora7planner17UnifiedTrajectoryC2Ev
FNDA:0,_ZN6aurora7planner15HumanoidPlanner17getDataValueModelEv
FNDA:0,_ZN6aurora7planner19UnifiedPlannerInputC2Ev
FNDA:0,_ZNK6aurora7planner15HumanoidPlanner7isReadyEv
FNDA:0,_ZNK6aurora7planner15HumanoidPlanner7getModeEv
FNDA:0,_ZN6aurora7planner15HumanoidPlanner15setCurrentStateERKNS0_17HumanoidStateInfoE
FNF:11
FNH:0
DA:47,0
DA:49,0
DA:50,0
DA:51,0
DA:64,0
DA:83,0
DA:137,0
DA:160,0
DA:161,0
DA:164,0
DA:260,0
DA:263,0
DA:271,0
LF:13
LH:0
end_of_record
TN:
SF:/home/xucong/caicAD/01datainfra/Aurora/aurora-edge-runtime/src/navigation_planner/planner/path_visualizer.cpp
FN:9,_ZN6aurora7planner14PathVisualizerC2ESt10shared_ptrIN6rclcpp4NodeEE
FN:33,_ZN6aurora7planner14PathVisualizerD2Ev
FN:37,_ZN6aurora7planner14PathVisualizer10setFrameIdERKNSt7__cxx1112basic_stringIcSt11char_traitsIcESaIcEEE
FN:41,_ZNK6aurora7planner14PathVisualizer14getCurrentTimeEv
FN:45,_ZN6aurora7planner14PathVisualizer15createLineStripERKNSt7__cxx1112basic_stringIcSt11char_traitsIcESaIcEEEifffRKSt6vectorI5PointSaISB_EEf
FN:88,_ZN6aurora7planner14PathVisualizer12createSphereERKNSt7__cxx1112basic_stringIcSt11char_traitsIcESaIcEEEiRK5Pointffff
FN:127,_ZN6aurora7planner14PathVisualizer13publishMarkerERKN18visualization_msgs3msg7Marker_ISaIvEEE
FN:142,_ZN6aurora7planner14PathVisualizer19publishPlanningPathERKSt6vectorI5PointSaIS3_EE
FN:161,_ZN6aurora7planner14PathVisualizer17publishTrajectoryERKSt6vectorI5PointSaIS3_EE
FN:184,_ZN6aurora7planner14PathVisualizer23publishStartGoalMarkersERK5PointS4_
FN:208,_ZN6aurora7planner14PathVisualizer12clearMarkersEv
FN:230,_ZN6aurora7planner14PathVisualizer20publishCollectedPathERKSt6vectorI5PointSaIS3_EE
FN:250,_ZN6aurora7planner14PathVisualizer19updateCollectedPathERKSt6vectorI5PointSaIS3_EE
FN:282,_ZN6aurora7planner14PathVisualizer25clearCollectedPathHistoryEv
FNDA:0,_ZNK6aurora7planner14PathVisualizer14getCurrentTimeEv
FNDA:0,_ZN6aurora7planner14PathVisualizer15createLineStripERKNSt7__cxx1112basic_stringIcSt11char_traitsIcESaIcEEEifffRKSt6vectorI5PointSaISB_EEf
FNDA:0,_ZN6aurora7planner14PathVisualizer12createSphereERKNSt7__cxx1112basic_stringIcSt11char_traitsIcESaIcEEEiRK5Pointffff
FNDA:0,_ZN6aurora7planner14PathVisualizer12clearMarkersEv
FNDA:0,_ZN6aurora7planner14PathVisualizerC2ESt10shared_ptrIN6rclcpp4NodeEE
FNDA:0,_ZN6aurora7planner14PathVisualizer20publishCollectedPathERKSt6vectorI5PointSaIS3_EE
FNDA:0,_ZN6aurora7planner14PathVisualizer17publishTrajectoryERKSt6vectorI5PointSaIS3_EE
FNDA:0,_ZN6aurora7planner14PathVisualizer25clearCollectedPathHistoryEv
FNDA:0,_ZN6aurora7planner14PathVisualizerD2Ev
FNDA:0,_ZN6aurora7planner14PathVisualizer10setFrameIdERKNSt7__cxx1112basic_stringIcSt11char_traitsIcESaIcEEE
FNDA:0,_ZN6aurora7planner14PathVisualizer19updateCollectedPathERKSt6vectorI5PointSaIS3_EE
FNDA:0,_ZN6aurora7planner14PathVisualizer19publishPlanningPathERKSt6vectorI5PointSaIS3_EE
FNDA:0,_ZN6aurora7planner14PathVisualizer13publishMarkerERKN18visualization_msgs3msg7Marker_ISaIvEEE
FNDA:0,_ZN6aurora7planner14PathVisualizer23publishStartGoalMarkersERK5PointS4_
FNF:14
FNH:0
BRDA:10,0,0,-
BRDA:10,0,1,-
BRDA:13,0,0,-
BRDA:13,0,1,-
BRDA:13,0,2,-
BRDA:13,0,3,-
BRDA:14,0,0,-
BRDA:14,0,1,-
BRDA:16,0,0,-
BRDA:16,0,1,-
BRDA:16,0,2,-
BRDA:16,0,3,-
BRDA:17,0,0,-
BRDA:17,0,1,-
BRDA:19,0,0,-
BRDA:19,0,1,-
BRDA:19,0,2,-
BRDA:19,0,3,-
BRDA:20,0,0,-
BRDA:20,0,1,-
BRDA:22,0,0,-
BRDA:22,0,1,-
BRDA:22,0,2,-
BRDA:22,0,3,-
BRDA:23,0,0,-
BRDA:23,0,1,-
BRDA:25,0,0,-
BRDA:25,0,1,-
BRDA:25,0,2,-
BRDA:25,0,3,-
BRDA:26,0,0,-
BRDA:26,0,1,-
BRDA:26,0,2,-
BRDA:26,0,3,-
BRDA:27,0,0,-
BRDA:27,0,1,-
BRDA:27,0,2,-
BRDA:27,0,3,-
BRDA:28,0,0,-
BRDA:28,0,1,-
BRDA:28,0,2,-
BRDA:28,0,3,-
BRDA:29,0,0,-
BRDA:29,0,1,-
BRDA:29,0,2,-
BRDA:29,0,3,-
BRDA:30,0,0,-
BRDA:30,0,1,-
BRDA:30,0,2,-
BRDA:30,0,3,-
BRDA:52,0,0,-
BRDA:52,0,1,-
BRDA:53,0,0,-
BRDA:53,0,1,-
BRDA:53,0,2,-
BRDA:53,0,3,-
BRDA:54,0,0,-
BRDA:54,0,1,-
BRDA:77,0,0,-
BRDA:77,0,1,-
BRDA:82,0,0,-
BRDA:82,0,1,-
BRDA:95,0,0,-
BRDA:95,0,1,-
BRDA:96,0,0,-
BRDA:96,0,1,-
BRDA:96,0,2,-
BRDA:96,0,3,-
BRDA:97,0,0,-
BRDA:97,0,1,-
BRDA:129,0,0,-
BRDA:129,0,1,-
BRDA:130,0,0,-
BRDA:130,0,1,-
BRDA:130,0,2,-
BRDA:130,0,3,-
BRDA:133,0,0,-
BRDA:133,0,1,-
BRDA:133,0,2,-
BRDA:133,0,3,-
BRDA:133,0,4,-
BRDA:133,0,5,-
BRDA:134,0,0,-
BRDA:134,0,1,-
BRDA:135,0,0,-
BRDA:135,0,1,-
BRDA:136,0,0,-
BRDA:136,0,1,-
BRDA:137,0,0,-
BRDA:137,0,1,-
BRDA:138,0,0,-
BRDA:138,0,1,-
BRDA:143,0,0,-
BRDA:143,0,1,-
BRDA:143,0,2,-
BRDA:143,0,3,-
BRDA:143,0,4,-
BRDA:143,0,5,-
BRDA:147,0,0,-
BRDA:147,0,1,-
BRDA:148,0,0,-
BRDA:148,0,1,-
BRDA:148,0,2,-
BRDA:148,0,3,-
BRDA:153,0,0,-
BRDA:153,0,1,-
BRDA:153,0,2,-
BRDA:153,0,3,-
BRDA:154,0,0,-
BRDA:154,0,1,-
BRDA:156,0,0,-
BRDA:156,0,1,-
BRDA:157,0,0,-
BRDA:157,0,1,-
BRDA:157,0,2,-
BRDA:157,0,3,-
BRDA:162,0,0,-
BRDA:162,0,1,-
BRDA:162,0,2,-
BRDA:162,0,3,-
BRDA:162,0,4,-
BRDA:162,0,5,-
BRDA:166,0,0,-
BRDA:166,0,1,-
BRDA:167,0,0,-
BRDA:167,0,1,-
BRDA:173,0,0,-
BRDA:173,0,1,-
BRDA:175,0,0,-
BRDA:175,0,1,-
BRDA:175,0,2,-
BRDA:175,0,3,-
BRDA:176,0,0,-
BRDA:176,0,1,-
BRDA:179,0,0,-
BRDA:179,0,1,-
BRDA:180,0,0,-
BRDA:180,0,1,-
BRDA:185,0,0,-
BRDA:185,0,1,-
BRDA:189,0,0,-
BRDA:189,0,1,-
BRDA:190,0,0,-
BRDA:190,0,1,-
BRDA:190,0,2,-
BRDA:190,0,3,-
BRDA:196,0,0,-
BRDA:196,0,1,-
BRDA:196,0,2,-
BRDA:196,0,3,-
BRDA:197,0,0,-
BRDA:197,0,1,-
BRDA:200,0,0,-
BRDA:200,0,1,-
BRDA:200,0,2,-
BRDA:200,0,3,-
BRDA:201,0,0,-
BRDA:201,0,1,-
BRDA:203,0,0,-
BRDA:203,0,1,-
BRDA:204,0,0,-
BRDA:204,0,1,-
BRDA:204,0,2,-
BRDA:204,0,3,-
BRDA:209,0,0,-
BRDA:209,0,1,-
BRDA:210,0,0,-
BRDA:210,0,1,-
BRDA:210,0,2,-
BRDA:210,0,3,-
BRDA:214,0,0,-
BRDA:214,0,1,-
BRDA:215,0,0,-
BRDA:215,0,1,-
BRDA:216,0,0,-
BRDA:216,0,1,-
BRDA:216,0,2,-
BRDA:216,0,3,-
BRDA:217,0,0,-
BRDA:217,0,1,-
BRDA:221,0,0,-
BRDA:221,0,1,-
BRDA:222,0,0,-
BRDA:222,0,1,-
BRDA:223,0,0,-
BRDA:223,0,1,-
BRDA:224,0,0,-
BRDA:224,0,1,-
BRDA:231,0,0,-
BRDA:231,0,1,-
BRDA:231,0,2,-
BRDA:231,0,3,-
BRDA:231,0,4,-
BRDA:231,0,5,-
BRDA:235,0,0,-
BRDA:235,0,1,-
BRDA:236,0,0,-
BRDA:236,0,1,-
BRDA:236,0,2,-
BRDA:236,0,3,-
BRDA:242,0,0,-
BRDA:242,0,1,-
BRDA:242,0,2,-
BRDA:242,0,3,-
BRDA:243,0,0,-
BRDA:243,0,1,-
BRDA:245,0,0,-
BRDA:245,0,1,-
BRDA:246,0,0,-
BRDA:246,0,1,-
BRDA:246,0,2,-
BRDA:246,0,3,-
BRDA:251,0,0,-
BRDA:251,0,1,-
BRDA:251,0,2,-
BRDA:251,0,3,-
BRDA:251,0,4,-
BRDA:251,0,5,-
BRDA:256,0,0,-
BRDA:256,0,1,-
BRDA:258,0,0,-
BRDA:258,0,1,-
BRDA:259,0,0,-
BRDA:259,0,1,-
BRDA:265,0,0,-
BRDA:265,0,1,-
BRDA:266,0,0,-
BRDA:266,0,1,-
BRDA:272,0,0,-
BRDA:272,0,1,-
BRDA:276,0,0,-
BRDA:276,0,1,-
BRDA:277,0,0,-
BRDA:277,0,1,-
BRDA:283,0,0,-
BRDA:283,0,1,-
BRDA:284,0,0,-
BRDA:284,0,1,-
BRDA:284,0,2,-
BRDA:284,0,3,-
BRDA:291,0,0,-
BRDA:291,0,1,-
BRDA:292,0,0,-
BRDA:292,0,1,-
BRDA:293,0,0,-
BRDA:293,0,1,-
BRDA:293,0,2,-
BRDA:293,0,3,-
BRDA:294,0,0,-
BRDA:294,0,1,-
BRDA:296,0,0,-
BRDA:296,0,1,-
BRF:252
BRH:0
DA:9,0
DA:10,0
DA:13,0
DA:14,0
DA:16,0
DA:17,0
DA:19,0
DA:20,0
DA:22,0
DA:23,0
DA:25,0
DA:26,0
DA:27,0
DA:28,0
DA:29,0
DA:30,0
DA:31,0
DA:33,0
DA:34,0
DA:35,0
DA:37,0
DA:38,0
DA:39,0
DA:41,0
DA:42,0
DA:45,0
DA:51,0
DA:52,0
DA:53,0
DA:54,0
DA:55,0
DA:56,0
DA:57,0
DA:60,0
DA:61,0
DA:62,0
DA:63,0
DA:66,0
DA:67,0
DA:68,0
DA:71,0
DA:72,0
DA:73,0
DA:74,0
DA:77,0
DA:78,0
DA:79,0
DA:80,0
DA:81,0
DA:82,0
DA:85,0
DA:86,0
DA:88,0
DA:94,0
DA:95,0
DA:96,0
DA:97,0
DA:98,0
DA:99,0
DA:100,0
DA:103,0
DA:104,0
DA:105,0
DA:106,0
DA:109,0
DA:110,0
DA:111,0
DA:114,0
DA:115,0
DA:116,0
DA:119,0
DA:120,0
DA:121,0
DA:122,0
DA:124,0
DA:125,0
DA:127,0
DA:129,0
DA:130,0
DA:133,0
DA:134,0
DA:135,0
DA:136,0
DA:137,0
DA:138,0
DA:140,0
DA:142,0
DA:143,0
DA:144,0
DA:147,0
DA:148,0
DA:152,0
DA:153,0
DA:154,0
DA:156,0
DA:157,0
DA:159,0
DA:161,0
DA:162,0
DA:163,0
DA:166,0
DA:167,0
DA:171,0
DA:173,0
DA:175,0
DA:176,0
DA:177,0
DA:179,0
DA:180,0
DA:184,0
DA:185,0
DA:186,0
DA:189,0
DA:190,0
DA:196,0
DA:197,0
DA:200,0
DA:201,0
DA:203,0
DA:204,0
DA:206,0
DA:208,0
DA:209,0
DA:210,0
DA:214,0
DA:215,0
DA:216,0
DA:217,0
DA:218,0
DA:221,0
DA:222,0
DA:223,0
DA:224,0
DA:227,0
DA:228,0
DA:230,0
DA:231,0
DA:232,0
DA:235,0
DA:236,0
DA:241,0
DA:242,0
DA:243,0
DA:245,0
DA:246,0
DA:248,0
DA:250,0
DA:251,0
DA:252,0
DA:256,0
DA:258,0
DA:259,0
DA:261,0
DA:262,0
DA:263,0
DA:265,0
DA:266,0
DA:272,0
DA:273,0
DA:276,0
DA:277,0
DA:282,0
DA:283,0
DA:284,0
DA:288,0
DA:291,0
DA:292,0
DA:293,0
DA:294,0
DA:295,0
DA:296,0
DA:297,0
LF:172
LH:0
end_of_record
TN:
SF:/home/xucong/caicAD/01datainfra/Aurora/aurora-edge-runtime/src/navigation_planner/planner/planner_base.hpp
FN:26,_ZN6aurora7planner12PlannerInputC2ERK5PointS4_PNS0_7CostMapE
FN:57,_ZN6aurora7planner12PlannerStatsC2Ev
FN:95,_ZN6aurora7planner12PlannerStats5resetEv
FN:108,_ZNK6aurora7planner12PlannerStats11getSnapshotEv
FN:137,_ZN6aurora7planner11PlannerBaseD0Ev
FN:137,_ZN6aurora7planner11PlannerBaseD2Ev
FN:159,_ZN6aurora7planner11PlannerBase10initializeEv
FN:179,_ZNK6aurora7planner11PlannerBase7isReadyEv
FN:191,_ZNK6aurora7planner11PlannerBase13getModeStringB5cxx11Ev
FN:216,_ZN6aurora7planner11PlannerBase10resetStatsEv
FN:228,_ZN6aurora7planner11PlannerBase16updateParametersERKSt3mapINSt7__cxx1112basic_stringIcSt11char_traitsIcESaIcEEEdSt4lessIS8_ESaISt4pairIKS8_dEEE
FNDA:0,_ZN6aurora7planner11PlannerBase16updateParametersERKSt3mapINSt7__cxx1112basic_stringIcSt11char_traitsIcESaIcEEEdSt4lessIS8_ESaISt4pairIKS8_dEEE
FNDA:0,_ZN6aurora7planner11PlannerBase10initializeEv
FNDA:0,_ZN6aurora7planner11PlannerBaseD2Ev
FNDA:0,_ZNK6aurora7planner11PlannerBase7isReadyEv
FNDA:0,_ZNK6aurora7planner12PlannerStats11getSnapshotEv
FNDA:0,_ZN6aurora7planner12PlannerStatsC2Ev
FNDA:0,_ZN6aurora7planner11PlannerBase10resetStatsEv
FNDA:0,_ZNK6aurora7planner11PlannerBase13getModeStringB5cxx11Ev
FNDA:0,_ZN6aurora7planner12PlannerStats5resetEv
FNDA:0,_ZN6aurora7planner12PlannerInputC2ERK5PointS4_PNS0_7CostMapE
FNDA:0,_ZN6aurora7planner11PlannerBaseD0Ev
FNF:11
FNH:0
BRDA:192,0,0,-
BRDA:192,0,1,-
BRDA:192,0,2,-
BRDA:192,0,3,-
BRDA:193,0,0,-
BRDA:193,0,1,-
BRDA:194,0,0,-
BRDA:194,0,1,-
BRDA:195,0,0,-
BRDA:195,0,1,-
BRDA:196,0,0,-
BRDA:196,0,1,-
BRDA:217,0,0,-
BRDA:217,0,1,-
BRF:14
BRH:0
DA:26,0
DA:27,0
DA:57,0
DA:95,0
DA:96,0
DA:97,0
DA:98,0
DA:99,0
DA:100,0
DA:101,0
DA:102,0
DA:103,0
DA:108,0
DA:109,0
DA:110,0
DA:111,0
DA:112,0
DA:113,0
DA:114,0
DA:115,0
DA:116,0
DA:117,0
DA:137,0
DA:159,0
DA:179,0
DA:191,0
DA:192,0
DA:193,0
DA:194,0
DA:195,0
DA:196,0
DA:216,0
DA:217,0
DA:218,0
DA:220,0
DA:228,0
DA:230,0
LF:37
LH:0
end_of_record
TN:
SF:/home/xucong/caicAD/01datainfra/Aurora/aurora-edge-runtime/src/navigation_planner/planner/planner_factory.cpp
FN:14,_ZN6aurora7planner19PlannerCreateConfig14fromConfigDataERKNS0_17PlannerConfigDataE
FN:24,_ZN6aurora7planner14PlannerFactory11getInstanceEv
FN:29,_ZN6aurora7planner14PlannerFactoryC2Ev
FN:31,_ZZN6aurora7planner14PlannerFactoryC4EvENKUlRKNS0_19PlannerCreateConfigEE_clES4_
FN:34,_ZZN6aurora7planner14PlannerFactoryC4EvENKUlRKNS0_19PlannerCreateConfigEE0_clES4_
FN:37,_ZZN6aurora7planner14PlannerFactoryC4EvENKUlRKNS0_19PlannerCreateConfigEE1_clES4_
FN:66,_ZN6aurora7planner14PlannerFactory6createERKNS0_19PlannerCreateConfigE
FN:82,_ZN6aurora7planner14PlannerFactory20createFromConfigFileERKNSt7__cxx1112basic_stringIcSt11char_traitsIcESaIcEEE
FN:97,_ZN6aurora7planner14PlannerFactory14createFromModeENS0_11PlannerModeE
FN:108,_ZN6aurora7planner14PlannerFactory13createFromEnvEv
FN:113,_ZN6aurora7planner14PlannerFactory17createAutoPlannerERKNS0_19PlannerCreateConfigE
FN:130,_ZN6aurora7planner14PlannerFactory21createHumanoidPlannerERKNS0_19PlannerCreateConfigE
FN:150,_ZN6aurora7planner14PlannerFactory17createRulePlannerERKNS0_19PlannerCreateConfigE
FN:163,_ZN6aurora7planner14PlannerFactory15registerCreatorENS0_11PlannerModeESt8functionIFSt10unique_ptrINS0_11PlannerBaseESt14default_deleteIS5_EERKNS0_19PlannerCreateConfigEEE
FN:169,_ZNK6aurora7planner14PlannerFactory15isModeSupportedENS0_11PlannerModeE
FN:173,_ZNK6aurora7planner14PlannerFactory17getSupportedModesEv
FN:183,_ZN6aurora7planner21getPlannerModeFromEnvENS0_11PlannerModeE
FN:201,_ZN6aurora7planner19plannerModeToStringB5cxx11ENS0_11PlannerModeE
FN:210,_ZN6aurora7planner19stringToPlannerModeERKNSt7__cxx1112basic_stringIcSt11char_traitsIcESaIcEEE
FNDA:0,_ZN6aurora7planner19PlannerCreateConfig14fromConfigDataERKNS0_17PlannerConfigDataE
FNDA:0,_ZN6aurora7planner14PlannerFactoryC2Ev
FNDA:0,_ZN6aurora7planner14PlannerFactory17createAutoPlannerERKNS0_19PlannerCreateConfigE
FNDA:0,_ZNK6aurora7planner14PlannerFactory17getSupportedModesEv
FNDA:0,_ZZN6aurora7planner14PlannerFactoryC4EvENKUlRKNS0_19PlannerCreateConfigEE0_clES4_
FNDA:0,_ZN6aurora7planner14PlannerFactory14createFromModeENS0_11PlannerModeE
FNDA:0,_ZN6aurora7planner14PlannerFactory13createFromEnvEv
FNDA:0,_ZNK6aurora7planner14PlannerFactory15isModeSupportedENS0_11PlannerModeE
FNDA:0,_ZN6aurora7planner21getPlannerModeFromEnvENS0_11PlannerModeE
FNDA:0,_ZN6aurora7planner14PlannerFactory11getInstanceEv
FNDA:0,_ZN6aurora7planner14PlannerFactory6createERKNS0_19PlannerCreateConfigE
FNDA:0,_ZN6aurora7planner19plannerModeToStringB5cxx11ENS0_11PlannerModeE
FNDA:0,_ZN6aurora7planner14PlannerFactory17createRulePlannerERKNS0_19PlannerCreateConfigE
FNDA:0,_ZZN6aurora7planner14PlannerFactoryC4EvENKUlRKNS0_19PlannerCreateConfigEE1_clES4_
FNDA:0,_ZN6aurora7planner14PlannerFactory21createHumanoidPlannerERKNS0_19PlannerCreateConfigE
FNDA:0,_ZN6aurora7planner19stringToPlannerModeERKNSt7__cxx1112basic_stringIcSt11char_traitsIcESaIcEEE
FNDA:0,_ZN6aurora7planner14PlannerFactory15registerCreatorENS0_11PlannerModeESt8functionIFSt10unique_ptrINS0_11PlannerBaseESt14default_deleteIS5_EERKNS0_19PlannerCreateConfigEEE
FNDA:0,_ZZN6aurora7planner14PlannerFactoryC4EvENKUlRKNS0_19PlannerCreateConfigEE_clES4_
FNDA:0,_ZN6aurora7planner14PlannerFactory20createFromConfigFileERKNSt7__cxx1112basic_stringIcSt11char_traitsIcESaIcEEE
FNF:19
FNH:0
BRDA:17,0,0,-
BRDA:17,0,1,-
BRDA:18,0,0,-
BRDA:18,0,1,-
BRDA:25,0,0,-
BRDA:25,0,1,-
BRDA:25,0,2,-
BRDA:25,0,3,-
BRDA:25,0,4,-
BRDA:25,0,5,-
BRDA:25,0,6,-
BRDA:25,0,7,-
BRDA:33,0,0,-
BRDA:33,0,1,-
BRDA:36,0,0,-
BRDA:36,0,1,-
BRDA:39,0,0,-
BRDA:39,0,1,-
BRDA:43,0,0,-
BRDA:43,0,1,-
BRDA:44,0,0,-
BRDA:44,0,1,-
BRDA:47,0,0,-
BRDA:47,0,1,-
BRDA:48,0,0,-
BRDA:48,0,1,-
BRDA:53,0,0,-
BRDA:53,0,1,-
BRDA:54,0,0,-
BRDA:54,0,1,-
BRDA:57,0,0,-
BRDA:57,0,1,-
BRDA:58,0,0,-
BRDA:58,0,1,-
BRDA:62,0,0,-
BRDA:62,0,1,-
BRDA:62,0,2,-
BRDA:62,0,3,-
BRDA:67,0,0,-
BRDA:67,0,1,-
BRDA:68,0,0,-
BRDA:68,0,1,-
BRDA:68,0,2,-
BRDA:68,0,3,-
BRDA:68,0,4,-
BRDA:68,0,5,-
BRDA:69,0,0,-
BRDA:69,0,1,-
BRDA:70,0,0,-
BRDA:70,0,1,-
BRDA:71,0,0,-
BRDA:71,0,1,-
BRDA:71,0,2,-
BRDA:71,0,3,-
BRDA:71,0,4,-
BRDA:71,0,5,-
BRDA:77,0,0,-
BRDA:77,0,1,-
BRDA:77,0,2,-
BRDA:77,0,3,-
BRDA:83,0,0,-
BRDA:83,0,1,-
BRDA:84,0,0,-
BRDA:84,0,1,-
BRDA:86,0,0,-
BRDA:86,0,1,-
BRDA:86,0,2,-
BRDA:86,0,3,-
BRDA:87,0,0,-
BRDA:87,0,1,-
BRDA:87,0,2,-
BRDA:87,0,3,-
BRDA:90,0,0,-
BRDA:90,0,1,-
BRDA:93,0,0,-
BRDA:93,0,1,-
BRDA:94,0,0,-
BRDA:94,0,1,-
BRDA:94,0,2,-
BRDA:94,0,3,-
BRDA:102,0,0,-
BRDA:102,0,1,-
BRDA:103,0,0,-
BRDA:103,0,1,-
BRDA:105,0,0,-
BRDA:105,0,1,-
BRDA:114,0,0,-
BRDA:114,0,1,-
BRDA:115,0,0,-
BRDA:115,0,1,-
BRDA:117,0,0,-
BRDA:117,0,1,-
BRDA:118,0,0,-
BRDA:118,0,1,-
BRDA:120,0,0,-
BRDA:120,0,1,-
BRDA:121,0,0,-
BRDA:121,0,1,-
BRDA:124,0,0,-
BRDA:124,0,1,-
BRDA:125,0,0,-
BRDA:125,0,1,-
BRDA:125,0,2,-
BRDA:125,0,3,-
BRDA:131,0,0,-
BRDA:131,0,1,-
BRDA:132,0,0,-
BRDA:132,0,1,-
BRDA:134,0,0,-
BRDA:134,0,1,-
BRDA:135,0,0,-
BRDA:135,0,1,-
BRDA:137,0,0,-
BRDA:137,0,1,-
BRDA:138,0,0,-
BRDA:138,0,1,-
BRDA:141,0,0,-
BRDA:141,0,1,-
BRDA:144,0,0,-
BRDA:144,0,1,-
BRDA:145,0,0,-
BRDA:145,0,1,-
BRDA:145,0,2,-
BRDA:145,0,3,-
BRDA:151,0,0,-
BRDA:151,0,1,-
BRDA:153,0,0,-
BRDA:153,0,1,-
BRDA:154,0,0,-
BRDA:154,0,1,-
BRDA:157,0,0,-
BRDA:157,0,1,-
BRDA:158,0,0,-
BRDA:158,0,1,-
BRDA:158,0,2,-
BRDA:158,0,3,-
BRDA:165,0,0,-
BRDA:165,0,1,-
BRDA:170,0,0,-
BRDA:170,0,1,-
BRDA:175,0,0,-
BRDA:175,0,1,-
BRDA:176,0,0,-
BRDA:176,0,1,-
BRDA:185,0,0,-
BRDA:185,0,1,-
BRDA:186,0,0,-
BRDA:186,0,1,-
BRDA:189,0,0,-
BRDA:189,0,1,-
BRDA:191,0,0,-
BRDA:191,0,1,-
BRDA:193,0,0,-
BRDA:193,0,1,-
BRDA:196,0,0,-
BRDA:196,0,1,-
BRDA:202,0,0,-
BRDA:202,0,1,-
BRDA:202,0,2,-
BRDA:202,0,3,-
BRDA:203,0,0,-
BRDA:203,0,1,-
BRDA:204,0,0,-
BRDA:204,0,1,-
BRDA:205,0,0,-
BRDA:205,0,1,-
BRDA:206,0,0,-
BRDA:206,0,1,-
BRDA:211,0,0,-
BRDA:211,0,1,-
BRDA:214,0,0,-
BRDA:214,0,1,-
BRDA:216,0,0,-
BRDA:216,0,1,-
BRDA:218,0,0,-
BRDA:218,0,1,-
BRF:176
BRH:0
DA:14,0
DA:15,0
DA:16,0
DA:17,0
DA:18,0
DA:19,0
DA:20,0
DA:24,0
DA:25,0
DA:26,0
DA:29,0
DA:31,0
DA:32,0
DA:33,0
DA:34,0
DA:35,0
DA:36,0
DA:37,0
DA:38,0
DA:39,0
DA:42,0
DA:43,0
DA:44,0
DA:46,0
DA:47,0
DA:48,0
DA:52,0
DA:53,0
DA:54,0
DA:56,0
DA:57,0
DA:58,0
DA:62,0
DA:64,0
DA:66,0
DA:67,0
DA:68,0
DA:69,0
DA:70,0
DA:71,0
DA:74,0
DA:75,0
DA:77,0
DA:79,0
DA:82,0
DA:83,0
DA:84,0
DA:86,0
DA:87,0
DA:90,0
DA:93,0
DA:94,0
DA:95,0
DA:97,0
DA:98,0
DA:99,0
DA:102,0
DA:103,0
DA:105,0
DA:106,0
DA:108,0
DA:109,0
DA:110,0
DA:113,0
DA:114,0
DA:115,0
DA:117,0
DA:118,0
DA:120,0
DA:121,0
DA:124,0
DA:125,0
DA:127,0
DA:128,0
DA:130,0
DA:131,0
DA:132,0
DA:134,0
DA:135,0
DA:137,0
DA:138,0
DA:141,0
DA:142,0
DA:144,0
DA:145,0
DA:147,0
DA:148,0
DA:150,0
DA:151,0
DA:153,0
DA:154,0
DA:157,0
DA:158,0
DA:160,0
DA:161,0
DA:163,0
DA:164,0
DA:165,0
DA:167,0
DA:169,0
DA:170,0
DA:173,0
DA:174,0
DA:175,0
DA:176,0
DA:178,0
DA:179,0
DA:183,0
DA:184,0
DA:185,0
DA:186,0
DA:187,0
DA:189,0
DA:190,0
DA:191,0
DA:192,0
DA:193,0
DA:194,0
DA:196,0
DA:198,0
DA:201,0
DA:202,0
DA:203,0
DA:204,0
DA:205,0
DA:206,0
DA:210,0
DA:211,0
DA:212,0
DA:214,0
DA:215,0
DA:216,0
DA:217,0
DA:218,0
DA:219,0
DA:222,0
DA:223,0
LF:137
LH:0
end_of_record
TN:
SF:/home/xucong/caicAD/01datainfra/Aurora/aurora-edge-runtime/src/navigation_planner/planner/planner_factory.h
FN:32,_ZN6aurora7planner19PlannerCreateConfigC2Ev
FN:124,_ZN6aurora7planner14PlannerFactoryD2Ev
FNDA:0,_ZN6aurora7planner19PlannerCreateConfigC2Ev
FNDA:0,_ZN6aurora7planner14PlannerFactoryD2Ev
FNF:2
FNH:0
DA:32,0
DA:124,0
LF:2
LH:0
end_of_record
TN:
SF:/home/xucong/caicAD/01datainfra/Aurora/aurora-edge-runtime/src/navigation_planner/planner/rule_planner.cpp
FN:8,_ZN6aurora7planner11RulePlannerC2ERKNSt7__cxx1112basic_stringIcSt11char_traitsIcESaIcEEE
FN:27,_ZN6aurora7planner11RulePlanner10initializeEv
FN:78,_ZN6aurora7planner11RulePlanner17loadConfigurationERKNSt7__cxx1112basic_stringIcSt11char_traitsIcESaIcEEE
FN:96,_ZN6aurora7planner11RulePlanner27updateCostmapWithStatisticsEv
FN:111,_ZN6aurora7planner11RulePlanner20optimizeNextWaypointEv
FN:122,_ZN6aurora7planner11RulePlanner12validatePathERKSt6vectorI5PointSaIS3_EE
FN:149,_ZN6aurora7planner11RulePlanner21updateCoverageMetricsERKSt6vectorISt4pairIiiESaIS4_EE
FN:160,_ZN6aurora7planner11RulePlanner18computeStateRewardERK13AutoStateInfoS4_
FN:171,_ZN6aurora7planner11RulePlanner19reloadConfigurationEv
FN:183,_ZN6aurora7planner11RulePlanner12addDataPointERK5Point
FN:188,_ZN6aurora7planner11RulePlanner5resetEv
FN:198,_ZN6aurora7planner11RulePlanner4planERKNS0_12PlannerInputE
FN:218,_ZN6aurora7planner11RulePlanner16updateParametersERKSt3mapINSt7__cxx1112basic_stringIcSt11char_traitsIcESaIcEEEdSt4lessIS8_ESaISt4pairIKS8_dEEE
FN:247,_ZN6aurora7planner11RulePlanner21printPerformanceStatsEv
FNDA:0,_ZN6aurora7planner11RulePlanner16updateParametersERKSt3mapINSt7__cxx1112basic_stringIcSt11char_traitsIcESaIcEEEdSt4lessIS8_ESaISt4pairIKS8_dEEE
FNDA:0,_ZN6aurora7planner11RulePlanner18computeStateRewardERK13AutoStateInfoS4_
FNDA:0,_ZN6aurora7planner11RulePlanner4planERKNS0_12PlannerInputE
FNDA:0,_ZN6aurora7planner11RulePlanner12addDataPointERK5Point
FNDA:0,_ZN6aurora7planner11RulePlannerC2ERKNSt7__cxx1112basic_stringIcSt11char_traitsIcESaIcEEE
FNDA:0,_ZN6aurora7planner11RulePlanner12validatePathERKSt6vectorI5PointSaIS3_EE
FNDA:0,_ZN6aurora7planner11RulePlanner5resetEv
FNDA:0,_ZN6aurora7planner11RulePlanner27updateCostmapWithStatisticsEv
FNDA:0,_ZN6aurora7planner11RulePlanner10initializeEv
FNDA:0,_ZN6aurora7planner11RulePlanner21updateCoverageMetricsERKSt6vectorISt4pairIiiESaIS4_EE
FNDA:0,_ZN6aurora7planner11RulePlanner19reloadConfigurationEv
FNDA:0,_ZN6aurora7planner11RulePlanner20optimizeNextWaypointEv
FNDA:0,_ZN6aurora7planner11RulePlanner17loadConfigurationERKNSt7__cxx1112basic_stringIcSt11char_traitsIcESaIcEEE
FNDA:0,_ZN6aurora7planner11RulePlanner21printPerformanceStatsEv
FNF:14
FNH:0
BRDA:9,0,0,-
BRDA:9,0,1,-
BRDA:12,0,0,-
BRDA:12,0,1,-
BRDA:12,0,2,-
BRDA:12,0,3,-
BRDA:18,0,0,-
BRDA:18,0,1,-
BRDA:19,0,0,-
BRDA:19,0,1,-
BRDA:20,0,0,-
BRDA:20,0,1,-
BRDA:21,0,0,-
BRDA:21,0,1,-
BRDA:22,0,0,-
BRDA:22,0,1,-
BRDA:23,0,0,-
BRDA:23,0,1,-
BRDA:24,0,0,-
BRDA:24,0,1,-
BRDA:28,0,0,-
BRDA:28,0,1,-
BRDA:28,0,2,-
BRDA:28,0,3,-
BRDA:31,0,0,-
BRDA:31,0,1,-
BRDA:31,0,2,-
BRDA:31,0,3,-
BRDA:32,0,0,-
BRDA:32,0,1,-
BRDA:32,0,2,-
BRDA:32,0,3,-
BRDA:37,0,0,-
BRDA:37,0,1,-
BRDA:37,0,2,-
BRDA:37,0,3,-
BRDA:38,0,0,-
BRDA:38,0,1,-
BRDA:38,0,2,-
BRDA:38,0,3,-
BRDA:39,0,0,-
BRDA:39,0,1,-
BRDA:39,0,2,-
BRDA:39,0,3,-
BRDA:41,0,0,-
BRDA:41,0,1,-
BRDA:41,0,2,-
BRDA:41,0,3,-
BRDA:41,0,4,-
BRDA:41,0,5,-
BRDA:41,0,6,-
BRDA:41,0,7,-
BRDA:42,0,0,-
BRDA:42,0,1,-
BRDA:46,0,0,-
BRDA:46,0,1,-
BRDA:49,0,0,-
BRDA:49,0,1,-
BRDA:52,0,0,-
BRDA:52,0,1,-
BRDA:58,0,0,-
BRDA:58,0,1,-
BRDA:59,0,0,-
BRDA:59,0,1,-
BRDA:60,0,0,-
BRDA:60,0,1,-
BRDA:63,0,0,-
BRDA:63,0,1,-
BRDA:63,0,2,-
BRDA:63,0,3,-
BRDA:64,0,0,-
BRDA:64,0,1,-
BRDA:65,0,0,-
BRDA:65,0,1,-
BRDA:65,0,2,-
BRDA:65,0,3,-
BRDA:67,0,0,-
BRDA:67,0,1,-
BRDA:69,0,0,-
BRDA:69,0,1,-
BRDA:72,0,0,-
BRDA:72,0,1,-
BRDA:74,0,0,-
BRDA:74,0,1,-
BRDA:74,0,2,-
BRDA:74,0,3,-
BRDA:79,0,0,-
BRDA:79,0,1,-
BRDA:82,0,0,-
BRDA:82,0,1,-
BRDA:82,0,2,-
BRDA:82,0,3,-
BRDA:82,0,4,-
BRDA:82,0,5,-
BRDA:83,0,0,-
BRDA:83,0,1,-
BRDA:83,0,2,-
BRDA:83,0,3,-
BRDA:88,0,0,-
BRDA:88,0,1,-
BRDA:89,0,0,-
BRDA:89,0,1,-
BRDA:89,0,2,-
BRDA:89,0,3,-
BRDA:89,0,4,-
BRDA:89,0,5,-
BRDA:89,0,6,-
BRDA:89,0,7,-
BRDA:90,0,0,-
BRDA:90,0,1,-
BRDA:97,0,0,-
BRDA:97,0,1,-
BRDA:97,0,2,-
BRDA:97,0,3,-
BRDA:108,0,0,-
BRDA:108,0,1,-
BRDA:108,0,2,-
BRDA:108,0,3,-
BRDA:112,0,0,-
BRDA:112,0,1,-
BRDA:112,0,2,-
BRDA:112,0,3,-
BRDA:115,0,0,-
BRDA:115,0,1,-
BRDA:117,0,0,-
BRDA:117,0,1,-
BRDA:117,0,2,-
BRDA:117,0,3,-
BRDA:117,0,4,-
BRDA:117,0,5,-
BRDA:123,0,0,-
BRDA:123,0,1,-
BRDA:127,0,0,-
BRDA:127,0,1,-
BRDA:127,0,2,-
BRDA:127,0,3,-
BRDA:127,0,4,-
BRDA:127,0,5,-
BRDA:127,0,6,-
BRDA:127,0,7,-
BRDA:130,0,0,-
BRDA:130,0,1,-
BRDA:130,0,2,-
BRDA:130,0,3,-
BRDA:131,0,0,-
BRDA:131,0,1,-
BRDA:131,0,2,-
BRDA:131,0,3,-
BRDA:136,0,0,-
BRDA:136,0,1,-
BRDA:137,0,0,-
BRDA:137,0,1,-
BRDA:138,0,0,-
BRDA:138,0,1,-
BRDA:138,0,2,-
BRDA:138,0,3,-
BRDA:138,0,4,-
BRDA:138,0,5,-
BRDA:138,0,6,-
BRDA:138,0,7,-
BRDA:139,0,0,-
BRDA:139,0,1,-
BRDA:140,0,0,-
BRDA:140,0,1,-
BRDA:140,0,2,-
BRDA:140,0,3,-
BRDA:145,0,0,-
BRDA:145,0,1,-
BRDA:145,0,2,-
BRDA:145,0,3,-
BRDA:150,0,0,-
BRDA:150,0,1,-
BRDA:150,0,2,-
BRDA:150,0,3,-
BRDA:154,0,0,-
BRDA:154,0,1,-
BRDA:154,0,2,-
BRDA:154,0,3,-
BRDA:156,0,0,-
BRDA:156,0,1,-
BRDA:156,0,2,-
BRDA:156,0,3,-
BRDA:162,0,0,-
BRDA:162,0,1,-
BRDA:162,0,2,-
BRDA:162,0,3,-
BRDA:164,0,0,-
BRDA:164,0,1,-
BRDA:166,0,0,-
BRDA:166,0,1,-
BRDA:166,0,2,-
BRDA:166,0,3,-
BRDA:172,0,0,-
BRDA:172,0,1,-
BRDA:172,0,2,-
BRDA:172,0,3,-
BRDA:174,0,0,-
BRDA:174,0,1,-
BRDA:177,0,0,-
BRDA:177,0,1,-
BRDA:177,0,2,-
BRDA:177,0,3,-
BRDA:179,0,0,-
BRDA:179,0,1,-
BRDA:179,0,2,-
BRDA:179,0,3,-
BRDA:185,0,0,-
BRDA:185,0,1,-
BRDA:185,0,2,-
BRDA:185,0,3,-
BRDA:195,0,0,-
BRDA:195,0,1,-
BRDA:195,0,2,-
BRDA:195,0,3,-
BRDA:208,0,0,-
BRDA:208,0,1,-
BRDA:211,0,0,-
BRDA:211,0,1,-
BRDA:211,0,2,-
BRDA:211,0,3,-
BRDA:212,0,0,-
BRDA:212,0,1,-
BRDA:212,0,2,-
BRDA:212,0,3,-
BRDA:220,0,0,-
BRDA:220,0,1,-
BRDA:221,0,0,-
BRDA:221,0,1,-
BRDA:225,0,0,-
BRDA:225,0,1,-
BRDA:225,0,2,-
BRDA:225,0,3,-
BRDA:226,0,0,-
BRDA:226,0,1,-
BRDA:226,0,2,-
BRDA:226,0,3,-
BRDA:227,0,0,-
BRDA:227,0,1,-
BRDA:227,0,2,-
BRDA:227,0,3,-
BRDA:229,0,0,-
BRDA:229,0,1,-
BRDA:229,0,2,-
BRDA:229,0,3,-
BRDA:229,0,4,-
BRDA:229,0,5,-
BRDA:229,0,6,-
BRDA:229,0,7,-
BRDA:230,0,0,-
BRDA:230,0,1,-
BRDA:234,0,0,-
BRDA:234,0,1,-
BRDA:237,0,0,-
BRDA:237,0,1,-
BRDA:240,0,0,-
BRDA:240,0,1,-
BRDA:244,0,0,-
BRDA:244,0,1,-
BRDA:244,0,2,-
BRDA:244,0,3,-
BRDA:248,0,0,-
BRDA:248,0,1,-
BRDA:250,0,0,-
BRDA:250,0,1,-
BRDA:250,0,2,-
BRDA:250,0,3,-
BRDA:251,0,0,-
BRDA:251,0,1,-
BRDA:251,0,2,-
BRDA:251,0,3,-
BRDA:251,0,4,-
BRDA:251,0,5,-
BRDA:252,0,0,-
BRDA:252,0,1,-
BRDA:252,0,2,-
BRDA:252,0,3,-
BRDA:252,0,4,-
BRDA:252,0,5,-
BRDA:252,0,6,-
BRDA:252,0,7,-
BRDA:253,0,0,-
BRDA:253,0,1,-
BRDA:253,0,2,-
BRDA:253,0,3,-
BRDA:253,0,4,-
BRDA:253,0,5,-
BRDA:254,0,0,-
BRDA:254,0,1,-
BRDA:254,0,2,-
BRDA:254,0,3,-
BRDA:254,0,4,-
BRDA:254,0,5,-
BRDA:254,0,6,-
BRDA:254,0,7,-
BRF:294
BRH:0
DA:8,0
DA:9,0
DA:10,0
DA:11,0
DA:12,0
DA:14,0
DA:15,0
DA:16,0
DA:18,0
DA:19,0
DA:20,0
DA:21,0
DA:22,0
DA:23,0
DA:24,0
DA:25,0
DA:27,0
DA:28,0
DA:31,0
DA:32,0
DA:33,0
DA:37,0
DA:38,0
DA:39,0
DA:41,0
DA:42,0
DA:46,0
DA:47,0
DA:49,0
DA:50,0
DA:52,0
DA:53,0
DA:57,0
DA:58,0
DA:59,0
DA:60,0
DA:63,0
DA:64,0
DA:65,0
DA:67,0
DA:69,0
DA:72,0
DA:74,0
DA:75,0
DA:78,0
DA:79,0
DA:82,0
DA:83,0
DA:84,0
DA:88,0
DA:89,0
DA:90,0
DA:93,0
DA:96,0
DA:97,0
DA:100,0
DA:103,0
DA:106,0
DA:108,0
DA:109,0
DA:111,0
DA:112,0
DA:115,0
DA:117,0
DA:119,0
DA:122,0
DA:123,0
DA:124,0
DA:127,0
DA:130,0
DA:131,0
DA:132,0
DA:136,0
DA:137,0
DA:138,0
DA:139,0
DA:140,0
DA:145,0
DA:146,0
DA:147,0
DA:149,0
DA:150,0
DA:152,0
DA:154,0
DA:155,0
DA:156,0
DA:157,0
DA:158,0
DA:160,0
DA:162,0
DA:164,0
DA:166,0
DA:168,0
DA:171,0
DA:172,0
DA:174,0
DA:176,0
DA:177,0
DA:179,0
DA:181,0
DA:183,0
DA:184,0
DA:185,0
DA:186,0
DA:188,0
DA:190,0
DA:191,0
DA:192,0
DA:193,0
DA:195,0
DA:196,0
DA:198,0
DA:200,0
DA:201,0
DA:204,0
DA:207,0
DA:208,0
DA:211,0
DA:212,0
DA:215,0
DA:216,0
DA:218,0
DA:220,0
DA:221,0
DA:225,0
DA:226,0
DA:227,0
DA:229,0
DA:230,0
DA:234,0
DA:235,0
DA:237,0
DA:238,0
DA:240,0
DA:241,0
DA:244,0
DA:245,0
DA:247,0
DA:248,0
DA:250,0
DA:251,0
DA:252,0
DA:253,0
DA:254,0
DA:255,0
LF:145
LH:0
end_of_record
TN:
SF:/home/xucong/caicAD/01datainfra/Aurora/aurora-edge-runtime/src/navigation_planner/planner/rule_planner.h
FN:54,_ZN6aurora7planner11RulePlannerD2Ev
FN:54,_ZN6aurora7planner11RulePlannerD0Ev
FN:67,_ZNK6aurora7planner11RulePlanner7isReadyEv
FN:68,_ZNK6aurora7planner11RulePlanner7getModeEv
FN:71,_ZNK6aurora7planner11RulePlanner8getStatsEv
FNDA:0,_ZNK6aurora7planner11RulePlanner7isReadyEv
FNDA:0,_ZN6aurora7planner11RulePlannerD2Ev
FNDA:0,_ZNK6aurora7planner11RulePlanner8getStatsEv
FNDA:0,_ZNK6aurora7planner11RulePlanner7getModeEv
FNDA:0,_ZN6aurora7planner11RulePlannerD0Ev
FNF:5
FNH:0
DA:54,0
DA:67,0
DA:68,0
DA:71,0
LF:4
LH:0
end_of_record
TN:
SF:/home/xucong/caicAD/01datainfra/Aurora/aurora-edge-runtime/src/navigation_planner/rl_policy/auto_ppo_agent.cpp
FN:28,_ZN6aurora7planner12AutoPPOAgent13initializeRNGEv
FN:29,_ZZN6aurora7planner12AutoPPOAgent13initializeRNGEvENKUlvE_clEv
FN:39,_ZN6aurora7planner12AutoPPOAgentC2ERKNS0_13AutoPPOConfigE
FN:89,_ZN6aurora7planner12AutoPPOAgentD2Ev
FN:91,_ZN6aurora7planner12AutoPPOAgent22initializeFromPlatformEv
FN:117,_ZN6aurora7planner12AutoPPOAgent28initializeNewInferenceEngineEv
FN:128,_ZN6aurora7planner12AutoPPOAgent12selectActionERK5Pointb
FN:145,_ZN6aurora7planner12AutoPPOAgent12selectActionERKNS0_5StateINS0_15AutoStateTraitsEEEb
FN:197,_ZN6aurora7planner12AutoPPOAgent22getActionProbabilitiesERKNS0_5StateINS0_15AutoStateTraitsEEE
FN:251,_ZN6aurora7planner12AutoPPOAgent22getActionProbabilitiesERK5Point
FN:261,_ZN6aurora7planner12AutoPPOAgent12runInferenceERKNS0_5StateINS0_15AutoStateTraitsEEE
FN:327,_ZN6aurora7planner12AutoPPOAgent8getValueERK5Point
FN:351,_ZN6aurora7planner12AutoPPOAgent6updateERKSt6vectorINS0_14AutoTrajectoryESaIS3_EE
FN:365,_ZN6aurora7planner12AutoPPOAgent11saveWeightsERKNSt7__cxx1112basic_stringIcSt11char_traitsIcESaIcEEE
FN:370,_ZN6aurora7planner12AutoPPOAgent11loadWeightsERKNSt7__cxx1112basic_stringIcSt11char_traitsIcESaIcEEE
FN:374,_ZN6aurora7planner12AutoPPOAgent13loadOnnxModelERKNSt7__cxx1112basic_stringIcSt11char_traitsIcESaIcEEE
FN:430,_ZN6aurora7planner12AutoPPOAgent15resetStatisticsEv
FN:435,_ZN6aurora7planner12AutoPPOAgent26updateConfigFromParametersERKSt3mapINSt7__cxx1112basic_stringIcSt11char_traitsIcESaIcEEEdSt4lessIS8_ESaISt4pairIKS8_dEEE
FN:436,_ZZN6aurora7planner12AutoPPOAgent26updateConfigFromParametersERKSt3mapINSt7__cxx1112basic_stringIcSt11char_traitsIcESaIcEEEdSt4lessIS8_ESaISt4pairIKS8_dEEEENKUlRKSt6vectorIS8_SaIS8_EEE_clESM_
FNDA:0,_ZN6aurora7planner12AutoPPOAgent13initializeRNGEv
FNDA:0,_ZN6aurora7planner12AutoPPOAgent8getValueERK5Point
FNDA:0,_ZN6aurora7planner12AutoPPOAgent11saveWeightsERKNSt7__cxx1112basic_stringIcSt11char_traitsIcESaIcEEE
FNDA:0,_ZN6aurora7planner12AutoPPOAgent6updateERKSt6vectorINS0_14AutoTrajectoryESaIS3_EE
FNDA:0,_ZN6aurora7planner12AutoPPOAgent11loadWeightsERKNSt7__cxx1112basic_stringIcSt11char_traitsIcESaIcEEE
FNDA:0,_ZN6aurora7planner12AutoPPOAgent12selectActionERKNS0_5StateINS0_15AutoStateTraitsEEEb
FNDA:0,_ZN6aurora7planner12AutoPPOAgent28initializeNewInferenceEngineEv
FNDA:0,_ZN6aurora7planner12AutoPPOAgentC2ERKNS0_13AutoPPOConfigE
FNDA:0,_ZN6aurora7planner12AutoPPOAgent12runInferenceERKNS0_5StateINS0_15AutoStateTraitsEEE
FNDA:0,_ZZN6aurora7planner12AutoPPOAgent13initializeRNGEvENKUlvE_clEv
FNDA:0,_ZN6aurora7planner12AutoPPOAgent26updateConfigFromParametersERKSt3mapINSt7__cxx1112basic_stringIcSt11char_traitsIcESaIcEEEdSt4lessIS8_ESaISt4pairIKS8_dEEE
FNDA:0,_ZN6aurora7planner12AutoPPOAgent13loadOnnxModelERKNSt7__cxx1112basic_stringIcSt11char_traitsIcESaIcEEE
FNDA:0,_ZN6aurora7planner12AutoPPOAgent22initializeFromPlatformEv
FNDA:0,_ZN6aurora7planner12AutoPPOAgent15resetStatisticsEv
FNDA:0,_ZZN6aurora7planner12AutoPPOAgent26updateConfigFromParametersERKSt3mapINSt7__cxx1112basic_stringIcSt11char_traitsIcESaIcEEEdSt4lessIS8_ESaISt4pairIKS8_dEEEENKUlRKSt6vectorIS8_SaIS8_EEE_clESM_
FNDA:0,_ZN6aurora7planner12AutoPPOAgent12selectActionERK5Pointb
FNDA:0,_ZN6aurora7planner12AutoPPOAgent22getActionProbabilitiesERK5Point
FNDA:0,_ZN6aurora7planner12AutoPPOAgentD2Ev
FNDA:0,_ZN6aurora7planner12AutoPPOAgent22getActionProbabilitiesERKNS0_5StateINS0_15AutoStateTraitsEEE
FNF:19
FNH:0
BRDA:29,0,0,-
BRDA:29,0,1,-
BRDA:30,0,0,-
BRDA:30,0,1,-
BRDA:34,0,0,-
BRDA:34,0,1,-
BRDA:34,0,2,-
BRDA:34,0,3,-
BRDA:34,0,4,-
BRDA:34,0,5,-
BRDA:34,0,6,-
BRDA:34,0,7,-
BRDA:34,0,8,-
BRDA:34,0,9,-
BRDA:34,0,10,-
BRDA:34,0,11,-
BRDA:35,0,0,-
BRDA:35,0,1,-
BRDA:35,0,2,-
BRDA:35,0,3,-
BRDA:47,0,0,-
BRDA:47,0,1,-
BRDA:51,0,0,-
BRDA:51,0,1,-
BRDA:54,0,0,-
BRDA:54,0,1,-
BRDA:57,0,0,-
BRDA:57,0,1,-
BRDA:60,0,0,-
BRDA:60,0,1,-
BRDA:61,0,0,-
BRDA:61,0,1,-
BRDA:65,0,0,-
BRDA:65,0,1,-
BRDA:67,0,0,-
BRDA:67,0,1,-
BRDA:72,0,0,-
BRDA:72,0,1,-
BRDA:74,0,0,-
BRDA:74,0,1,-
BRDA:75,0,0,-
BRDA:75,0,1,-
BRDA:75,0,2,-
BRDA:75,0,3,-
BRDA:76,0,0,0
BRDA:76,0,1,0
BRDA:77,0,0,0
BRDA:77,0,1,0
BRDA:77,0,2,0
BRDA:77,0,3,0
BRDA:84,0,0,-
BRDA:84,0,1,-
BRDA:84,0,2,-
BRDA:84,0,3,-
BRDA:84,0,4,-
BRDA:84,0,5,-
BRDA:93,0,0,-
BRDA:93,0,1,-
BRDA:93,0,2,-
BRDA:93,0,3,-
BRDA:95,0,0,-
BRDA:95,0,1,-
BRDA:98,0,0,-
BRDA:98,0,1,-
BRDA:104,0,0,-
BRDA:104,0,1,-
BRDA:105,0,0,-
BRDA:105,0,1,-
BRDA:109,0,0,-
BRDA:109,0,1,-
BRDA:109,0,2,-
BRDA:109,0,3,-
BRDA:109,0,4,-
BRDA:109,0,5,-
BRDA:124,0,0,-
BRDA:124,0,1,-
BRDA:125,0,0,-
BRDA:125,0,1,-
BRDA:125,0,2,-
BRDA:125,0,3,-
BRDA:130,0,0,-
BRDA:130,0,1,-
BRDA:131,0,0,-
BRDA:131,0,1,-
BRDA:132,0,0,-
BRDA:132,0,1,-
BRDA:134,0,0,-
BRDA:134,0,1,-
BRDA:135,0,0,-
BRDA:135,0,1,-
BRDA:136,0,0,-
BRDA:136,0,1,-
BRDA:136,0,2,-
BRDA:136,0,3,-
BRDA:138,0,0,-
BRDA:138,0,1,-
BRDA:139,0,0,-
BRDA:139,0,1,-
BRDA:139,0,2,-
BRDA:139,0,3,-
BRDA:149,0,0,-
BRDA:149,0,1,-
BRDA:152,0,0,-
BRDA:152,0,1,-
BRDA:153,0,0,-
BRDA:153,0,1,-
BRDA:154,0,0,-
BRDA:154,0,1,-
BRDA:156,0,0,-
BRDA:156,0,1,-
BRDA:157,0,0,-
BRDA:157,0,1,-
BRDA:158,0,0,-
BRDA:158,0,1,-
BRDA:162,0,0,-
BRDA:162,0,1,-
BRDA:163,0,0,-
BRDA:163,0,1,-
BRDA:169,0,0,-
BRDA:169,0,1,-
BRDA:174,0,0,-
BRDA:174,0,1,-
BRDA:180,0,0,-
BRDA:180,0,1,-
BRDA:181,0,0,-
BRDA:181,0,1,-
BRDA:181,0,2,-
BRDA:181,0,3,-
BRDA:184,0,0,-
BRDA:184,0,1,-
BRDA:185,0,0,-
BRDA:185,0,1,-
BRDA:185,0,2,-
BRDA:185,0,3,-
BRDA:193,0,0,-
BRDA:193,0,1,-
BRDA:194,0,0,-
BRDA:194,0,1,-
BRDA:194,0,2,-
BRDA:194,0,3,-
BRDA:200,0,0,-
BRDA:200,0,1,-
BRDA:203,0,0,-
BRDA:203,0,1,-
BRDA:205,0,0,-
BRDA:205,0,1,-
BRDA:206,0,0,-
BRDA:206,0,1,-
BRDA:208,0,0,-
BRDA:208,0,1,-
BRDA:210,0,0,-
BRDA:210,0,1,-
BRDA:211,0,0,-
BRDA:211,0,1,-
BRDA:212,0,0,-
BRDA:212,0,1,-
BRDA:213,0,0,-
BRDA:213,0,1,-
BRDA:215,0,0,-
BRDA:215,0,1,-
BRDA:220,0,0,-
BRDA:220,0,1,-
BRDA:221,0,0,-
BRDA:221,0,1,-
BRDA:227,0,0,-
BRDA:227,0,1,-
BRDA:232,0,0,-
BRDA:232,0,1,-
BRDA:238,0,0,-
BRDA:238,0,1,-
BRDA:239,0,0,0
BRDA:239,0,1,0
BRDA:239,0,2,0
BRDA:239,0,3,0
BRDA:240,0,0,0
BRDA:240,0,1,0
BRDA:241,0,0,0
BRDA:241,0,1,0
BRDA:246,0,0,-
BRDA:246,0,1,-
BRDA:253,0,0,-
BRDA:253,0,1,-
BRDA:254,0,0,-
BRDA:254,0,1,-
BRDA:255,0,0,-
BRDA:255,0,1,-
BRDA:257,0,0,-
BRDA:257,0,1,-
BRDA:264,0,0,-
BRDA:264,0,1,-
BRDA:265,0,0,-
BRDA:265,0,1,-
BRDA:269,0,0,-
BRDA:269,0,1,-
BRDA:272,0,0,-
BRDA:272,0,1,-
BRDA:273,0,0,-
BRDA:273,0,1,-
BRDA:281,0,0,-
BRDA:281,0,1,-
BRDA:282,0,0,-
BRDA:282,0,1,-
BRDA:284,0,0,-
BRDA:284,0,1,-
BRDA:288,0,0,-
BRDA:288,0,1,-
BRDA:292,0,0,-
BRDA:292,0,1,-
BRDA:294,0,0,-
BRDA:294,0,1,-
BRDA:295,0,0,-
BRDA:295,0,1,-
BRDA:304,0,0,-
BRDA:304,0,1,-
BRDA:307,0,0,-
BRDA:307,0,1,-
BRDA:307,0,2,-
BRDA:307,0,3,-
BRDA:310,0,0,-
BRDA:310,0,1,-
BRDA:311,0,0,-
BRDA:311,0,1,-
BRDA:317,0,0,-
BRDA:317,0,1,-
BRDA:318,0,0,-
BRDA:318,0,1,-
BRDA:318,0,2,-
BRDA:318,0,3,-
BRDA:319,0,0,-
BRDA:319,0,1,-
BRDA:319,0,2,-
BRDA:319,0,3,-
BRDA:319,0,4,-
BRDA:319,0,5,-
BRDA:323,0,0,-
BRDA:323,0,1,-
BRDA:329,0,0,-
BRDA:329,0,1,-
BRDA:330,0,0,-
BRDA:330,0,1,-
BRDA:331,0,0,-
BRDA:331,0,1,-
BRDA:333,0,0,-
BRDA:333,0,1,-
BRDA:336,0,0,-
BRDA:336,0,1,-
BRDA:338,0,0,-
BRDA:338,0,1,-
BRDA:339,0,0,-
BRDA:339,0,1,-
BRDA:341,0,0,-
BRDA:341,0,1,-
BRDA:342,0,0,0
BRDA:342,0,1,0
BRDA:342,0,2,0
BRDA:342,0,3,0
BRDA:344,0,0,0
BRDA:344,0,1,0
BRDA:352,0,0,-
BRDA:352,0,1,-
BRDA:354,0,0,-
BRDA:354,0,1,-
BRDA:356,0,0,-
BRDA:356,0,1,-
BRDA:361,0,0,-
BRDA:361,0,1,-
BRDA:366,0,0,-
BRDA:366,0,1,-
BRDA:375,0,0,-
BRDA:375,0,1,-
BRDA:375,0,2,-
BRDA:375,0,3,-
BRDA:375,0,4,-
BRDA:375,0,5,-
BRDA:377,0,0,-
BRDA:377,0,1,-
BRDA:378,0,0,-
BRDA:378,0,1,-
BRDA:381,0,0,-
BRDA:381,0,1,-
BRDA:388,0,0,-
BRDA:388,0,1,-
BRDA:389,0,0,-
BRDA:389,0,1,-
BRDA:396,0,0,-
BRDA:396,0,1,-
BRDA:398,0,0,-
BRDA:398,0,1,-
BRDA:399,0,0,-
BRDA:399,0,1,-
BRDA:401,0,0,-
BRDA:401,0,1,-
BRDA:413,0,0,-
BRDA:413,0,1,-
BRDA:415,0,0,-
BRDA:415,0,1,-
BRDA:415,0,2,-
BRDA:415,0,3,-
BRDA:418,0,0,-
BRDA:418,0,1,-
BRDA:419,0,0,0
BRDA:419,0,1,0
BRDA:419,0,2,0
BRDA:419,0,3,0
BRDA:437,0,0,-
BRDA:437,0,1,-
BRDA:438,0,0,-
BRDA:438,0,1,-
BRDA:439,0,0,-
BRDA:439,0,1,-
BRDA:447,0,0,-
BRDA:447,0,1,-
BRDA:447,0,2,-
BRDA:447,0,3,-
BRDA:447,0,4,-
BRDA:447,0,5,-
BRDA:447,0,6,-
BRDA:447,0,7,-
BRDA:447,0,8,-
BRDA:447,0,9,-
BRDA:447,0,10,-
BRDA:447,0,11,-
BRDA:448,0,0,-
BRDA:448,0,1,-
BRDA:450,0,0,-
BRDA:450,0,1,-
BRDA:450,0,2,-
BRDA:450,0,3,-
BRDA:450,0,4,-
BRDA:450,0,5,-
BRDA:450,0,6,-
BRDA:450,0,7,-
BRDA:450,0,8,-
BRDA:450,0,9,-
BRDA:450,0,10,-
BRDA:450,0,11,-
BRDA:451,0,0,-
BRDA:451,0,1,-
BRDA:453,0,0,-
BRDA:453,0,1,-
BRDA:453,0,2,-
BRDA:453,0,3,-
BRDA:453,0,4,-
BRDA:453,0,5,-
BRDA:453,0,6,-
BRDA:453,0,7,-
BRDA:453,0,8,-
BRDA:453,0,9,-
BRDA:453,0,10,-
BRDA:453,0,11,-
BRDA:454,0,0,-
BRDA:454,0,1,-
BRDA:456,0,0,-
BRDA:456,0,1,-
BRDA:456,0,2,-
BRDA:456,0,3,-
BRDA:456,0,4,-
BRDA:456,0,5,-
BRDA:456,0,6,-
BRDA:456,0,7,-
BRDA:456,0,8,-
BRDA:456,0,9,-
BRDA:456,0,10,-
BRDA:456,0,11,-
BRDA:457,0,0,-
BRDA:457,0,1,-
BRDA:459,0,0,-
BRDA:459,0,1,-
BRDA:459,0,2,-
BRDA:459,0,3,-
BRDA:459,0,4,-
BRDA:459,0,5,-
BRDA:459,0,6,-
BRDA:459,0,7,-
BRDA:459,0,8,-
BRDA:459,0,9,-
BRDA:459,0,10,-
BRDA:459,0,11,-
BRDA:460,0,0,-
BRDA:460,0,1,-
BRDA:462,0,0,-
BRDA:462,0,1,-
BRDA:462,0,2,-
BRDA:462,0,3,-
BRDA:462,0,4,-
BRDA:462,0,5,-
BRDA:462,0,6,-
BRDA:462,0,7,-
BRDA:462,0,8,-
BRDA:462,0,9,-
BRDA:462,0,10,-
BRDA:462,0,11,-
BRDA:463,0,0,-
BRDA:463,0,1,-
BRDA:465,0,0,-
BRDA:465,0,1,-
BRDA:465,0,2,-
BRDA:465,0,3,-
BRDA:465,0,4,-
BRDA:465,0,5,-
BRDA:465,0,6,-
BRDA:465,0,7,-
BRDA:465,0,8,-
BRDA:465,0,9,-
BRDA:465,0,10,-
BRDA:465,0,11,-
BRDA:466,0,0,-
BRDA:466,0,1,-
BRDA:468,0,0,-
BRDA:468,0,1,-
BRDA:468,0,2,-
BRDA:468,0,3,-
BRDA:468,0,4,-
BRDA:468,0,5,-
BRDA:468,0,6,-
BRDA:468,0,7,-
BRDA:468,0,8,-
BRDA:468,0,9,-
BRDA:468,0,10,-
BRDA:468,0,11,-
BRDA:469,0,0,-
BRDA:469,0,1,-
BRDA:471,0,0,-
BRDA:471,0,1,-
BRDA:471,0,2,-
BRDA:471,0,3,-
BRDA:471,0,4,-
BRDA:471,0,5,-
BRDA:471,0,6,-
BRDA:471,0,7,-
BRDA:471,0,8,-
BRDA:471,0,9,-
BRDA:471,0,10,-
BRDA:471,0,11,-
BRDA:472,0,0,-
BRDA:472,0,1,-
BRDA:474,0,0,-
BRDA:474,0,1,-
BRDA:474,0,2,-
BRDA:474,0,3,-
BRDA:474,0,4,-
BRDA:474,0,5,-
BRDA:474,0,6,-
BRDA:474,0,7,-
BRDA:474,0,8,-
BRDA:474,0,9,-
BRDA:474,0,10,-
BRDA:474,0,11,-
BRDA:475,0,0,-
BRDA:475,0,1,-
BRDA:478,0,0,-
BRDA:478,0,1,-
BRDA:478,0,2,-
BRDA:478,0,3,-
BRDA:478,0,4,-
BRDA:478,0,5,-
BRDA:478,0,6,-
BRDA:478,0,7,-
BRDA:478,0,8,-
BRDA:478,0,9,-
BRDA:478,0,10,-
BRDA:478,0,11,-
BRDA:479,0,0,-
BRDA:479,0,1,-
BRDA:481,0,0,-
BRDA:481,0,1,-
BRDA:481,0,2,-
BRDA:481,0,3,-
BRDA:481,0,4,-
BRDA:481,0,5,-
BRDA:481,0,6,-
BRDA:481,0,7,-
BRDA:481,0,8,-
BRDA:481,0,9,-
BRDA:481,0,10,-
BRDA:481,0,11,-
BRDA:482,0,0,-
BRDA:482,0,1,-
BRDA:484,0,0,-
BRDA:484,0,1,-
BRDA:484,0,2,-
BRDA:484,0,3,-
BRDA:484,0,4,-
BRDA:484,0,5,-
BRDA:484,0,6,-
BRDA:484,0,7,-
BRDA:484,0,8,-
BRDA:484,0,9,-
BRDA:484,0,10,-
BRDA:484,0,11,-
BRDA:485,0,0,-
BRDA:485,0,1,-
BRDA:487,0,0,-
BRDA:487,0,1,-
BRDA:487,0,2,-
BRDA:487,0,3,-
BRDA:487,0,4,-
BRDA:487,0,5,-
BRDA:487,0,6,-
BRDA:487,0,7,-
BRDA:487,0,8,-
BRDA:487,0,9,-
BRDA:487,0,10,-
BRDA:487,0,11,-
BRDA:488,0,0,-
BRDA:488,0,1,-
BRDA:490,0,0,-
BRDA:490,0,1,-
BRDA:490,0,2,-
BRDA:490,0,3,-
BRDA:490,0,4,-
BRDA:490,0,5,-
BRDA:490,0,6,-
BRDA:490,0,7,-
BRDA:490,0,8,-
BRDA:490,0,9,-
BRDA:490,0,10,-
BRDA:490,0,11,-
BRDA:491,0,0,-
BRDA:491,0,1,-
BRF:520
BRH:0
DA:28,0
DA:29,0
DA:30,0
DA:32,0
DA:33,0
DA:34,0
DA:35,0
DA:36,0
DA:37,0
DA:39,0
DA:40,0
DA:41,0
DA:42,0
DA:43,0
DA:44,0
DA:47,0
DA:51,0
DA:54,0
DA:57,0
DA:60,0
DA:61,0
DA:65,0
DA:66,0
DA:67,0
DA:72,0
DA:74,0
DA:75,0
DA:76,0
DA:77,0
DA:78,0
DA:79,0
DA:80,0
DA:84,0
DA:87,0
DA:89,0
DA:91,0
DA:93,0
DA:95,0
DA:96,0
DA:98,0
DA:99,0
DA:104,0
DA:105,0
DA:106,0
DA:109,0
DA:115,0
DA:117,0
DA:118,0
DA:119,0
DA:120,0
DA:121,0
DA:122,0
DA:124,0
DA:125,0
DA:126,0
DA:128,0
DA:130,0
DA:131,0
DA:132,0
DA:134,0
DA:135,0
DA:136,0
DA:138,0
DA:139,0
DA:140,0
DA:141,0
DA:145,0
DA:149,0
DA:152,0
DA:153,0
DA:154,0
DA:156,0
DA:157,0
DA:158,0
DA:161,0
DA:162,0
DA:163,0
DA:164,0
DA:168,0
DA:169,0
DA:170,0
DA:171,0
DA:174,0
DA:175,0
DA:180,0
DA:181,0
DA:184,0
DA:185,0
DA:186,0
DA:188,0
DA:189,0
DA:193,0
DA:194,0
DA:195,0
DA:197,0
DA:200,0
DA:203,0
DA:205,0
DA:206,0
DA:208,0
DA:210,0
DA:211,0
DA:212,0
DA:213,0
DA:215,0
DA:216,0
DA:218,0
DA:219,0
DA:220,0
DA:221,0
DA:222,0
DA:226,0
DA:227,0
DA:228,0
DA:229,0
DA:232,0
DA:233,0
DA:237,0
DA:238,0
DA:239,0
DA:240,0
DA:241,0
DA:246,0
DA:247,0
DA:251,0
DA:253,0
DA:254,0
DA:255,0
DA:257,0
DA:261,0
DA:264,0
DA:265,0
DA:269,0
DA:270,0
DA:272,0
DA:273,0
DA:274,0
DA:275,0
DA:278,0
DA:279,0
DA:281,0
DA:282,0
DA:284,0
DA:285,0
DA:288,0
DA:290,0
DA:291,0
DA:292,0
DA:294,0
DA:295,0
DA:297,0
DA:298,0
DA:299,0
DA:300,0
DA:303,0
DA:304,0
DA:305,0
DA:307,0
DA:308,0
DA:310,0
DA:311,0
DA:314,0
DA:315,0
DA:317,0
DA:318,0
DA:319,0
DA:323,0
DA:324,0
DA:327,0
DA:329,0
DA:330,0
DA:331,0
DA:333,0
DA:336,0
DA:338,0
DA:339,0
DA:340,0
DA:341,0
DA:342,0
DA:343,0
DA:344,0
DA:348,0
DA:349,0
DA:351,0
DA:352,0
DA:354,0
DA:355,0
DA:356,0
DA:357,0
DA:361,0
DA:363,0
DA:365,0
DA:366,0
DA:367,0
DA:370,0
DA:371,0
DA:374,0
DA:375,0
DA:376,0
DA:377,0
DA:378,0
DA:381,0
DA:384,0
DA:388,0
DA:389,0
DA:390,0
DA:394,0
DA:396,0
DA:398,0
DA:399,0
DA:401,0
DA:413,0
DA:415,0
DA:417,0
DA:418,0
DA:419,0
DA:421,0
DA:422,0
DA:423,0
DA:430,0
DA:431,0
DA:432,0
DA:433,0
DA:435,0
DA:436,0
DA:437,0
DA:438,0
DA:439,0
DA:440,0
DA:443,0
DA:444,0
DA:447,0
DA:448,0
DA:450,0
DA:451,0
DA:453,0
DA:454,0
DA:456,0
DA:457,0
DA:459,0
DA:460,0
DA:462,0
DA:463,0
DA:465,0
DA:466,0
DA:468,0
DA:469,0
DA:471,0
DA:472,0
DA:474,0
DA:475,0
DA:478,0
DA:479,0
DA:481,0
DA:482,0
DA:484,0
DA:485,0
DA:487,0
DA:488,0
DA:490,0
DA:491,0
DA:492,0
LF:262
LH:0
end_of_record
TN:
SF:/home/xucong/caicAD/01datainfra/Aurora/aurora-edge-runtime/src/navigation_planner/rl_policy/auto_ppo_agent.h
FN:68,_ZN6aurora7planner13AutoPPOConfigC2Ev
FN:91,_ZN6aurora7planner18AutoInferenceStatsC2Ev
FN:98,_ZN6aurora7planner18AutoInferenceStats15recordInferenceEd
FN:119,_ZN6aurora7planner18AutoInferenceStats11recordErrorEv
FN:123,_ZNK6aurora7planner18AutoInferenceStats17getAverageLatencyEv
FN:222,_ZN6aurora7planner12AutoPPOAgent11setStateDimEi
FN:224,_ZNK6aurora7planner12AutoPPOAgent18getMaxEpisodeStepsEv
FN:230,_ZNK6aurora7planner12AutoPPOAgent17getInferenceStatsEv
FNDA:0,_ZNK6aurora7planner12AutoPPOAgent17getInferenceStatsEv
FNDA:0,_ZN6aurora7planner18AutoInferenceStats15recordInferenceEd
FNDA:0,_ZNK6aurora7planner18AutoInferenceStats17getAverageLatencyEv
FNDA:0,_ZN6aurora7planner18AutoInferenceStatsC2Ev
FNDA:0,_ZN6aurora7planner18AutoInferenceStats11recordErrorEv
FNDA:0,_ZNK6aurora7planner12AutoPPOAgent18getMaxEpisodeStepsEv
FNDA:0,_ZN6aurora7planner13AutoPPOConfigC2Ev
FNDA:0,_ZN6aurora7planner12AutoPPOAgent11setStateDimEi
FNF:8
FNH:0
BRDA:104,0,0,-
BRDA:104,0,1,-
BRDA:105,0,0,-
BRDA:105,0,1,-
BRDA:112,0,0,-
BRDA:112,0,1,-
BRDA:113,0,0,-
BRDA:113,0,1,-
BRDA:125,0,0,-
BRDA:125,0,1,-
BRF:10
BRH:0
DA:68,0
DA:91,0
DA:92,0
DA:93,0
DA:94,0
DA:95,0
DA:96,0
DA:98,0
DA:99,0
DA:100,0
DA:103,0
DA:104,0
DA:105,0
DA:106,0
DA:111,0
DA:112,0
DA:113,0
DA:114,0
DA:117,0
DA:119,0
DA:120,0
DA:121,0
DA:123,0
DA:124,0
DA:125,0
DA:222,0
DA:224,0
DA:230,0
LF:28
LH:0
end_of_record
TN:
SF:/home/xucong/caicAD/01datainfra/Aurora/aurora-edge-runtime/src/navigation_planner/rl_policy/auto_reward.cpp
FN:7,_ZN6aurora7planner20AutoRewardCalculator13computeRewardERK13AutoStateInfoS4_RKNS0_16AutoRewardConfigE
FNDA:0,_ZN6aurora7planner20AutoRewardCalculator13computeRewardERK13AutoStateInfoS4_RKNS0_16AutoRewardConfigE
FNF:1
FNH:0
BRDA:13,0,0,-
BRDA:13,0,1,-
BRDA:15,0,0,-
BRDA:15,0,1,-
BRDA:23,0,0,-
BRDA:23,0,1,-
BRDA:28,0,0,-
BRDA:28,0,1,-
BRDA:33,0,0,-
BRDA:33,0,1,-
BRDA:38,0,0,-
BRDA:38,0,1,-
BRDA:43,0,0,-
BRDA:43,0,1,-
BRDA:48,0,0,-
BRDA:48,0,1,-
BRDA:48,0,2,-
BRDA:48,0,3,-
BRF:18
BRH:0
DA:7,0
DA:10,0
DA:13,0
DA:14,0
DA:15,0
DA:16,0
DA:20,0
DA:23,0
DA:24,0
DA:28,0
DA:29,0
DA:33,0
DA:34,0
DA:38,0
DA:39,0
DA:43,0
DA:44,0
DA:48,0
DA:49,0
DA:52,0
LF:20
LH:0
end_of_record
TN:
SF:/home/xucong/caicAD/01datainfra/Aurora/aurora-edge-runtime/src/navigation_planner/rl_policy/auto_route_optimize.cpp
FN:22,_ZN6aurora7planner16AutoRoutePlannerC2Eddd
FN:38,_ZN6aurora7planner16AutoRoutePlanner8optRouteERKNS0_11AutoMapDataERKNS0_13AutoDataStatsE
FN:58,_ZN6aurora7planner16AutoRoutePlanner16computeAStarPathERKNS0_7CostMapERK5PointS7_
FN:68,_ZZN6aurora7planner16AutoRoutePlanner16computeAStarPathERKNS0_7CostMapERK5PointS7_ENKUlPKZNS1_16computeAStarPathES4_S7_S7_E4NodeSA_E_clESA_SA_
FN:90,_ZZN6aurora7planner16AutoRoutePlanner16computeAStarPathERKNS0_7CostMapERK5PointS7_ENKUliiiiE0_clEiiii
FN:178,_ZN6aurora7planner16AutoRoutePlanner14computePPOPathERKNS0_7CostMapERK5PointS7_
FN:197,_ZZN6aurora7planner16AutoRoutePlanner14computePPOPathERKNS0_7CostMapERK5PointS7_ENKUliE_clEi
FN:206,_ZZN6aurora7planner16AutoRoutePlanner14computePPOPathERKNS0_7CostMapERK5PointS7_ENKUliE0_clEi
FN:207,_ZZN6aurora7planner16AutoRoutePlanner14computePPOPathERKNS0_7CostMapERK5PointS7_ENKUliE1_clEi
FN:208,_ZZN6aurora7planner16AutoRoutePlanner14computePPOPathERKNS0_7CostMapERK5PointS7_ENKUliE2_clEi
FNDA:0,_ZZN6aurora7planner16AutoRoutePlanner14computePPOPathERKNS0_7CostMapERK5PointS7_ENKUliE0_clEi
FNDA:0,_ZN6aurora7planner16AutoRoutePlanner14computePPOPathERKNS0_7CostMapERK5PointS7_
FNDA:0,_ZZN6aurora7planner16AutoRoutePlanner14computePPOPathERKNS0_7CostMapERK5PointS7_ENKUliE_clEi
FNDA:0,_ZZN6aurora7planner16AutoRoutePlanner16computeAStarPathERKNS0_7CostMapERK5PointS7_ENKUliiiiE0_clEiiii
FNDA:0,_ZZN6aurora7planner16AutoRoutePlanner14computePPOPathERKNS0_7CostMapERK5PointS7_ENKUliE2_clEi
FNDA:0,_ZZN6aurora7planner16AutoRoutePlanner14computePPOPathERKNS0_7CostMapERK5PointS7_ENKUliE1_clEi
